Archive member included to satisfy reference by file (symbol)

../../../../../../Library/Bluetooth_LE/library/libbluenrg1_stack.a(bluenrg_gap_aci.o)
                              User/DTM_cmd_db.o (aci_gap_allow_rebond)
../../../../../../Library/Bluetooth_LE/library/libbluenrg1_stack.a(bluenrg_gatt_aci.o)
                              User/DTM_cmd_db.o (aci_att_execute_write_req)
../../../../../../Library/Bluetooth_LE/library/libbluenrg1_stack.a(bluenrg_hal_aci.o)
                              User/DTM_cmd_db.o (aci_hal_get_fw_build_number)
../../../../../../Library/Bluetooth_LE/library/libbluenrg1_stack.a(bluenrg_l2cap_aci.o)
                              User/DTM_cmd_db.o (aci_l2cap_connection_parameter_update_req)
../../../../../../Library/Bluetooth_LE/library/libbluenrg1_stack.a(bluenrg_main_func.o)
                              User/DTM_main.o (BTLE_StackTick)
../../../../../../Library/Bluetooth_LE/library/libbluenrg1_stack.a(gap.o)
                              ../../../../../../Library/Bluetooth_LE/library/libbluenrg1_stack.a(bluenrg_gap_aci.o) (GAP_Create_Connection)
../../../../../../Library/Bluetooth_LE/library/libbluenrg1_stack.a(gatt_client.o)
                              ../../../../../../Library/Bluetooth_LE/library/libbluenrg1_stack.a(bluenrg_gatt_aci.o) (Gatt_Confirm_Indication)
../../../../../../Library/Bluetooth_LE/library/libbluenrg1_stack.a(gatt_server.o)
                              ../../../../../../Library/Bluetooth_LE/library/libbluenrg1_stack.a(gatt_client.o) (GATT_Send_Packet)
../../../../../../Library/Bluetooth_LE/library/libbluenrg1_stack.a(hal.o)
                              ../../../../../../Library/Bluetooth_LE/library/libbluenrg1_stack.a(bluenrg_hal_aci.o) (HAL_Read_ConfigData)
../../../../../../Library/Bluetooth_LE/library/libbluenrg1_stack.a(hci.o)
                              ../../../../../../Library/Bluetooth_LE/library/libbluenrg1_stack.a(bluenrg_main_func.o) (Controller_Process_Q)
../../../../../../Library/Bluetooth_LE/library/libbluenrg1_stack.a(hci_privacy.o)
                              Stack/stack_user_cfg.o (hci_le_add_device_to_resolving_list_api)
../../../../../../Library/Bluetooth_LE/library/libbluenrg1_stack.a(host_timer.o)
                              ../../../../../../Library/Bluetooth_LE/library/libbluenrg1_stack.a(bluenrg_main_func.o) (Timer_Init)
../../../../../../Library/Bluetooth_LE/library/libbluenrg1_stack.a(l2cap.o)
                              ../../../../../../Library/Bluetooth_LE/library/libbluenrg1_stack.a(bluenrg_l2cap_aci.o) (L2C_Build_Connect_Update_Req)
../../../../../../Library/Bluetooth_LE/library/libbluenrg1_stack.a(ll_isr.o)
                              Stack/stack_user_cfg.o (Data_Length_Update_Control_ISR)
../../../../../../Library/Bluetooth_LE/library/libbluenrg1_stack.a(ll_privacy.o)
                              ../../../../../../Library/Bluetooth_LE/library/libbluenrg1_stack.a(hci_privacy.o) (LL_LE_Add_Device_To_Resolving_List)
../../../../../../Library/Bluetooth_LE/library/libbluenrg1_stack.a(ll_routines.o)
                              Stack/stack_user_cfg.o (Data_Len_Update_Offline_Processing)
../../../../../../Library/Bluetooth_LE/library/libbluenrg1_stack.a(ll_routines_master.o)
                              ../../../../../../Library/Bluetooth_LE/library/libbluenrg1_stack.a(gap.o) (LL_Create_Connection)
../../../../../../Library/Bluetooth_LE/library/libbluenrg1_stack.a(ll_routines_support.o)
                              Stack/stack_user_cfg.o (LL_Encrypt_Plain_Data)
../../../../../../Library/Bluetooth_LE/library/libbluenrg1_stack.a(mem_alloc.o)
                              ../../../../../../Library/Bluetooth_LE/library/libbluenrg1_stack.a(bluenrg_main_func.o) (_BlueNRG_Stack_Init_params)
../../../../../../Library/Bluetooth_LE/library/libbluenrg1_stack.a(mem_buff.o)
                              ../../../../../../Library/Bluetooth_LE/library/libbluenrg1_stack.a(l2cap.o) (Mem_Buff_Append)
../../../../../../Library/Bluetooth_LE/library/libbluenrg1_stack.a(multi_master_time.o)
                              ../../../../../../Library/Bluetooth_LE/library/libbluenrg1_stack.a(hci.o) (LL_Get_Anchor_Interval)
../../../../../../Library/Bluetooth_LE/library/libbluenrg1_stack.a(nvm.o)
                              ../../../../../../Library/Bluetooth_LE/library/libbluenrg1_stack.a(ll_isr.o) (Is_Flash_Write_On_Going)
../../../../../../Library/Bluetooth_LE/library/libbluenrg1_stack.a(pka.o)
                              ../../../../../../Library/Bluetooth_LE/library/libbluenrg1_stack.a(hci.o) (BLEPLAT_PKA_Get_Current_Operation)
../../../../../../Library/Bluetooth_LE/library/libbluenrg1_stack.a(pm.o)
                              ../../../../../../Library/Bluetooth_LE/library/libbluenrg1_stack.a(l2cap.o) (PM_Compact)
../../../../../../Library/Bluetooth_LE/library/libbluenrg1_stack.a(rom_att.o)
                              ../../../../../../Library/Bluetooth_LE/library/libbluenrg1_stack.a(gatt_client.o) (ATT_fill_exchg_mtu_req)
../../../../../../Library/Bluetooth_LE/library/libbluenrg1_stack.a(rom_gap.o)
                              ../../../../../../Library/Bluetooth_LE/library/libbluenrg1_stack.a(gap.o) (GAP_Add_To_WhiteList)
../../../../../../Library/Bluetooth_LE/library/libbluenrg1_stack.a(rom_gap_rom.o)
                              ../../../../../../Library/Bluetooth_LE/library/libbluenrg1_stack.a(bluenrg_gap_aci.o) (GAP_Delete_ADType)
../../../../../../Library/Bluetooth_LE/library/libbluenrg1_stack.a(rom_gatt_server.o)
                              ../../../../../../Library/Bluetooth_LE/library/libbluenrg1_stack.a(gatt_server.o) (Check_Encry_Key_Size)
../../../../../../Library/Bluetooth_LE/library/libbluenrg1_stack.a(rom_list.o)
                              ../../../../../../Library/Bluetooth_LE/library/libbluenrg1_stack.a(gatt_server.o) (List_Circular_Get_Size)
../../../../../../Library/Bluetooth_LE/library/libbluenrg1_stack.a(rom_ll_isr_postproc.o)
                              ../../../../../../Library/Bluetooth_LE/library/libbluenrg1_stack.a(ll_isr.o) (isr_postproc1)
../../../../../../Library/Bluetooth_LE/library/libbluenrg1_stack.a(rom_ll_isr_routines.o)
                              ../../../../../../Library/Bluetooth_LE/library/libbluenrg1_stack.a(ll_isr.o) (LL_update_proc)
../../../../../../Library/Bluetooth_LE/library/libbluenrg1_stack.a(rom_ll_ll_routines.o)
                              ../../../../../../Library/Bluetooth_LE/library/libbluenrg1_stack.a(hci.o) (Is_Address_Initialized)
../../../../../../Library/Bluetooth_LE/library/libbluenrg1_stack.a(rom_ll_ll_routines_master.o)
                              ../../../../../../Library/Bluetooth_LE/library/libbluenrg1_stack.a(ll_routines_master.o) (LL_Cancel_Connection_Req)
../../../../../../Library/Bluetooth_LE/library/libbluenrg1_stack.a(rom_ll_routines_support.o)
                              ../../../../../../Library/Bluetooth_LE/library/libbluenrg1_stack.a(gap.o) (LL_Get_Adv_Tx_Power_Level)
../../../../../../Library/Bluetooth_LE/library/libbluenrg1_stack.a(rom_ll_timehandling.o)
                              ../../../../../../Library/Bluetooth_LE/library/libbluenrg1_stack.a(multi_master_time.o) (WindowWiden1)
../../../../../../Library/Bluetooth_LE/library/libbluenrg1_stack.a(routines_support.o)
                              ../../../../../../Library/Bluetooth_LE/library/libbluenrg1_stack.a(rom_ll_ll_routines.o) (Blue_Init_Global)
../../../../../../Library/Bluetooth_LE/library/libbluenrg1_stack.a(sdb.o)
                              ../../../../../../Library/Bluetooth_LE/library/libbluenrg1_stack.a(bluenrg_gap_aci.o) (GAP_configure_whitelist)
../../../../../../Library/Bluetooth_LE/library/libbluenrg1_stack.a(securitymgr.o)
                              ../../../../../../Library/Bluetooth_LE/library/libbluenrg1_stack.a(bluenrg_gap_aci.o) (SMP_MI_PairingRequest_Send)
../../../../../../Library/Bluetooth_LE/library/libbluenrg1_stack.a(smp_algo_sap.o)
                              ../../../../../../Library/Bluetooth_LE/library/libbluenrg1_stack.a(sdb.o) (SMA_Diversify)
../../../../../../Library/Bluetooth_LE/library/libbluenrg1_stack.a(smp_common.o)
                              ../../../../../../Library/Bluetooth_LE/library/libbluenrg1_stack.a(mem_alloc.o) (csmem_sm_ctx_p)
../../../../../../Library/Bluetooth_LE/library/libbluenrg1_stack.a(smp_scv42_api.o)
                              ../../../../../../Library/Bluetooth_LE/library/libbluenrg1_stack.a(bluenrg_gap_aci.o) (SMP_ACI_sc_numeric_comparison_response)
../../../../../../Library/Bluetooth_LE/library/libbluenrg1_stack.a(smp_scv42_caf.o)
                              Stack/stack_user_cfg.o (smp_sc_check_for_ecc_pk_generation_request)
../../../../../../Library/Bluetooth_LE/library/libbluenrg1_stack.a(smp_scv42_sap.o)
                              ../../../../../../Library/Bluetooth_LE/library/libbluenrg1_stack.a(hal.o) (SMP_sc_force_debug_key_usage)
../../../../../../Library/Bluetooth_LE/library/libbluenrg1_stack.a(utils.o)
                              ../../../../../../Library/Bluetooth_LE/library/libbluenrg1_stack.a(rom_ll_routines_support.o) (Delay_With_NOP_Cycles)
../../../../../../Library/Bluetooth_LE/library/libbluenrg1_stack.a(aci_events.o)
                              ../../../../../../Library/Bluetooth_LE/library/libbluenrg1_stack.a(bluenrg_main_func.o) (Events_Process_Q)
../../../../../../Library/Bluetooth_LE/library/libbluenrg1_stack.a(acl.o)
                              ../../../../../../Library/Bluetooth_LE/library/libbluenrg1_stack.a(bluenrg_main_func.o) (Acl_Init)
../../../../../../Library/Bluetooth_LE/library/libbluenrg1_stack.a(acl_list.o)
                              ../../../../../../Library/Bluetooth_LE/library/libbluenrg1_stack.a(gatt_server.o) (acl_list_first)
../../../../../../Library/Bluetooth_LE/library/libbluenrg1_stack.a(advance_wakeup_time.o)
                              ../../../../../../Library/Bluetooth_LE/library/libbluenrg1_stack.a(ll_isr.o) (advance_wakeup_timer)
../../../../../../Library/Bluetooth_LE/library/libbluenrg1_stack.a(aes128cmac.o)
                              ../../../../../../Library/Bluetooth_LE/library/libbluenrg1_stack.a(ll_routines_support.o) (AES128ECB_Wrapper)
../../../../../../Library/Bluetooth_LE/library/libbluenrg1_stack.a(att.o)
                              ../../../../../../Library/Bluetooth_LE/library/libbluenrg1_stack.a(gatt_client.o) (bleBaseUuid)
../../../../../../Library/Bluetooth_LE/library/libbluenrg1_stack.a(bluenrg_main_func_speed.o)
                              ../../../../../../Library/Bluetooth_LE/library/libbluenrg1_stack.a(routines_support.o) (LL_Sleep_Req)
../../../../../../Library/Bluetooth_LE/library/libbluenrg1_stack.a(device_id_data.o)
                              ../../../../../../Library/Bluetooth_LE/library/libbluenrg1_stack.a(gap.o) (IDD_Initialize_Device_IDs)
../../../../../../Library/Bluetooth_LE/library/libbluenrg1_stack.a(isr_postproc.o)
                              ../../../../../../Library/Bluetooth_LE/library/libbluenrg1_stack.a(ll_isr.o) (isr_postproc)
../../../../../../Library/Bluetooth_LE/library/libbluenrg1_stack.a(isr_routines.o)
                              ../../../../../../Library/Bluetooth_LE/library/libbluenrg1_stack.a(ll_isr.o) (LL_receive_data)
../../../../../../Library/cryptolib/libcrypto.a(crypto.o)
                              ../../../../../../Library/Bluetooth_LE/library/libbluenrg1_stack.a(aes128cmac.o) (AES_CMAC_Encrypt_Append)
/opt/Atollic_TrueSTUDIO_for_STM32_x86_64_9.3.0/ARMTools/bin/../lib/gcc/arm-atollic-eabi/6.3.1/../../../../arm-atollic-eabi/lib/armv6-m/libc_nano.a(lib_a-aeabi_memclr.o)
                              ../../../../../../Library/Bluetooth_LE/library/libbluenrg1_stack.a(gap.o) (__aeabi_memclr4)
/opt/Atollic_TrueSTUDIO_for_STM32_x86_64_9.3.0/ARMTools/bin/../lib/gcc/arm-atollic-eabi/6.3.1/../../../../arm-atollic-eabi/lib/armv6-m/libc_nano.a(lib_a-aeabi_memcpy.o)
                              ../../../../../../Library/Bluetooth_LE/library/libbluenrg1_stack.a(gatt_client.o) (__aeabi_memcpy)
/opt/Atollic_TrueSTUDIO_for_STM32_x86_64_9.3.0/ARMTools/bin/../lib/gcc/arm-atollic-eabi/6.3.1/../../../../arm-atollic-eabi/lib/armv6-m/libc_nano.a(lib_a-aeabi_memmove.o)
                              ../../../../../../Library/Bluetooth_LE/library/libbluenrg1_stack.a(mem_buff.o) (__aeabi_memmove4)
/opt/Atollic_TrueSTUDIO_for_STM32_x86_64_9.3.0/ARMTools/bin/../lib/gcc/arm-atollic-eabi/6.3.1/../../../../arm-atollic-eabi/lib/armv6-m/libc_nano.a(lib_a-aeabi_memset.o)
                              /opt/Atollic_TrueSTUDIO_for_STM32_x86_64_9.3.0/ARMTools/bin/../lib/gcc/arm-atollic-eabi/6.3.1/../../../../arm-atollic-eabi/lib/armv6-m/libc_nano.a(lib_a-aeabi_memclr.o) (__aeabi_memset)
/opt/Atollic_TrueSTUDIO_for_STM32_x86_64_9.3.0/ARMTools/bin/../lib/gcc/arm-atollic-eabi/6.3.1/../../../../arm-atollic-eabi/lib/armv6-m/libc_nano.a(lib_a-memcmp.o)
                              Hal/osal.o (memcmp)
/opt/Atollic_TrueSTUDIO_for_STM32_x86_64_9.3.0/ARMTools/bin/../lib/gcc/arm-atollic-eabi/6.3.1/../../../../arm-atollic-eabi/lib/armv6-m/libc_nano.a(lib_a-memcpy-stub.o)
                              Hal/miscutil.o (memcpy)
/opt/Atollic_TrueSTUDIO_for_STM32_x86_64_9.3.0/ARMTools/bin/../lib/gcc/arm-atollic-eabi/6.3.1/../../../../arm-atollic-eabi/lib/armv6-m/libc_nano.a(lib_a-memmove.o)
                              /opt/Atollic_TrueSTUDIO_for_STM32_x86_64_9.3.0/ARMTools/bin/../lib/gcc/arm-atollic-eabi/6.3.1/../../../../arm-atollic-eabi/lib/armv6-m/libc_nano.a(lib_a-aeabi_memmove.o) (memmove)
/opt/Atollic_TrueSTUDIO_for_STM32_x86_64_9.3.0/ARMTools/bin/../lib/gcc/arm-atollic-eabi/6.3.1/../../../../arm-atollic-eabi/lib/armv6-m/libc_nano.a(lib_a-memset.o)
                              Hal/osal.o (memset)
/opt/Atollic_TrueSTUDIO_for_STM32_x86_64_9.3.0/ARMTools/bin/../lib/gcc/arm-atollic-eabi/6.3.1/armv6-m/libgcc.a(_udivsi3.o)
                              Library/BlueNRG1_i2c.o (__aeabi_uidiv)
/opt/Atollic_TrueSTUDIO_for_STM32_x86_64_9.3.0/ARMTools/bin/../lib/gcc/arm-atollic-eabi/6.3.1/armv6-m/libgcc.a(_divsi3.o)
                              Hal/fifo.o (__aeabi_idivmod)
/opt/Atollic_TrueSTUDIO_for_STM32_x86_64_9.3.0/ARMTools/bin/../lib/gcc/arm-atollic-eabi/6.3.1/armv6-m/libgcc.a(_dvmd_tls.o)
                              /opt/Atollic_TrueSTUDIO_for_STM32_x86_64_9.3.0/ARMTools/bin/../lib/gcc/arm-atollic-eabi/6.3.1/armv6-m/libgcc.a(_udivsi3.o) (__aeabi_idiv0)
/opt/Atollic_TrueSTUDIO_for_STM32_x86_64_9.3.0/ARMTools/bin/../lib/gcc/arm-atollic-eabi/6.3.1/armv6-m/libgcc.a(unaligned-funcs.o)
                              ../../../../../../Library/Bluetooth_LE/library/libbluenrg1_stack.a(hci.o) (__aeabi_uread4)
/opt/Atollic_TrueSTUDIO_for_STM32_x86_64_9.3.0/ARMTools/bin/../lib/gcc/arm-atollic-eabi/6.3.1/armv6-m/libgcc.a(addsf3.o)
                              Library/BlueNRG1_adc.o (__aeabi_fadd)
/opt/Atollic_TrueSTUDIO_for_STM32_x86_64_9.3.0/ARMTools/bin/../lib/gcc/arm-atollic-eabi/6.3.1/armv6-m/libgcc.a(divsf3.o)
                              Library/BlueNRG1_adc.o (__aeabi_fdiv)
/opt/Atollic_TrueSTUDIO_for_STM32_x86_64_9.3.0/ARMTools/bin/../lib/gcc/arm-atollic-eabi/6.3.1/armv6-m/libgcc.a(mulsf3.o)
                              Library/BlueNRG1_adc.o (__aeabi_fmul)
/opt/Atollic_TrueSTUDIO_for_STM32_x86_64_9.3.0/ARMTools/bin/../lib/gcc/arm-atollic-eabi/6.3.1/armv6-m/libgcc.a(subsf3.o)
                              Library/BlueNRG1_adc.o (__aeabi_fsub)
/opt/Atollic_TrueSTUDIO_for_STM32_x86_64_9.3.0/ARMTools/bin/../lib/gcc/arm-atollic-eabi/6.3.1/armv6-m/libgcc.a(floatsisf.o)
                              Library/BlueNRG1_adc.o (__aeabi_i2f)
/opt/Atollic_TrueSTUDIO_for_STM32_x86_64_9.3.0/ARMTools/bin/../lib/gcc/arm-atollic-eabi/6.3.1/armv6-m/libgcc.a(floatunsisf.o)
                              Library/BlueNRG1_adc.o (__aeabi_ui2f)
/opt/Atollic_TrueSTUDIO_for_STM32_x86_64_9.3.0/ARMTools/bin/../lib/gcc/arm-atollic-eabi/6.3.1/armv6-m/libgcc.a(adddf3.o)
                              Library/BlueNRG1_adc.o (__aeabi_dadd)
/opt/Atollic_TrueSTUDIO_for_STM32_x86_64_9.3.0/ARMTools/bin/../lib/gcc/arm-atollic-eabi/6.3.1/armv6-m/libgcc.a(divdf3.o)
                              Library/BlueNRG1_adc.o (__aeabi_ddiv)
/opt/Atollic_TrueSTUDIO_for_STM32_x86_64_9.3.0/ARMTools/bin/../lib/gcc/arm-atollic-eabi/6.3.1/armv6-m/libgcc.a(muldf3.o)
                              Library/BlueNRG1_adc.o (__aeabi_dmul)
/opt/Atollic_TrueSTUDIO_for_STM32_x86_64_9.3.0/ARMTools/bin/../lib/gcc/arm-atollic-eabi/6.3.1/armv6-m/libgcc.a(subdf3.o)
                              Library/BlueNRG1_adc.o (__aeabi_dsub)
/opt/Atollic_TrueSTUDIO_for_STM32_x86_64_9.3.0/ARMTools/bin/../lib/gcc/arm-atollic-eabi/6.3.1/armv6-m/libgcc.a(extendsfdf2.o)
                              Library/BlueNRG1_adc.o (__aeabi_f2d)
/opt/Atollic_TrueSTUDIO_for_STM32_x86_64_9.3.0/ARMTools/bin/../lib/gcc/arm-atollic-eabi/6.3.1/armv6-m/libgcc.a(truncdfsf2.o)
                              Library/BlueNRG1_adc.o (__aeabi_d2f)
/opt/Atollic_TrueSTUDIO_for_STM32_x86_64_9.3.0/ARMTools/bin/../lib/gcc/arm-atollic-eabi/6.3.1/armv6-m/libgcc.a(_clzsi2.o)
                              /opt/Atollic_TrueSTUDIO_for_STM32_x86_64_9.3.0/ARMTools/bin/../lib/gcc/arm-atollic-eabi/6.3.1/armv6-m/libgcc.a(addsf3.o) (__clzsi2)

Allocating common symbols
Common symbol       size              file

command_fifo_dma_len
                    0x2               User/transport_layer.o
command_fifo_buffer_tmp
                    0x108             User/transport_layer.o
ptr                 0x4               Hal/sleep.o
event_fifo          0x10              User/transport_layer.o
cStackPreamble      0x50              Hal/sleep.o
deviceConfig        0xe               User/DTM_boot.o
event_buffer        0x502             User/transport_layer.o
command_fifo        0x10              User/transport_layer.o
command_buffer      0x108             User/transport_layer.o
savedSHCSR          0x4               Startup/system_bluenrg1.o
buffer_out          0x103             User/hci_parser.o
savedICSR           0x4               Startup/system_bluenrg1.o
savedNVIC_ISPR      0x4               Startup/system_bluenrg1.o

Discarded input sections

 .data          0x0000000000000000        0x0 Hal/context_switch.o
 .bss           0x0000000000000000        0x0 Hal/context_switch.o
 .text          0x0000000000000000        0x0 Hal/fifo.o
 .data          0x0000000000000000        0x0 Hal/fifo.o
 .bss           0x0000000000000000        0x0 Hal/fifo.o
 .text.fifo_put
                0x0000000000000000       0x48 Hal/fifo.o
 .text          0x0000000000000000        0x0 Hal/miscutil.o
 .data          0x0000000000000000        0x0 Hal/miscutil.o
 .bss           0x0000000000000000        0x0 Hal/miscutil.o
 .text          0x0000000000000000        0x0 Hal/osal.o
 .data          0x0000000000000000        0x0 Hal/osal.o
 .bss           0x0000000000000000        0x0 Hal/osal.o
 .text          0x0000000000000000        0x0 Hal/sleep.o
 .data          0x0000000000000000        0x0 Hal/sleep.o
 .bss           0x0000000000000000        0x0 Hal/sleep.o
 .text.App_SleepMode_Check
                0x0000000000000000        0x4 Hal/sleep.o
 .text.BlueNRG_Stack_Perform_Deep_Sleep_Check
                0x0000000000000000        0x4 Hal/sleep.o
 .text.BlueNRG_WakeupSource
                0x0000000000000000       0xf4 Hal/sleep.o
 .text          0x0000000000000000        0x0 Library/BlueNRG1_adc.o
 .data          0x0000000000000000        0x0 Library/BlueNRG1_adc.o
 .bss           0x0000000000000000        0x0 Library/BlueNRG1_adc.o
 .text.ADC_ConvertDifferentialVoltage
                0x0000000000000000       0x7c Library/BlueNRG1_adc.o
 .text.ADC_ConvertSingleEndedVoltage
                0x0000000000000000       0xc0 Library/BlueNRG1_adc.o
 .text.ADC_ConvertBatterySensor
                0x0000000000000000       0x18 Library/BlueNRG1_adc.o
 .text.ADC_ConvertTemperatureSensor
                0x0000000000000000       0x24 Library/BlueNRG1_adc.o
 .text.ADC_ConvertTemperatureSensorFarenait
                0x0000000000000000       0x30 Library/BlueNRG1_adc.o
 .text.ADC_DeInit
                0x0000000000000000        0xe Library/BlueNRG1_adc.o
 .text.ADC_StructInit
                0x0000000000000000       0x10 Library/BlueNRG1_adc.o
 .text.ADC_Init
                0x0000000000000000       0x90 Library/BlueNRG1_adc.o
 .text.ADC_Cmd  0x0000000000000000       0x2e Library/BlueNRG1_adc.o
 .text.ADC_DmaCmd
                0x0000000000000000       0x20 Library/BlueNRG1_adc.o
 .text.ADC_SelectInput
                0x0000000000000000       0x18 Library/BlueNRG1_adc.o
 .text.ADC_Calibration
                0x0000000000000000       0x20 Library/BlueNRG1_adc.o
 .text.ADC_AutoOffsetUpdate
                0x0000000000000000       0x18 Library/BlueNRG1_adc.o
 .text.ADC_ThresholdCheck
                0x0000000000000000       0x18 Library/BlueNRG1_adc.o
 .text.ADC_ThresholdConfig
                0x0000000000000000        0xa Library/BlueNRG1_adc.o
 .text.ADC_GetOffset
                0x0000000000000000       0x14 Library/BlueNRG1_adc.o
 .text.ADC_SetOffset
                0x0000000000000000       0x12 Library/BlueNRG1_adc.o
 .text.ADC_ConversionMode
                0x0000000000000000       0x20 Library/BlueNRG1_adc.o
 .text.ADC_SelectFrequencyMic
                0x0000000000000000       0x28 Library/BlueNRG1_adc.o
 .text.ADC_GetFlags
                0x0000000000000000        0xc Library/BlueNRG1_adc.o
 .text.ADC_GetFlagStatus
                0x0000000000000000       0x10 Library/BlueNRG1_adc.o
 .text.ADC_GetITStatus
                0x0000000000000000       0x10 Library/BlueNRG1_adc.o
 .text.ADC_ITConfig
                0x0000000000000000       0x16 Library/BlueNRG1_adc.o
 .text.ADC_GetRawData
                0x0000000000000000       0x14 Library/BlueNRG1_adc.o
 .text.ADC_GetConvertedData
                0x0000000000000000       0x5a Library/BlueNRG1_adc.o
 .text.ADC_Filter
                0x0000000000000000       0x20 Library/BlueNRG1_adc.o
 .text.ADC_SwCalibration
                0x0000000000000000      0x148 Library/BlueNRG1_adc.o
 .text.ADC_CompensateOutputValue
                0x0000000000000000       0x1c Library/BlueNRG1_adc.o
 .bss.offset    0x0000000000000000        0x4 Library/BlueNRG1_adc.o
 .data.slope    0x0000000000000000        0x4 Library/BlueNRG1_adc.o
 .debug_info    0x0000000000000000      0xedd Library/BlueNRG1_adc.o
 .debug_abbrev  0x0000000000000000      0x2db Library/BlueNRG1_adc.o
 .debug_loc     0x0000000000000000      0x653 Library/BlueNRG1_adc.o
 .debug_aranges
                0x0000000000000000       0xf8 Library/BlueNRG1_adc.o
 .debug_ranges  0x0000000000000000       0xe8 Library/BlueNRG1_adc.o
 .debug_line    0x0000000000000000      0x4e9 Library/BlueNRG1_adc.o
 .debug_str     0x0000000000000000      0x9a8 Library/BlueNRG1_adc.o
 .comment       0x0000000000000000       0x7d Library/BlueNRG1_adc.o
 .debug_frame   0x0000000000000000      0x234 Library/BlueNRG1_adc.o
 .ARM.attributes
                0x0000000000000000       0x31 Library/BlueNRG1_adc.o
 .text          0x0000000000000000        0x0 Library/BlueNRG1_dma.o
 .data          0x0000000000000000        0x0 Library/BlueNRG1_dma.o
 .bss           0x0000000000000000        0x0 Library/BlueNRG1_dma.o
 .text.DMA_DeInit
                0x0000000000000000       0xb0 Library/BlueNRG1_dma.o
 .text.DMA_SelectAdcChannel
                0x0000000000000000       0x18 Library/BlueNRG1_dma.o
 .text.DMA_SetCurrDataCounter
                0x0000000000000000        0x4 Library/BlueNRG1_dma.o
 .text.DMA_GetCurrDataCounter
                0x0000000000000000        0x6 Library/BlueNRG1_dma.o
 .text          0x0000000000000000        0x0 Library/BlueNRG1_flash.o
 .data          0x0000000000000000        0x0 Library/BlueNRG1_flash.o
 .bss           0x0000000000000000        0x0 Library/BlueNRG1_flash.o
 .text.FLASH_ReadWord
                0x0000000000000000        0x4 Library/BlueNRG1_flash.o
 .text.FLASH_ReadByte
                0x0000000000000000        0x6 Library/BlueNRG1_flash.o
 .text.FLASH_Lock
                0x0000000000000000        0xc Library/BlueNRG1_flash.o
 .text.FLASH_Unlock
                0x0000000000000000       0x10 Library/BlueNRG1_flash.o
 .text.FLASH_EraseAllFlash
                0x0000000000000000       0x28 Library/BlueNRG1_flash.o
 .text.FLASH_ProgramWordBurst
                0x0000000000000000       0x3c Library/BlueNRG1_flash.o
 .text.FLASH_ClearCmdDone
                0x0000000000000000       0x10 Library/BlueNRG1_flash.o
 .text.FLASH_ITConfig
                0x0000000000000000       0x20 Library/BlueNRG1_flash.o
 .text.FLASH_ClearITPendingBit
                0x0000000000000000        0xc Library/BlueNRG1_flash.o
 .text.FLASH_GetFlagStatus
                0x0000000000000000       0x14 Library/BlueNRG1_flash.o
 .text.FLASH_ClearFlag
                0x0000000000000000        0xc Library/BlueNRG1_flash.o
 .text          0x0000000000000000        0x0 Library/BlueNRG1_gpio.o
 .data          0x0000000000000000        0x0 Library/BlueNRG1_gpio.o
 .bss           0x0000000000000000        0x0 Library/BlueNRG1_gpio.o
 .text.GPIO_DeInit
                0x0000000000000000       0x2c Library/BlueNRG1_gpio.o
 .text.GPIO_InitLowPowerModes
                0x0000000000000000       0x58 Library/BlueNRG1_gpio.o
 .text.GPIO_WriteBitsLowPowerModes
                0x0000000000000000       0x24 Library/BlueNRG1_gpio.o
 .text.GPIO_ToggleBitsLowPowerModes
                0x0000000000000000       0x1c Library/BlueNRG1_gpio.o
 .text.GPIO_ReadBit
                0x0000000000000000       0x10 Library/BlueNRG1_gpio.o
 .text.GPIO_SetBits
                0x0000000000000000        0x8 Library/BlueNRG1_gpio.o
 .text.GPIO_ResetBits
                0x0000000000000000        0x8 Library/BlueNRG1_gpio.o
 .text.GPIO_WriteBit
                0x0000000000000000       0x10 Library/BlueNRG1_gpio.o
 .text.GPIO_ToggleBits
                0x0000000000000000        0xc Library/BlueNRG1_gpio.o
 .text.GPIO_EXTIStructInit
                0x0000000000000000        0xa Library/BlueNRG1_gpio.o
 .text.GPIO_EXTIConfig
                0x0000000000000000       0x4c Library/BlueNRG1_gpio.o
 .text.GPIO_EXTICmd
                0x0000000000000000       0x16 Library/BlueNRG1_gpio.o
 .text.GPIO_ClearITPendingBit
                0x0000000000000000        0x8 Library/BlueNRG1_gpio.o
 .text.GPIO_GetITPendingBit
                0x0000000000000000       0x10 Library/BlueNRG1_gpio.o
 .text.GPIO_GetITStatusBit
                0x0000000000000000       0x10 Library/BlueNRG1_gpio.o
 .text          0x0000000000000000        0x0 Library/BlueNRG1_i2c.o
 .data          0x0000000000000000        0x0 Library/BlueNRG1_i2c.o
 .bss           0x0000000000000000        0x0 Library/BlueNRG1_i2c.o
 .text.I2C_DeInit
                0x0000000000000000       0x18 Library/BlueNRG1_i2c.o
 .text.I2C_Init
                0x0000000000000000       0xc8 Library/BlueNRG1_i2c.o
 .text.I2C_StructInit
                0x0000000000000000       0x14 Library/BlueNRG1_i2c.o
 .text.I2C_Cmd  0x0000000000000000       0x14 Library/BlueNRG1_i2c.o
 .text.I2C_BeginTransaction
                0x0000000000000000       0x1e Library/BlueNRG1_i2c.o
 .text.I2C_GeneralCallCmd
                0x0000000000000000       0x14 Library/BlueNRG1_i2c.o
 .text.I2C_ITConfig
                0x0000000000000000       0x12 Library/BlueNRG1_i2c.o
 .text.I2C_FillTxFIFO
                0x0000000000000000        0x4 Library/BlueNRG1_i2c.o
 .text.I2C_ReceiveData
                0x0000000000000000        0x6 Library/BlueNRG1_i2c.o
 .text.I2C_FlushTx
                0x0000000000000000        0xa Library/BlueNRG1_i2c.o
 .text.I2C_WaitFlushTx
                0x0000000000000000        0xc Library/BlueNRG1_i2c.o
 .text.I2C_FlushRx
                0x0000000000000000        0xc Library/BlueNRG1_i2c.o
 .text.I2C_WaitFlushRx
                0x0000000000000000        0xc Library/BlueNRG1_i2c.o
 .text.I2C_SetTxThreshold
                0x0000000000000000       0x10 Library/BlueNRG1_i2c.o
 .text.I2C_SetRxThreshold
                0x0000000000000000       0x10 Library/BlueNRG1_i2c.o
 .text.I2C_GenerateStopCondition
                0x0000000000000000       0x10 Library/BlueNRG1_i2c.o
 .text.I2C_SetHoldTime
                0x0000000000000000        0x6 Library/BlueNRG1_i2c.o
 .text.I2C_SetHoldTimeStartCondition
                0x0000000000000000       0x34 Library/BlueNRG1_i2c.o
 .text.I2C_SetSetupTimeStartCondition
                0x0000000000000000       0x34 Library/BlueNRG1_i2c.o
 .text.I2C_GetITStatus
                0x0000000000000000        0xc Library/BlueNRG1_i2c.o
 .text.I2C_GetITPendingBit
                0x0000000000000000        0xc Library/BlueNRG1_i2c.o
 .text.I2C_ClearITPendingBit
                0x0000000000000000        0x4 Library/BlueNRG1_i2c.o
 .text.I2C_GetStatus
                0x0000000000000000        0x8 Library/BlueNRG1_i2c.o
 .text.I2C_DMACmd
                0x0000000000000000       0x12 Library/BlueNRG1_i2c.o
 .text.I2C_DMATxBurstMode
                0x0000000000000000       0x1c Library/BlueNRG1_i2c.o
 .text.I2C_DMATxBurstSize
                0x0000000000000000       0x18 Library/BlueNRG1_i2c.o
 .data.Foncycles
                0x0000000000000000        0x8 Library/BlueNRG1_i2c.o
 .debug_info    0x0000000000000000     0x1426 Library/BlueNRG1_i2c.o
 .debug_abbrev  0x0000000000000000      0x256 Library/BlueNRG1_i2c.o
 .debug_loc     0x0000000000000000      0x32e Library/BlueNRG1_i2c.o
 .debug_aranges
                0x0000000000000000       0xe8 Library/BlueNRG1_i2c.o
 .debug_ranges  0x0000000000000000       0xd8 Library/BlueNRG1_i2c.o
 .debug_line    0x0000000000000000      0x463 Library/BlueNRG1_i2c.o
 .debug_str     0x0000000000000000      0xb42 Library/BlueNRG1_i2c.o
 .comment       0x0000000000000000       0x7d Library/BlueNRG1_i2c.o
 .debug_frame   0x0000000000000000      0x1bc Library/BlueNRG1_i2c.o
 .ARM.attributes
                0x0000000000000000       0x31 Library/BlueNRG1_i2c.o
 .text          0x0000000000000000        0x0 Library/BlueNRG1_mft.o
 .data          0x0000000000000000        0x0 Library/BlueNRG1_mft.o
 .bss           0x0000000000000000        0x0 Library/BlueNRG1_mft.o
 .text.MFT_DeInit
                0x0000000000000000       0x10 Library/BlueNRG1_mft.o
 .text.MFT_Init
                0x0000000000000000       0x88 Library/BlueNRG1_mft.o
 .text.MFT_StructInit
                0x0000000000000000       0x10 Library/BlueNRG1_mft.o
 .text.MFT_Cmd  0x0000000000000000       0x14 Library/BlueNRG1_mft.o
 .text.MFT_TnEDGES
                0x0000000000000000       0x24 Library/BlueNRG1_mft.o
 .text.MFT_PulseTrainTriggerSelect
                0x0000000000000000       0x18 Library/BlueNRG1_mft.o
 .text.MFT_PulseTrainSoftwareTrigger
                0x0000000000000000        0xc Library/BlueNRG1_mft.o
 .text.MFT_PulseTrainEventTriggerStatus
                0x0000000000000000        0x8 Library/BlueNRG1_mft.o
 .text.MFT_TnXEN
                0x0000000000000000       0x28 Library/BlueNRG1_mft.o
 .text.MFT_SelectCapturePin
                0x0000000000000000       0x58 Library/BlueNRG1_mft.o
 .text.MFT_SetCounter
                0x0000000000000000        0x6 Library/BlueNRG1_mft.o
 .text.MFT_SetCounter1
                0x0000000000000000        0x4 Library/BlueNRG1_mft.o
 .text.MFT_GetCounter1
                0x0000000000000000        0x6 Library/BlueNRG1_mft.o
 .text.MFT_SetCounter2
                0x0000000000000000        0x4 Library/BlueNRG1_mft.o
 .text.MFT_GetCounter2
                0x0000000000000000        0x6 Library/BlueNRG1_mft.o
 .text.MFT_EnableIT
                0x0000000000000000       0x16 Library/BlueNRG1_mft.o
 .text.MFT_ClearIT
                0x0000000000000000        0xa Library/BlueNRG1_mft.o
 .text.MFT_StatusIT
                0x0000000000000000        0xc Library/BlueNRG1_mft.o
 .debug_info    0x0000000000000000      0xe91 Library/BlueNRG1_mft.o
 .debug_abbrev  0x0000000000000000      0x251 Library/BlueNRG1_mft.o
 .debug_loc     0x0000000000000000      0x310 Library/BlueNRG1_mft.o
 .debug_aranges
                0x0000000000000000       0xa8 Library/BlueNRG1_mft.o
 .debug_ranges  0x0000000000000000       0x98 Library/BlueNRG1_mft.o
 .debug_line    0x0000000000000000      0x3a6 Library/BlueNRG1_mft.o
 .debug_str     0x0000000000000000      0x91c Library/BlueNRG1_mft.o
 .comment       0x0000000000000000       0x7d Library/BlueNRG1_mft.o
 .debug_frame   0x0000000000000000      0x148 Library/BlueNRG1_mft.o
 .ARM.attributes
                0x0000000000000000       0x31 Library/BlueNRG1_mft.o
 .text          0x0000000000000000        0x0 Library/BlueNRG1_pka.o
 .data          0x0000000000000000        0x0 Library/BlueNRG1_pka.o
 .bss           0x0000000000000000        0x0 Library/BlueNRG1_pka.o
 .text.PKA_WaitProcess
                0x0000000000000000        0xc Library/BlueNRG1_pka.o
 .text.PKA_ITConfig
                0x0000000000000000       0x20 Library/BlueNRG1_pka.o
 .text.PKA_ClearITPendingBit
                0x0000000000000000        0x8 Library/BlueNRG1_pka.o
 .text.PKA_GetFlagStatus
                0x0000000000000000       0x12 Library/BlueNRG1_pka.o
 .text          0x0000000000000000        0x0 Library/BlueNRG1_rtc.o
 .data          0x0000000000000000        0x0 Library/BlueNRG1_rtc.o
 .bss           0x0000000000000000        0x0 Library/BlueNRG1_rtc.o
 .text.RTC_Init
                0x0000000000000000       0x60 Library/BlueNRG1_rtc.o
 .text.RTC_StructInit
                0x0000000000000000       0x14 Library/BlueNRG1_rtc.o
 .text.RTC_Cmd  0x0000000000000000       0x1c Library/BlueNRG1_rtc.o
 .text.RTC_IT_Config
                0x0000000000000000       0x20 Library/BlueNRG1_rtc.o
 .text.RTC_IT_Status
                0x0000000000000000       0x14 Library/BlueNRG1_rtc.o
 .text.RTC_IT_Clear
                0x0000000000000000        0xc Library/BlueNRG1_rtc.o
 .text.RTC_ClockwatchCmd
                0x0000000000000000       0x24 Library/BlueNRG1_rtc.o
 .text.RTC_SetTimeDate
                0x0000000000000000       0x94 Library/BlueNRG1_rtc.o
 .text.RTC_SetMatchTimeDate
                0x0000000000000000       0x94 Library/BlueNRG1_rtc.o
 .text.RTC_GetTimeDate
                0x0000000000000000       0x40 Library/BlueNRG1_rtc.o
 .text.RTC_GetTimerValue
                0x0000000000000000        0xc Library/BlueNRG1_rtc.o
 .text.RTC_GetNumberIrqGenerated
                0x0000000000000000        0xc Library/BlueNRG1_rtc.o
 .text.RTC_AutoStart
                0x0000000000000000       0x1c Library/BlueNRG1_rtc.o
 .text.RTC_SelectTrimmedClock
                0x0000000000000000       0x24 Library/BlueNRG1_rtc.o
 .debug_info    0x0000000000000000      0xc97 Library/BlueNRG1_rtc.o
 .debug_abbrev  0x0000000000000000      0x23f Library/BlueNRG1_rtc.o
 .debug_loc     0x0000000000000000       0x95 Library/BlueNRG1_rtc.o
 .debug_aranges
                0x0000000000000000       0x88 Library/BlueNRG1_rtc.o
 .debug_ranges  0x0000000000000000       0x90 Library/BlueNRG1_rtc.o
 .debug_line    0x0000000000000000      0x374 Library/BlueNRG1_rtc.o
 .debug_str     0x0000000000000000      0x88f Library/BlueNRG1_rtc.o
 .comment       0x0000000000000000       0x7d Library/BlueNRG1_rtc.o
 .debug_frame   0x0000000000000000      0x114 Library/BlueNRG1_rtc.o
 .ARM.attributes
                0x0000000000000000       0x31 Library/BlueNRG1_rtc.o
 .text          0x0000000000000000        0x0 Library/BlueNRG1_spi.o
 .data          0x0000000000000000        0x0 Library/BlueNRG1_spi.o
 .bss           0x0000000000000000        0x0 Library/BlueNRG1_spi.o
 .text.SPI_SetBaudrate
                0x0000000000000000       0x4c Library/BlueNRG1_spi.o
 .text.SPI_DeInit
                0x0000000000000000       0x24 Library/BlueNRG1_spi.o
 .text.SPI_Init
                0x0000000000000000       0x54 Library/BlueNRG1_spi.o
 .text.SPI_StructInit
                0x0000000000000000       0x18 Library/BlueNRG1_spi.o
 .text.SPI_Cmd  0x0000000000000000       0x1c Library/BlueNRG1_spi.o
 .text.SPI_ITConfig
                0x0000000000000000       0x18 Library/BlueNRG1_spi.o
 .text.SPI_SlaveModeOutputCmd
                0x0000000000000000       0x1c Library/BlueNRG1_spi.o
 .text.SPI_SendData
                0x0000000000000000        0xc Library/BlueNRG1_spi.o
 .text.SPI_ReceiveData
                0x0000000000000000        0xc Library/BlueNRG1_spi.o
 .text.SPI_DataSizeConfig
                0x0000000000000000       0x1c Library/BlueNRG1_spi.o
 .text.SPI_CommandSizeConfig
                0x0000000000000000       0x1c Library/BlueNRG1_spi.o
 .text.SPI_EnableWaitState
                0x0000000000000000       0x24 Library/BlueNRG1_spi.o
 .text.SPI_FrameFormatConfig
                0x0000000000000000       0x1c Library/BlueNRG1_spi.o
 .text.SPI_GetFlagStatus
                0x0000000000000000       0x14 Library/BlueNRG1_spi.o
 .text.SPI_GetITStatus
                0x0000000000000000       0x14 Library/BlueNRG1_spi.o
 .text.SPI_ClearITPendingBit
                0x0000000000000000       0x10 Library/BlueNRG1_spi.o
 .text.SPI_ClearRXFIFO
                0x0000000000000000       0x18 Library/BlueNRG1_spi.o
 .text.SPI_ClearTXFIFO
                0x0000000000000000       0x30 Library/BlueNRG1_spi.o
 .text.SPI_SetMasterCommunicationMode
                0x0000000000000000       0x1c Library/BlueNRG1_spi.o
 .text.SPI_SetDummyCharacter
                0x0000000000000000        0xc Library/BlueNRG1_spi.o
 .text.SPI_SetNumFramesToReceive
                0x0000000000000000        0xc Library/BlueNRG1_spi.o
 .text.SPI_SetNumFramesToTransmit
                0x0000000000000000        0xc Library/BlueNRG1_spi.o
 .text.SPI_SlaveSwSelection
                0x0000000000000000       0x24 Library/BlueNRG1_spi.o
 .text.SPI_EndianFormatReception
                0x0000000000000000       0x1c Library/BlueNRG1_spi.o
 .text.SPI_EndianFormatTransmission
                0x0000000000000000       0x1c Library/BlueNRG1_spi.o
 .text.SPI_DelayBetweenFrames
                0x0000000000000000       0x1c Library/BlueNRG1_spi.o
 .text.SPI_DelayDataInput
                0x0000000000000000       0x24 Library/BlueNRG1_spi.o
 .text.SPI_TxFifoInterruptLevelConfig
                0x0000000000000000       0x1c Library/BlueNRG1_spi.o
 .text.SPI_RxFifoInterruptLevelConfig
                0x0000000000000000       0x1c Library/BlueNRG1_spi.o
 .text.SPI_DMACmd
                0x0000000000000000       0x18 Library/BlueNRG1_spi.o
 .debug_info    0x0000000000000000      0xfae Library/BlueNRG1_spi.o
 .debug_abbrev  0x0000000000000000      0x2b7 Library/BlueNRG1_spi.o
 .debug_loc     0x0000000000000000      0x2c0 Library/BlueNRG1_spi.o
 .debug_aranges
                0x0000000000000000      0x108 Library/BlueNRG1_spi.o
 .debug_ranges  0x0000000000000000       0xf8 Library/BlueNRG1_spi.o
 .debug_line    0x0000000000000000      0x49b Library/BlueNRG1_spi.o
 .debug_str     0x0000000000000000      0xa0a Library/BlueNRG1_spi.o
 .comment       0x0000000000000000       0x7d Library/BlueNRG1_spi.o
 .debug_frame   0x0000000000000000      0x214 Library/BlueNRG1_spi.o
 .ARM.attributes
                0x0000000000000000       0x31 Library/BlueNRG1_spi.o
 .text          0x0000000000000000        0x0 Library/BlueNRG1_sysCtrl.o
 .data          0x0000000000000000        0x0 Library/BlueNRG1_sysCtrl.o
 .bss           0x0000000000000000        0x0 Library/BlueNRG1_sysCtrl.o
 .text.SysCtrl_DeInit
                0x0000000000000000       0x2c Library/BlueNRG1_sysCtrl.o
 .text.SysCtrl_WakeupFromIo
                0x0000000000000000       0x2c Library/BlueNRG1_sysCtrl.o
 .text.SysCtrl_SelectXO
                0x0000000000000000       0x24 Library/BlueNRG1_sysCtrl.o
 .text          0x0000000000000000        0x0 Library/BlueNRG1_uart.o
 .data          0x0000000000000000        0x0 Library/BlueNRG1_uart.o
 .bss           0x0000000000000000        0x0 Library/BlueNRG1_uart.o
 .text.UART_DeInit
                0x0000000000000000       0x44 Library/BlueNRG1_uart.o
 .text.UART_SendData
                0x0000000000000000       0x10 Library/BlueNRG1_uart.o
 .text.UART_BreakCmd
                0x0000000000000000       0x1c Library/BlueNRG1_uart.o
 .text.UART_RequestToSendCmd
                0x0000000000000000       0x1c Library/BlueNRG1_uart.o
 .text.UART_ClearFlag
                0x0000000000000000        0xc Library/BlueNRG1_uart.o
 .text.UART_TxFifoIrqLevelConfig
                0x0000000000000000       0x1c Library/BlueNRG1_uart.o
 .text.UART_RxFifoIrqLevelConfig
                0x0000000000000000       0x1c Library/BlueNRG1_uart.o
 .text.UART_RXTimeoutConfig
                0x0000000000000000       0x48 Library/BlueNRG1_uart.o
 .text.UART_Oversampling
                0x0000000000000000       0x1c Library/BlueNRG1_uart.o
 .text.UART_SwFlowControl
                0x0000000000000000       0x1c Library/BlueNRG1_uart.o
 .text.UART_RxSwFlowControlMode
                0x0000000000000000       0x1c Library/BlueNRG1_uart.o
 .text.UART_TxSwFlowControlMode
                0x0000000000000000       0x1c Library/BlueNRG1_uart.o
 .text.UART_XonAnyBit
                0x0000000000000000       0x1c Library/BlueNRG1_uart.o
 .text.UART_SpecialCharDetect
                0x0000000000000000       0x1c Library/BlueNRG1_uart.o
 .text.UART_Xon1Char
                0x0000000000000000        0xc Library/BlueNRG1_uart.o
 .text.UART_Xon2Char
                0x0000000000000000        0xc Library/BlueNRG1_uart.o
 .text.UART_Xoff1Char
                0x0000000000000000        0xc Library/BlueNRG1_uart.o
 .text.UART_Xoff2Char
                0x0000000000000000        0xc Library/BlueNRG1_uart.o
 .text          0x0000000000000000        0x0 Library/BlueNRG1_wdg.o
 .data          0x0000000000000000        0x0 Library/BlueNRG1_wdg.o
 .bss           0x0000000000000000        0x0 Library/BlueNRG1_wdg.o
 .text.WDG_SetWriteAccess
                0x0000000000000000       0x1c Library/BlueNRG1_wdg.o
 .text.WDG_GetWriteAccess
                0x0000000000000000       0x14 Library/BlueNRG1_wdg.o
 .text.WDG_DisableReset
                0x0000000000000000       0x10 Library/BlueNRG1_wdg.o
 .text.WDG_GetCounter
                0x0000000000000000        0xc Library/BlueNRG1_wdg.o
 .text.WDG_ITConfig
                0x0000000000000000       0x1c Library/BlueNRG1_wdg.o
 .text.WDG_GetITStatus
                0x0000000000000000       0x10 Library/BlueNRG1_wdg.o
 .text.WDG_ClearITPendingBit
                0x0000000000000000       0x10 Library/BlueNRG1_wdg.o
 .text          0x0000000000000000        0x0 Library/misc.o
 .data          0x0000000000000000        0x0 Library/misc.o
 .bss           0x0000000000000000        0x0 Library/misc.o
 .text          0x0000000000000000        0x0 Stack/stack_dle_api_stubs.o
 .data          0x0000000000000000        0x0 Stack/stack_dle_api_stubs.o
 .bss           0x0000000000000000        0x0 Stack/stack_dle_api_stubs.o
 .debug_line    0x0000000000000000        0x0 Stack/stack_dle_api_stubs.o
 .debug_str     0x0000000000000000      0x178 Stack/stack_dle_api_stubs.o
 .comment       0x0000000000000000       0x7d Stack/stack_dle_api_stubs.o
 .ARM.attributes
                0x0000000000000000       0x31 Stack/stack_dle_api_stubs.o
 .text          0x0000000000000000        0x0 Stack/stack_priv_api_stubs.o
 .data          0x0000000000000000        0x0 Stack/stack_priv_api_stubs.o
 .bss           0x0000000000000000        0x0 Stack/stack_priv_api_stubs.o
 .debug_line    0x0000000000000000        0x0 Stack/stack_priv_api_stubs.o
 .debug_str     0x0000000000000000      0x179 Stack/stack_priv_api_stubs.o
 .comment       0x0000000000000000       0x7d Stack/stack_priv_api_stubs.o
 .ARM.attributes
                0x0000000000000000       0x31 Stack/stack_priv_api_stubs.o
 .text          0x0000000000000000        0x0 Stack/stack_sc_api_stubs.o
 .data          0x0000000000000000        0x0 Stack/stack_sc_api_stubs.o
 .bss           0x0000000000000000        0x0 Stack/stack_sc_api_stubs.o
 .debug_line    0x0000000000000000        0x0 Stack/stack_sc_api_stubs.o
 .debug_str     0x0000000000000000      0x177 Stack/stack_sc_api_stubs.o
 .comment       0x0000000000000000       0x7d Stack/stack_sc_api_stubs.o
 .ARM.attributes
                0x0000000000000000       0x31 Stack/stack_sc_api_stubs.o
 .text          0x0000000000000000        0x0 Stack/stack_slvonly_api_stubs.o
 .data          0x0000000000000000        0x0 Stack/stack_slvonly_api_stubs.o
 .bss           0x0000000000000000        0x0 Stack/stack_slvonly_api_stubs.o
 .debug_line    0x0000000000000000        0x0 Stack/stack_slvonly_api_stubs.o
 .debug_str     0x0000000000000000      0x17c Stack/stack_slvonly_api_stubs.o
 .comment       0x0000000000000000       0x7d Stack/stack_slvonly_api_stubs.o
 .ARM.attributes
                0x0000000000000000       0x31 Stack/stack_slvonly_api_stubs.o
 .text          0x0000000000000000        0x0 Stack/stack_user_cfg.o
 .data          0x0000000000000000        0x0 Stack/stack_user_cfg.o
 .bss           0x0000000000000000        0x0 Stack/stack_user_cfg.o
 .text.hci_le_set_privacy_mode
                0x0000000000000000        0x8 Stack/stack_user_cfg.o
 .text.LL_LE_Set_Resolvable_Private_Address_Timeout_ucfg
                0x0000000000000000        0x8 Stack/stack_user_cfg.o
 .text.LL_SetAddressResolutionEnable_ucfg
                0x0000000000000000        0x8 Stack/stack_user_cfg.o
 .text.LL_Start_Encryption_ucfg
                0x0000000000000000        0x8 Stack/stack_user_cfg.o
 .text          0x0000000000000000        0x0 Startup/system_bluenrg1.o
 .data          0x0000000000000000        0x0 Startup/system_bluenrg1.o
 .bss           0x0000000000000000        0x0 Startup/system_bluenrg1.o
 .text.DMA_Handler
                0x0000000000000000        0x2 Startup/system_bluenrg1.o
 .text.NMI_Handler
                0x0000000000000000        0x2 Startup/system_bluenrg1.o
 .text.HardFault_Handler
                0x0000000000000000        0x2 Startup/system_bluenrg1.o
 .text.SVC_Handler
                0x0000000000000000        0x2 Startup/system_bluenrg1.o
 .text.SysTick_Handler
                0x0000000000000000        0x2 Startup/system_bluenrg1.o
 .text.UART_Handler
                0x0000000000000000        0x2 Startup/system_bluenrg1.o
 .text.Blue_Handler
                0x0000000000000000        0x2 Startup/system_bluenrg1.o
 .text.Wait_LS_Stabilization
                0x0000000000000000       0x74 Startup/system_bluenrg1.o
 .text.SystemInit
                0x0000000000000000      0x120 Startup/system_bluenrg1.o
 .text          0x0000000000000000        0x0 User/BlueNRG1_it.o
 .data          0x0000000000000000        0x0 User/BlueNRG1_it.o
 .bss           0x0000000000000000        0x0 User/BlueNRG1_it.o
 .bss.command_in_progress
                0x0000000000000000        0x1 User/BlueNRG1_it.o
 .text          0x0000000000000000        0x0 User/DTM_boot.o
 .data          0x0000000000000000        0x0 User/DTM_boot.o
 .bss           0x0000000000000000        0x0 User/DTM_boot.o
 .text          0x0000000000000000        0x0 User/DTM_cmd_db.o
 .data          0x0000000000000000        0x0 User/DTM_cmd_db.o
 .bss           0x0000000000000000        0x0 User/DTM_cmd_db.o
 .text.hci_data_buffer_overflow_event
                0x0000000000000000       0x20 User/DTM_cmd_db.o
 .text.aci_blue_events_lost_event
                0x0000000000000000       0x36 User/DTM_cmd_db.o
 .text          0x0000000000000000        0x0 User/DTM_cmds.o
 .data          0x0000000000000000        0x0 User/DTM_cmds.o
 .bss           0x0000000000000000        0x0 User/DTM_cmds.o
 .text          0x0000000000000000        0x0 User/DTM_main.o
 .data          0x0000000000000000        0x0 User/DTM_main.o
 .bss           0x0000000000000000        0x0 User/DTM_main.o
 .text          0x0000000000000000        0x0 User/cmd.o
 .data          0x0000000000000000        0x0 User/cmd.o
 .bss           0x0000000000000000        0x0 User/cmd.o
 .text          0x0000000000000000        0x0 User/hci_parser.o
 .data          0x0000000000000000        0x0 User/hci_parser.o
 .bss           0x0000000000000000        0x0 User/hci_parser.o
 .text          0x0000000000000000        0x0 User/hw_config.o
 .data          0x0000000000000000        0x0 User/hw_config.o
 .bss           0x0000000000000000        0x0 User/hw_config.o
 .text.NVIC_DisableCSnIrq
                0x0000000000000000       0x14 User/hw_config.o
 .text.NVIC_EnableCSnIrq
                0x0000000000000000       0x16 User/hw_config.o
 .text.NVIC_DisableRadioIrq
                0x0000000000000000       0x14 User/hw_config.o
 .text.GPIO_RTS_Output
                0x0000000000000000       0x1e User/hw_config.o
 .text.GPIO_RTS_Uart
                0x0000000000000000       0x20 User/hw_config.o
 .text.GPIO_CTS_Input
                0x0000000000000000       0x1c User/hw_config.o
 .text.GPIO_CTS_Irq
                0x0000000000000000       0x1c User/hw_config.o
 .text.GPIO_CTS_Uart
                0x0000000000000000       0x24 User/hw_config.o
 .text.SPI_Slave_Configuration
                0x0000000000000000       0x28 User/hw_config.o
 .text          0x0000000000000000        0x0 User/transport_layer.o
 .data          0x0000000000000000        0x0 User/transport_layer.o
 .bss           0x0000000000000000        0x0 User/transport_layer.o
 .bss.systick_counter_prev
                0x0000000000000000        0x4 User/transport_layer.o
 .rev16_text    0x0000000000000000        0x4 ../../../../../../Library/Bluetooth_LE/library/libbluenrg1_stack.a(bluenrg_gap_aci.o)
 .revsh_text    0x0000000000000000        0x4 ../../../../../../Library/Bluetooth_LE/library/libbluenrg1_stack.a(bluenrg_gap_aci.o)
 i.aci_hal_set_smp_eng_config
                0x0000000000000000        0x4 ../../../../../../Library/Bluetooth_LE/library/libbluenrg1_stack.a(bluenrg_gap_aci.o)
 .rev16_text    0x0000000000000000        0x4 ../../../../../../Library/Bluetooth_LE/library/libbluenrg1_stack.a(bluenrg_gatt_aci.o)
 .revsh_text    0x0000000000000000        0x4 ../../../../../../Library/Bluetooth_LE/library/libbluenrg1_stack.a(bluenrg_gatt_aci.o)
 .rev16_text    0x0000000000000000        0x4 ../../../../../../Library/Bluetooth_LE/library/libbluenrg1_stack.a(bluenrg_hal_aci.o)
 .revsh_text    0x0000000000000000        0x4 ../../../../../../Library/Bluetooth_LE/library/libbluenrg1_stack.a(bluenrg_hal_aci.o)
 i.aci_hal_get_pm_debug_info
                0x0000000000000000        0xa ../../../../../../Library/Bluetooth_LE/library/libbluenrg1_stack.a(bluenrg_hal_aci.o)
 .rev16_text    0x0000000000000000        0x4 ../../../../../../Library/Bluetooth_LE/library/libbluenrg1_stack.a(bluenrg_l2cap_aci.o)
 .revsh_text    0x0000000000000000        0x4 ../../../../../../Library/Bluetooth_LE/library/libbluenrg1_stack.a(bluenrg_l2cap_aci.o)
 .rev16_text    0x0000000000000000        0x4 ../../../../../../Library/Bluetooth_LE/library/libbluenrg1_stack.a(bluenrg_main_func.o)
 .revsh_text    0x0000000000000000        0x4 ../../../../../../Library/Bluetooth_LE/library/libbluenrg1_stack.a(bluenrg_main_func.o)
 .rev16_text    0x0000000000000000        0x4 ../../../../../../Library/Bluetooth_LE/library/libbluenrg1_stack.a(gap.o)
 .revsh_text    0x0000000000000000        0x4 ../../../../../../Library/Bluetooth_LE/library/libbluenrg1_stack.a(gap.o)
 i.GAP_DiscProcTimeoutcb_ucfg
                0x0000000000000000        0x2 ../../../../../../Library/Bluetooth_LE/library/libbluenrg1_stack.a(gap.o)
 i.GAP_Validate_AddrType
                0x0000000000000000       0x2c ../../../../../../Library/Bluetooth_LE/library/libbluenrg1_stack.a(gap.o)
 i.GAP_check_and_set_role_ucfg
                0x0000000000000000       0x1c ../../../../../../Library/Bluetooth_LE/library/libbluenrg1_stack.a(gap.o)
 i.GAP_discover_peer_name_ucfg
                0x0000000000000000        0x2 ../../../../../../Library/Bluetooth_LE/library/libbluenrg1_stack.a(gap.o)
 i.GAP_enable_controller_privacy_ucfg
                0x0000000000000000        0x4 ../../../../../../Library/Bluetooth_LE/library/libbluenrg1_stack.a(gap.o)
 .rev16_text    0x0000000000000000        0x4 ../../../../../../Library/Bluetooth_LE/library/libbluenrg1_stack.a(gatt_client.o)
 .revsh_text    0x0000000000000000        0x4 ../../../../../../Library/Bluetooth_LE/library/libbluenrg1_stack.a(gatt_client.o)
 __ARM_common_switch8
                0x0000000000000000        0x8 ../../../../../../Library/Bluetooth_LE/library/libbluenrg1_stack.a(gatt_server.o)
 .rev16_text    0x0000000000000000        0x4 ../../../../../../Library/Bluetooth_LE/library/libbluenrg1_stack.a(gatt_server.o)
 .revsh_text    0x0000000000000000        0x4 ../../../../../../Library/Bluetooth_LE/library/libbluenrg1_stack.a(gatt_server.o)
 .rev16_text    0x0000000000000000        0x4 ../../../../../../Library/Bluetooth_LE/library/libbluenrg1_stack.a(hal.o)
 .revsh_text    0x0000000000000000        0x4 ../../../../../../Library/Bluetooth_LE/library/libbluenrg1_stack.a(hal.o)
 i.HAL_Is_Mem_Set_To
                0x0000000000000000       0x1a ../../../../../../Library/Bluetooth_LE/library/libbluenrg1_stack.a(hal.o)
 i.aci_hal_end_of_radio_activity_event
                0x0000000000000000        0x2 ../../../../../../Library/Bluetooth_LE/library/libbluenrg1_stack.a(hal.o)
 .rev16_text    0x0000000000000000        0x4 ../../../../../../Library/Bluetooth_LE/library/libbluenrg1_stack.a(hci.o)
 .revsh_text    0x0000000000000000        0x4 ../../../../../../Library/Bluetooth_LE/library/libbluenrg1_stack.a(hci.o)
 i.PKA_Offline_Processing_ucfg
                0x0000000000000000        0x2 ../../../../../../Library/Bluetooth_LE/library/libbluenrg1_stack.a(hci.o)
 i.PRIV_controller_privacy_csr_ucfg
                0x0000000000000000        0x4 ../../../../../../Library/Bluetooth_LE/library/libbluenrg1_stack.a(hci.o)
 i.data_length_extension_csr_ucfg
                0x0000000000000000        0x4 ../../../../../../Library/Bluetooth_LE/library/libbluenrg1_stack.a(hci.o)
 i.hci_tx_acl_data
                0x0000000000000000       0xd4 ../../../../../../Library/Bluetooth_LE/library/libbluenrg1_stack.a(hci.o)
 i.master_csr_ucfg
                0x0000000000000000        0x4 ../../../../../../Library/Bluetooth_LE/library/libbluenrg1_stack.a(hci.o)
 .rev16_text    0x0000000000000000        0x4 ../../../../../../Library/Bluetooth_LE/library/libbluenrg1_stack.a(hci_privacy.o)
 .revsh_text    0x0000000000000000        0x4 ../../../../../../Library/Bluetooth_LE/library/libbluenrg1_stack.a(hci_privacy.o)
 i.hci_le_set_privacy_mode_api
                0x0000000000000000       0x26 ../../../../../../Library/Bluetooth_LE/library/libbluenrg1_stack.a(hci_privacy.o)
 __ARM_common_switch8
                0x0000000000000000        0x8 ../../../../../../Library/Bluetooth_LE/library/libbluenrg1_stack.a(host_timer.o)
 .rev16_text    0x0000000000000000        0x4 ../../../../../../Library/Bluetooth_LE/library/libbluenrg1_stack.a(host_timer.o)
 .revsh_text    0x0000000000000000        0x4 ../../../../../../Library/Bluetooth_LE/library/libbluenrg1_stack.a(host_timer.o)
 i.HAL_VTimerDiff_ms_sysT32
                0x0000000000000000        0xc ../../../../../../Library/Bluetooth_LE/library/libbluenrg1_stack.a(host_timer.o)
 i.HAL_VTimerExpiry_sysT32
                0x0000000000000000       0x12 ../../../../../../Library/Bluetooth_LE/library/libbluenrg1_stack.a(host_timer.o)
 i.HAL_VTimerStart_ms
                0x0000000000000000       0x1a ../../../../../../Library/Bluetooth_LE/library/libbluenrg1_stack.a(host_timer.o)
 i.HAL_VTimerStart_sysT32
                0x0000000000000000       0x1a ../../../../../../Library/Bluetooth_LE/library/libbluenrg1_stack.a(host_timer.o)
 i.HAL_VTimer_Stop
                0x0000000000000000       0x10 ../../../../../../Library/Bluetooth_LE/library/libbluenrg1_stack.a(host_timer.o)
 i.Timer_getExpirySysTime32
                0x0000000000000000       0x2c ../../../../../../Library/Bluetooth_LE/library/libbluenrg1_stack.a(host_timer.o)
 i.__ARM_common_switch8
                0x0000000000000000       0x1a ../../../../../../Library/Bluetooth_LE/library/libbluenrg1_stack.a(host_timer.o)
 __ARM_common_switch8
                0x0000000000000000        0x8 ../../../../../../Library/Bluetooth_LE/library/libbluenrg1_stack.a(l2cap.o)
 .rev16_text    0x0000000000000000        0x4 ../../../../../../Library/Bluetooth_LE/library/libbluenrg1_stack.a(l2cap.o)
 .revsh_text    0x0000000000000000        0x4 ../../../../../../Library/Bluetooth_LE/library/libbluenrg1_stack.a(l2cap.o)
 i.__ARM_common_switch8
                0x0000000000000000       0x1a ../../../../../../Library/Bluetooth_LE/library/libbluenrg1_stack.a(l2cap.o)
 __ARM_common_memcpy1_6
                0x0000000000000000        0x8 ../../../../../../Library/Bluetooth_LE/library/libbluenrg1_stack.a(ll_isr.o)
 .rev16_text    0x0000000000000000        0x4 ../../../../../../Library/Bluetooth_LE/library/libbluenrg1_stack.a(ll_isr.o)
 .revsh_text    0x0000000000000000        0x4 ../../../../../../Library/Bluetooth_LE/library/libbluenrg1_stack.a(ll_isr.o)
 i.Data_Length_Update_Control_ISR_ucfg
                0x0000000000000000        0x4 ../../../../../../Library/Bluetooth_LE/library/libbluenrg1_stack.a(ll_isr.o)
 i.state_func_call_init_csr_ucfg
                0x0000000000000000        0x2 ../../../../../../Library/Bluetooth_LE/library/libbluenrg1_stack.a(ll_isr.o)
 .rev16_text    0x0000000000000000        0x4 ../../../../../../Library/Bluetooth_LE/library/libbluenrg1_stack.a(ll_privacy.o)
 .revsh_text    0x0000000000000000        0x4 ../../../../../../Library/Bluetooth_LE/library/libbluenrg1_stack.a(ll_privacy.o)
 i.LL_LE_Set_Privacy_Mode
                0x0000000000000000       0x7c ../../../../../../Library/Bluetooth_LE/library/libbluenrg1_stack.a(ll_privacy.o)
 i.LL_LE_Set_Resolvable_Private_Address_Timeout_ucfg
                0x0000000000000000        0x4 ../../../../../../Library/Bluetooth_LE/library/libbluenrg1_stack.a(ll_privacy.o)
 i.PRIV_u32ProcessAdvPacket_ucfg
                0x0000000000000000        0x4 ../../../../../../Library/Bluetooth_LE/library/libbluenrg1_stack.a(ll_privacy.o)
 i.PRIV_u8OfflineProcessing_ucfg
                0x0000000000000000        0x4 ../../../../../../Library/Bluetooth_LE/library/libbluenrg1_stack.a(ll_privacy.o)
 i.PRIV_vGeneratePrivateAddress_ucfg
                0x0000000000000000        0x2 ../../../../../../Library/Bluetooth_LE/library/libbluenrg1_stack.a(ll_privacy.o)
 i.PRIV_vGenerate_hci_le_direct_advertising_report_event_ucfg
                0x0000000000000000        0x4 ../../../../../../Library/Bluetooth_LE/library/libbluenrg1_stack.a(ll_privacy.o)
 i.PRIV_vGenerate_hci_le_enhanced_connection_complete_event_ucfg
                0x0000000000000000        0x2 ../../../../../../Library/Bluetooth_LE/library/libbluenrg1_stack.a(ll_privacy.o)
 i.rev_memcmp7  0x0000000000000000       0x18 ../../../../../../Library/Bluetooth_LE/library/libbluenrg1_stack.a(ll_privacy.o)
 .rev16_text    0x0000000000000000        0x4 ../../../../../../Library/Bluetooth_LE/library/libbluenrg1_stack.a(ll_routines.o)
 .revsh_text    0x0000000000000000        0x4 ../../../../../../Library/Bluetooth_LE/library/libbluenrg1_stack.a(ll_routines.o)
 i.Data_Len_Update_Offline_Processing_ucfg
                0x0000000000000000        0x2 ../../../../../../Library/Bluetooth_LE/library/libbluenrg1_stack.a(ll_routines.o)
 i.LL_Data_Length_Change_Event_ucfg
                0x0000000000000000        0x4 ../../../../../../Library/Bluetooth_LE/library/libbluenrg1_stack.a(ll_routines.o)
 i.LL_Send_Length_Resp_ucfg
                0x0000000000000000        0x4 ../../../../../../Library/Bluetooth_LE/library/libbluenrg1_stack.a(ll_routines.o)
 i.ll_write_supported_data_ucfg
                0x0000000000000000        0x4 ../../../../../../Library/Bluetooth_LE/library/libbluenrg1_stack.a(ll_routines.o)
 .rev16_text    0x0000000000000000        0x4 ../../../../../../Library/Bluetooth_LE/library/libbluenrg1_stack.a(ll_routines_master.o)
 .revsh_text    0x0000000000000000        0x4 ../../../../../../Library/Bluetooth_LE/library/libbluenrg1_stack.a(ll_routines_master.o)
 i.Reclassify_All_Channels_ucfg
                0x0000000000000000        0x2 ../../../../../../Library/Bluetooth_LE/library/libbluenrg1_stack.a(ll_routines_master.o)
 i.isr_event_handler_scan_data_ucfg
                0x0000000000000000        0x2 ../../../../../../Library/Bluetooth_LE/library/libbluenrg1_stack.a(ll_routines_master.o)
 .rev16_text    0x0000000000000000        0x4 ../../../../../../Library/Bluetooth_LE/library/libbluenrg1_stack.a(ll_routines_support.o)
 .revsh_text    0x0000000000000000        0x4 ../../../../../../Library/Bluetooth_LE/library/libbluenrg1_stack.a(ll_routines_support.o)
 i.LL_Encrypt_Plain_Data_ucfg
                0x0000000000000000       0x9c ../../../../../../Library/Bluetooth_LE/library/libbluenrg1_stack.a(ll_routines_support.o)
 .rev16_text    0x0000000000000000        0x4 ../../../../../../Library/Bluetooth_LE/library/libbluenrg1_stack.a(mem_alloc.o)
 .revsh_text    0x0000000000000000        0x4 ../../../../../../Library/Bluetooth_LE/library/libbluenrg1_stack.a(mem_alloc.o)
 .rev16_text    0x0000000000000000        0x4 ../../../../../../Library/Bluetooth_LE/library/libbluenrg1_stack.a(mem_buff.o)
 .revsh_text    0x0000000000000000        0x4 ../../../../../../Library/Bluetooth_LE/library/libbluenrg1_stack.a(mem_buff.o)
 .rev16_text    0x0000000000000000        0x4 ../../../../../../Library/Bluetooth_LE/library/libbluenrg1_stack.a(multi_master_time.o)
 .revsh_text    0x0000000000000000        0x4 ../../../../../../Library/Bluetooth_LE/library/libbluenrg1_stack.a(multi_master_time.o)
 i.activate_slot
                0x0000000000000000       0x20 ../../../../../../Library/Bluetooth_LE/library/libbluenrg1_stack.a(multi_master_time.o)
 i.request_advertise_slot
                0x0000000000000000       0xa4 ../../../../../../Library/Bluetooth_LE/library/libbluenrg1_stack.a(multi_master_time.o)
 .rev16_text    0x0000000000000000        0x4 ../../../../../../Library/Bluetooth_LE/library/libbluenrg1_stack.a(nvm.o)
 .revsh_text    0x0000000000000000        0x4 ../../../../../../Library/Bluetooth_LE/library/libbluenrg1_stack.a(nvm.o)
 .rev16_text    0x0000000000000000        0x4 ../../../../../../Library/Bluetooth_LE/library/libbluenrg1_stack.a(pka.o)
 .revsh_text    0x0000000000000000        0x4 ../../../../../../Library/Bluetooth_LE/library/libbluenrg1_stack.a(pka.o)
 .rev16_text    0x0000000000000000        0x4 ../../../../../../Library/Bluetooth_LE/library/libbluenrg1_stack.a(pm.o)
 .revsh_text    0x0000000000000000        0x4 ../../../../../../Library/Bluetooth_LE/library/libbluenrg1_stack.a(pm.o)
 i.PM_Get_Debug_Info
                0x0000000000000000       0x30 ../../../../../../Library/Bluetooth_LE/library/libbluenrg1_stack.a(pm.o)
 i.PM_Set_ConnHandle
                0x0000000000000000        0x6 ../../../../../../Library/Bluetooth_LE/library/libbluenrg1_stack.a(pm.o)
 .rev16_text    0x0000000000000000        0x4 ../../../../../../Library/Bluetooth_LE/library/libbluenrg1_stack.a(rom_att.o)
 .revsh_text    0x0000000000000000        0x4 ../../../../../../Library/Bluetooth_LE/library/libbluenrg1_stack.a(rom_att.o)
 .rev16_text    0x0000000000000000        0x4 ../../../../../../Library/Bluetooth_LE/library/libbluenrg1_stack.a(rom_gap.o)
 .revsh_text    0x0000000000000000        0x4 ../../../../../../Library/Bluetooth_LE/library/libbluenrg1_stack.a(rom_gap.o)
 .rev16_text    0x0000000000000000        0x4 ../../../../../../Library/Bluetooth_LE/library/libbluenrg1_stack.a(rom_gap_rom.o)
 .revsh_text    0x0000000000000000        0x4 ../../../../../../Library/Bluetooth_LE/library/libbluenrg1_stack.a(rom_gap_rom.o)
 i.Check_addr_Validity
                0x0000000000000000       0x46 ../../../../../../Library/Bluetooth_LE/library/libbluenrg1_stack.a(rom_gap_rom.o)
 i.Generate_Static_RandAddr
                0x0000000000000000       0x6c ../../../../../../Library/Bluetooth_LE/library/libbluenrg1_stack.a(rom_gap_rom.o)
 .rev16_text    0x0000000000000000        0x4 ../../../../../../Library/Bluetooth_LE/library/libbluenrg1_stack.a(rom_gatt_server.o)
 .revsh_text    0x0000000000000000        0x4 ../../../../../../Library/Bluetooth_LE/library/libbluenrg1_stack.a(rom_gatt_server.o)
 i.Check_Serv_Chng_Charac_Ind_Not
                0x0000000000000000       0x80 ../../../../../../Library/Bluetooth_LE/library/libbluenrg1_stack.a(rom_gatt_server.o)
 i.GATT_Set_Characteristic_Permission
                0x0000000000000000       0x4a ../../../../../../Library/Bluetooth_LE/library/libbluenrg1_stack.a(rom_gatt_server.o)
 i.Gatt_Read_Characteristic_Val
                0x0000000000000000       0x72 ../../../../../../Library/Bluetooth_LE/library/libbluenrg1_stack.a(rom_gatt_server.o)
 .rev16_text    0x0000000000000000        0x4 ../../../../../../Library/Bluetooth_LE/library/libbluenrg1_stack.a(rom_list.o)
 .revsh_text    0x0000000000000000        0x4 ../../../../../../Library/Bluetooth_LE/library/libbluenrg1_stack.a(rom_list.o)
 i.List_Circular_Insert_Head
                0x0000000000000000        0xe ../../../../../../Library/Bluetooth_LE/library/libbluenrg1_stack.a(rom_list.o)
 i.List_Circular_Insert_Node
                0x0000000000000000        0xe ../../../../../../Library/Bluetooth_LE/library/libbluenrg1_stack.a(rom_list.o)
 .rev16_text    0x0000000000000000        0x4 ../../../../../../Library/Bluetooth_LE/library/libbluenrg1_stack.a(rom_ll_isr_postproc.o)
 .revsh_text    0x0000000000000000        0x4 ../../../../../../Library/Bluetooth_LE/library/libbluenrg1_stack.a(rom_ll_isr_postproc.o)
 .rev16_text    0x0000000000000000        0x4 ../../../../../../Library/Bluetooth_LE/library/libbluenrg1_stack.a(rom_ll_isr_routines.o)
 .revsh_text    0x0000000000000000        0x4 ../../../../../../Library/Bluetooth_LE/library/libbluenrg1_stack.a(rom_ll_isr_routines.o)
 i.cancel_connect_master_ucfg
                0x0000000000000000        0x4 ../../../../../../Library/Bluetooth_LE/library/libbluenrg1_stack.a(rom_ll_isr_routines.o)
 .rev16_text    0x0000000000000000        0x4 ../../../../../../Library/Bluetooth_LE/library/libbluenrg1_stack.a(rom_ll_ll_routines.o)
 .revsh_text    0x0000000000000000        0x4 ../../../../../../Library/Bluetooth_LE/library/libbluenrg1_stack.a(rom_ll_ll_routines.o)
 i.LL_Get_Scan_Resp_Data
                0x0000000000000000       0x34 ../../../../../../Library/Bluetooth_LE/library/libbluenrg1_stack.a(rom_ll_ll_routines.o)
 i.LL_Rcv_ACL_Data
                0x0000000000000000       0x30 ../../../../../../Library/Bluetooth_LE/library/libbluenrg1_stack.a(rom_ll_ll_routines.o)
 i.LL_Set_Address
                0x0000000000000000       0x90 ../../../../../../Library/Bluetooth_LE/library/libbluenrg1_stack.a(rom_ll_ll_routines.o)
 .rev16_text    0x0000000000000000        0x4 ../../../../../../Library/Bluetooth_LE/library/libbluenrg1_stack.a(rom_ll_ll_routines_master.o)
 .revsh_text    0x0000000000000000        0x4 ../../../../../../Library/Bluetooth_LE/library/libbluenrg1_stack.a(rom_ll_ll_routines_master.o)
 i.LL_Start_Encryption_ucfg
                0x0000000000000000        0x4 ../../../../../../Library/Bluetooth_LE/library/libbluenrg1_stack.a(rom_ll_ll_routines_master.o)
 __ARM_common_switch8
                0x0000000000000000        0x8 ../../../../../../Library/Bluetooth_LE/library/libbluenrg1_stack.a(rom_ll_routines_support.o)
 .rev16_text    0x0000000000000000        0x4 ../../../../../../Library/Bluetooth_LE/library/libbluenrg1_stack.a(rom_ll_routines_support.o)
 .revsh_text    0x0000000000000000        0x4 ../../../../../../Library/Bluetooth_LE/library/libbluenrg1_stack.a(rom_ll_routines_support.o)
 i.__ARM_common_switch8
                0x0000000000000000       0x1a ../../../../../../Library/Bluetooth_LE/library/libbluenrg1_stack.a(rom_ll_routines_support.o)
 .rev16_text    0x0000000000000000        0x4 ../../../../../../Library/Bluetooth_LE/library/libbluenrg1_stack.a(rom_ll_timehandling.o)
 .revsh_text    0x0000000000000000        0x4 ../../../../../../Library/Bluetooth_LE/library/libbluenrg1_stack.a(rom_ll_timehandling.o)
 .rev16_text    0x0000000000000000        0x4 ../../../../../../Library/Bluetooth_LE/library/libbluenrg1_stack.a(routines_support.o)
 .revsh_text    0x0000000000000000        0x4 ../../../../../../Library/Bluetooth_LE/library/libbluenrg1_stack.a(routines_support.o)
 i.LL_SetAddressResolutionEnable_ucfg
                0x0000000000000000        0x4 ../../../../../../Library/Bluetooth_LE/library/libbluenrg1_stack.a(routines_support.o)
 i.LL_SetDisableLatency
                0x0000000000000000       0x24 ../../../../../../Library/Bluetooth_LE/library/libbluenrg1_stack.a(routines_support.o)
 .rev16_text    0x0000000000000000        0x4 ../../../../../../Library/Bluetooth_LE/library/libbluenrg1_stack.a(sdb.o)
 .revsh_text    0x0000000000000000        0x4 ../../../../../../Library/Bluetooth_LE/library/libbluenrg1_stack.a(sdb.o)
 .rev16_text    0x0000000000000000        0x4 ../../../../../../Library/Bluetooth_LE/library/libbluenrg1_stack.a(securitymgr.o)
 .revsh_text    0x0000000000000000        0x4 ../../../../../../Library/Bluetooth_LE/library/libbluenrg1_stack.a(securitymgr.o)
 i.smp_Execute_Actions_wrt_Current_State_MI_excerpt_ucfg
                0x0000000000000000        0x2 ../../../../../../Library/Bluetooth_LE/library/libbluenrg1_stack.a(securitymgr.o)
 i.smp_Execute_Actions_wrt_Current_State_sc_MI_excerpt_phase2as2_ucfg
                0x0000000000000000        0x2 ../../../../../../Library/Bluetooth_LE/library/libbluenrg1_stack.a(securitymgr.o)
 i.smp_Execute_Actions_wrt_Current_State_sc_excerpt_phase2as2_ucfg
                0x0000000000000000        0x2 ../../../../../../Library/Bluetooth_LE/library/libbluenrg1_stack.a(securitymgr.o)
 i.smp_Execute_Actions_wrt_Current_State_sc_excerpt_phase_1_to_2_ucfg
                0x0000000000000000        0x4 ../../../../../../Library/Bluetooth_LE/library/libbluenrg1_stack.a(securitymgr.o)
 i.smp_MI_Start_Encryption_ucfg
                0x0000000000000000        0x4 ../../../../../../Library/Bluetooth_LE/library/libbluenrg1_stack.a(securitymgr.o)
 i.smp_Process_Rx_Packet_Exception_Cases_sc_excerpt_ucfg
                0x0000000000000000        0x4 ../../../../../../Library/Bluetooth_LE/library/libbluenrg1_stack.a(securitymgr.o)
 i.smp_Process_Rx_Packet_wrt_Current_State_MI_excerpt_ucfg
                0x0000000000000000        0x4 ../../../../../../Library/Bluetooth_LE/library/libbluenrg1_stack.a(securitymgr.o)
 i.smp_Process_Rx_Packet_wrt_Current_State_sc_excerpt_ucfg
                0x0000000000000000        0x4 ../../../../../../Library/Bluetooth_LE/library/libbluenrg1_stack.a(securitymgr.o)
 i.smp_sc_MI_PairingConfirm_Send_sc_excerpt_ucfg
                0x0000000000000000        0x2 ../../../../../../Library/Bluetooth_LE/library/libbluenrg1_stack.a(securitymgr.o)
 i.smp_sc_MI_PairingRandom_Receive_sc_excerpt1_ucfg
                0x0000000000000000        0x4 ../../../../../../Library/Bluetooth_LE/library/libbluenrg1_stack.a(securitymgr.o)
 i.smp_sc_MI_PairingRandom_Receive_sc_excerpt2_ucfg
                0x0000000000000000        0x2 ../../../../../../Library/Bluetooth_LE/library/libbluenrg1_stack.a(securitymgr.o)
 i.smp_sc_MI_PairingResponse_Receive_sc_excerpt_ucfg
                0x0000000000000000        0x4 ../../../../../../Library/Bluetooth_LE/library/libbluenrg1_stack.a(securitymgr.o)
 i.smp_sc_MI_Pairing_Phase_2AS1_Start_sc_excerpt_ucfg
                0x0000000000000000        0x2 ../../../../../../Library/Bluetooth_LE/library/libbluenrg1_stack.a(securitymgr.o)
 i.smp_sc_SR_PairingConfirm_Receive_sc_excerpt_ucfg
                0x0000000000000000        0x2 ../../../../../../Library/Bluetooth_LE/library/libbluenrg1_stack.a(securitymgr.o)
 i.smp_sc_SR_PairingRandom_Receive_sc_excerpt_ucfg
                0x0000000000000000        0x2 ../../../../../../Library/Bluetooth_LE/library/libbluenrg1_stack.a(securitymgr.o)
 i.smp_sc_SR_Pairing_Phase_2AS1_Start_sc_excerpt_ucfg
                0x0000000000000000        0x2 ../../../../../../Library/Bluetooth_LE/library/libbluenrg1_stack.a(securitymgr.o)
 .rev16_text    0x0000000000000000        0x4 ../../../../../../Library/Bluetooth_LE/library/libbluenrg1_stack.a(smp_algo_sap.o)
 .revsh_text    0x0000000000000000        0x4 ../../../../../../Library/Bluetooth_LE/library/libbluenrg1_stack.a(smp_algo_sap.o)
 .rev16_text    0x0000000000000000        0x4 ../../../../../../Library/Bluetooth_LE/library/libbluenrg1_stack.a(smp_common.o)
 .revsh_text    0x0000000000000000        0x4 ../../../../../../Library/Bluetooth_LE/library/libbluenrg1_stack.a(smp_common.o)
 .rev16_text    0x0000000000000000        0x4 ../../../../../../Library/Bluetooth_LE/library/libbluenrg1_stack.a(smp_scv42_api.o)
 .revsh_text    0x0000000000000000        0x4 ../../../../../../Library/Bluetooth_LE/library/libbluenrg1_stack.a(smp_scv42_api.o)
 .rev16_text    0x0000000000000000        0x4 ../../../../../../Library/Bluetooth_LE/library/libbluenrg1_stack.a(smp_scv42_caf.o)
 .revsh_text    0x0000000000000000        0x4 ../../../../../../Library/Bluetooth_LE/library/libbluenrg1_stack.a(smp_scv42_caf.o)
 i.smp_sc_check_for_ecc_pk_generation_request_ucfg
                0x0000000000000000        0x2 ../../../../../../Library/Bluetooth_LE/library/libbluenrg1_stack.a(smp_scv42_caf.o)
 i.smp_sc_continue_on_exclusive_sc_pairing_ucfg
                0x0000000000000000        0x4 ../../../../../../Library/Bluetooth_LE/library/libbluenrg1_stack.a(smp_scv42_caf.o)
 i.smp_sc_generate_new_local_oob_data_ucfg
                0x0000000000000000        0x4 ../../../../../../Library/Bluetooth_LE/library/libbluenrg1_stack.a(smp_scv42_caf.o)
 i.smp_sc_init_ucfg
                0x0000000000000000        0x2 ../../../../../../Library/Bluetooth_LE/library/libbluenrg1_stack.a(smp_scv42_caf.o)
 i.smp_sc_update_statistics_on_pairing_complete_ucfg
                0x0000000000000000        0x2 ../../../../../../Library/Bluetooth_LE/library/libbluenrg1_stack.a(smp_scv42_caf.o)
 .rev16_text    0x0000000000000000        0x4 ../../../../../../Library/Bluetooth_LE/library/libbluenrg1_stack.a(smp_scv42_sap.o)
 .revsh_text    0x0000000000000000        0x4 ../../../../../../Library/Bluetooth_LE/library/libbluenrg1_stack.a(smp_scv42_sap.o)
 i.secure_connections_csr_ucfg
                0x0000000000000000        0x4 ../../../../../../Library/Bluetooth_LE/library/libbluenrg1_stack.a(smp_scv42_sap.o)
 i.smp_sc_hci_le_generate_dhkey_complete_evt_hndl_ucfg
                0x0000000000000000        0x2 ../../../../../../Library/Bluetooth_LE/library/libbluenrg1_stack.a(smp_scv42_sap.o)
 i.smp_sc_hci_le_read_local_p256_public_key_complete_evt_hndl_ucfg
                0x0000000000000000        0x2 ../../../../../../Library/Bluetooth_LE/library/libbluenrg1_stack.a(smp_scv42_sap.o)
 .rev16_text    0x0000000000000000        0x4 ../../../../../../Library/Bluetooth_LE/library/libbluenrg1_stack.a(utils.o)
 .revsh_text    0x0000000000000000        0x4 ../../../../../../Library/Bluetooth_LE/library/libbluenrg1_stack.a(utils.o)
 .rev16_text    0x0000000000000000        0x4 ../../../../../../Library/Bluetooth_LE/library/libbluenrg1_stack.a(aci_events.o)
 .revsh_text    0x0000000000000000        0x4 ../../../../../../Library/Bluetooth_LE/library/libbluenrg1_stack.a(aci_events.o)
 i.aci_att_exchange_mtu_resp_event
                0x0000000000000000        0x2 ../../../../../../Library/Bluetooth_LE/library/libbluenrg1_stack.a(aci_events.o)
 i.aci_att_exec_write_resp_event
                0x0000000000000000        0x2 ../../../../../../Library/Bluetooth_LE/library/libbluenrg1_stack.a(aci_events.o)
 i.aci_att_find_by_type_value_resp_event
                0x0000000000000000        0x2 ../../../../../../Library/Bluetooth_LE/library/libbluenrg1_stack.a(aci_events.o)
 i.aci_att_find_info_resp_event
                0x0000000000000000        0x2 ../../../../../../Library/Bluetooth_LE/library/libbluenrg1_stack.a(aci_events.o)
 i.aci_att_prepare_write_resp_event
                0x0000000000000000        0x2 ../../../../../../Library/Bluetooth_LE/library/libbluenrg1_stack.a(aci_events.o)
 i.aci_att_read_blob_resp_event
                0x0000000000000000        0x2 ../../../../../../Library/Bluetooth_LE/library/libbluenrg1_stack.a(aci_events.o)
 i.aci_att_read_by_group_type_resp_event
                0x0000000000000000        0x2 ../../../../../../Library/Bluetooth_LE/library/libbluenrg1_stack.a(aci_events.o)
 i.aci_att_read_by_type_resp_event
                0x0000000000000000        0x2 ../../../../../../Library/Bluetooth_LE/library/libbluenrg1_stack.a(aci_events.o)
 i.aci_att_read_multiple_resp_event
                0x0000000000000000        0x2 ../../../../../../Library/Bluetooth_LE/library/libbluenrg1_stack.a(aci_events.o)
 i.aci_att_read_resp_event
                0x0000000000000000        0x2 ../../../../../../Library/Bluetooth_LE/library/libbluenrg1_stack.a(aci_events.o)
 i.aci_gap_addr_not_resolved_event
                0x0000000000000000        0x2 ../../../../../../Library/Bluetooth_LE/library/libbluenrg1_stack.a(aci_events.o)
 i.aci_gap_authorization_req_event
                0x0000000000000000        0x2 ../../../../../../Library/Bluetooth_LE/library/libbluenrg1_stack.a(aci_events.o)
 i.aci_gap_bond_lost_event
                0x0000000000000000        0x2 ../../../../../../Library/Bluetooth_LE/library/libbluenrg1_stack.a(aci_events.o)
 i.aci_gap_keypress_notification_event
                0x0000000000000000        0x2 ../../../../../../Library/Bluetooth_LE/library/libbluenrg1_stack.a(aci_events.o)
 i.aci_gap_limited_discoverable_event
                0x0000000000000000        0x2 ../../../../../../Library/Bluetooth_LE/library/libbluenrg1_stack.a(aci_events.o)
 i.aci_gap_numeric_comparison_value_event
                0x0000000000000000        0x2 ../../../../../../Library/Bluetooth_LE/library/libbluenrg1_stack.a(aci_events.o)
 i.aci_gap_pairing_complete_event
                0x0000000000000000        0x2 ../../../../../../Library/Bluetooth_LE/library/libbluenrg1_stack.a(aci_events.o)
 i.aci_gap_pass_key_req_event
                0x0000000000000000        0x2 ../../../../../../Library/Bluetooth_LE/library/libbluenrg1_stack.a(aci_events.o)
 i.aci_gap_proc_complete_event
                0x0000000000000000        0x2 ../../../../../../Library/Bluetooth_LE/library/libbluenrg1_stack.a(aci_events.o)
 i.aci_gap_slave_security_initiated_event
                0x0000000000000000        0x2 ../../../../../../Library/Bluetooth_LE/library/libbluenrg1_stack.a(aci_events.o)
 i.aci_gatt_attribute_modified_event
                0x0000000000000000        0x2 ../../../../../../Library/Bluetooth_LE/library/libbluenrg1_stack.a(aci_events.o)
 i.aci_gatt_disc_read_char_by_uuid_resp_event
                0x0000000000000000        0x2 ../../../../../../Library/Bluetooth_LE/library/libbluenrg1_stack.a(aci_events.o)
 i.aci_gatt_error_resp_event
                0x0000000000000000        0x2 ../../../../../../Library/Bluetooth_LE/library/libbluenrg1_stack.a(aci_events.o)
 i.aci_gatt_indication_event
                0x0000000000000000        0x2 ../../../../../../Library/Bluetooth_LE/library/libbluenrg1_stack.a(aci_events.o)
 i.aci_gatt_notification_event
                0x0000000000000000        0x2 ../../../../../../Library/Bluetooth_LE/library/libbluenrg1_stack.a(aci_events.o)
 i.aci_gatt_prepare_write_permit_req_event
                0x0000000000000000        0x2 ../../../../../../Library/Bluetooth_LE/library/libbluenrg1_stack.a(aci_events.o)
 i.aci_gatt_proc_complete_event
                0x0000000000000000        0x2 ../../../../../../Library/Bluetooth_LE/library/libbluenrg1_stack.a(aci_events.o)
 i.aci_gatt_proc_timeout_event
                0x0000000000000000        0x2 ../../../../../../Library/Bluetooth_LE/library/libbluenrg1_stack.a(aci_events.o)
 i.aci_gatt_read_multi_permit_req_event
                0x0000000000000000        0x2 ../../../../../../Library/Bluetooth_LE/library/libbluenrg1_stack.a(aci_events.o)
 i.aci_gatt_read_permit_req_event
                0x0000000000000000        0x2 ../../../../../../Library/Bluetooth_LE/library/libbluenrg1_stack.a(aci_events.o)
 i.aci_gatt_server_confirmation_event
                0x0000000000000000        0x2 ../../../../../../Library/Bluetooth_LE/library/libbluenrg1_stack.a(aci_events.o)
 i.aci_gatt_tx_pool_available_event
                0x0000000000000000        0x2 ../../../../../../Library/Bluetooth_LE/library/libbluenrg1_stack.a(aci_events.o)
 i.aci_gatt_write_permit_req_event
                0x0000000000000000        0x2 ../../../../../../Library/Bluetooth_LE/library/libbluenrg1_stack.a(aci_events.o)
 i.aci_hal_fw_error_event
                0x0000000000000000        0x2 ../../../../../../Library/Bluetooth_LE/library/libbluenrg1_stack.a(aci_events.o)
 i.aci_hal_scan_req_report_event
                0x0000000000000000        0x2 ../../../../../../Library/Bluetooth_LE/library/libbluenrg1_stack.a(aci_events.o)
 i.aci_l2cap_command_reject_event
                0x0000000000000000        0x2 ../../../../../../Library/Bluetooth_LE/library/libbluenrg1_stack.a(aci_events.o)
 i.aci_l2cap_connection_update_req_event
                0x0000000000000000        0x2 ../../../../../../Library/Bluetooth_LE/library/libbluenrg1_stack.a(aci_events.o)
 i.aci_l2cap_connection_update_resp_event
                0x0000000000000000        0x2 ../../../../../../Library/Bluetooth_LE/library/libbluenrg1_stack.a(aci_events.o)
 i.aci_l2cap_proc_timeout_event
                0x0000000000000000        0x2 ../../../../../../Library/Bluetooth_LE/library/libbluenrg1_stack.a(aci_events.o)
 i.hci_data_buffer_overflow_event
                0x0000000000000000        0x2 ../../../../../../Library/Bluetooth_LE/library/libbluenrg1_stack.a(aci_events.o)
 i.hci_disconnection_complete_event
                0x0000000000000000        0x2 ../../../../../../Library/Bluetooth_LE/library/libbluenrg1_stack.a(aci_events.o)
 i.hci_encryption_change_event
                0x0000000000000000        0x2 ../../../../../../Library/Bluetooth_LE/library/libbluenrg1_stack.a(aci_events.o)
 i.hci_encryption_key_refresh_complete_event
                0x0000000000000000        0x2 ../../../../../../Library/Bluetooth_LE/library/libbluenrg1_stack.a(aci_events.o)
 i.hci_hardware_error_event
                0x0000000000000000        0x2 ../../../../../../Library/Bluetooth_LE/library/libbluenrg1_stack.a(aci_events.o)
 i.hci_le_advertising_report_event
                0x0000000000000000        0x2 ../../../../../../Library/Bluetooth_LE/library/libbluenrg1_stack.a(aci_events.o)
 i.hci_le_connection_complete_event
                0x0000000000000000        0x2 ../../../../../../Library/Bluetooth_LE/library/libbluenrg1_stack.a(aci_events.o)
 i.hci_le_connection_update_complete_event
                0x0000000000000000        0x2 ../../../../../../Library/Bluetooth_LE/library/libbluenrg1_stack.a(aci_events.o)
 i.hci_le_data_length_change_event
                0x0000000000000000        0x2 ../../../../../../Library/Bluetooth_LE/library/libbluenrg1_stack.a(aci_events.o)
 i.hci_le_direct_advertising_report_event
                0x0000000000000000        0x2 ../../../../../../Library/Bluetooth_LE/library/libbluenrg1_stack.a(aci_events.o)
 i.hci_le_enhanced_connection_complete_event
                0x0000000000000000        0x2 ../../../../../../Library/Bluetooth_LE/library/libbluenrg1_stack.a(aci_events.o)
 i.hci_le_generate_dhkey_complete_event
                0x0000000000000000        0x2 ../../../../../../Library/Bluetooth_LE/library/libbluenrg1_stack.a(aci_events.o)
 i.hci_le_long_term_key_request_event
                0x0000000000000000        0x2 ../../../../../../Library/Bluetooth_LE/library/libbluenrg1_stack.a(aci_events.o)
 i.hci_le_read_local_p256_public_key_complete_event
                0x0000000000000000        0x2 ../../../../../../Library/Bluetooth_LE/library/libbluenrg1_stack.a(aci_events.o)
 i.hci_le_read_remote_used_features_complete_event
                0x0000000000000000        0x2 ../../../../../../Library/Bluetooth_LE/library/libbluenrg1_stack.a(aci_events.o)
 i.hci_number_of_completed_packets_event
                0x0000000000000000        0x2 ../../../../../../Library/Bluetooth_LE/library/libbluenrg1_stack.a(aci_events.o)
 i.hci_read_remote_version_information_complete_event
                0x0000000000000000        0x2 ../../../../../../Library/Bluetooth_LE/library/libbluenrg1_stack.a(aci_events.o)
 .rev16_text    0x0000000000000000        0x4 ../../../../../../Library/Bluetooth_LE/library/libbluenrg1_stack.a(acl.o)
 .revsh_text    0x0000000000000000        0x4 ../../../../../../Library/Bluetooth_LE/library/libbluenrg1_stack.a(acl.o)
 i.Acl_Get_Queue_Limit
                0x0000000000000000       0x24 ../../../../../../Library/Bluetooth_LE/library/libbluenrg1_stack.a(acl.o)
 i.Acl_Set_Queue_Limit
                0x0000000000000000       0x18 ../../../../../../Library/Bluetooth_LE/library/libbluenrg1_stack.a(acl.o)
 .rev16_text    0x0000000000000000        0x4 ../../../../../../Library/Bluetooth_LE/library/libbluenrg1_stack.a(acl_list.o)
 .revsh_text    0x0000000000000000        0x4 ../../../../../../Library/Bluetooth_LE/library/libbluenrg1_stack.a(acl_list.o)
 i.acl_list_get_mblock_count
                0x0000000000000000        0x4 ../../../../../../Library/Bluetooth_LE/library/libbluenrg1_stack.a(acl_list.o)
 i.acl_list_get_pckt_count
                0x0000000000000000        0x4 ../../../../../../Library/Bluetooth_LE/library/libbluenrg1_stack.a(acl_list.o)
 i.acl_list_is_full
                0x0000000000000000       0x18 ../../../../../../Library/Bluetooth_LE/library/libbluenrg1_stack.a(acl_list.o)
 .rev16_text    0x0000000000000000        0x4 ../../../../../../Library/Bluetooth_LE/library/libbluenrg1_stack.a(advance_wakeup_time.o)
 .revsh_text    0x0000000000000000        0x4 ../../../../../../Library/Bluetooth_LE/library/libbluenrg1_stack.a(advance_wakeup_time.o)
 .rev16_text    0x0000000000000000        0x4 ../../../../../../Library/Bluetooth_LE/library/libbluenrg1_stack.a(att.o)
 .revsh_text    0x0000000000000000        0x4 ../../../../../../Library/Bluetooth_LE/library/libbluenrg1_stack.a(att.o)
 .rev16_text    0x0000000000000000        0x4 ../../../../../../Library/Bluetooth_LE/library/libbluenrg1_stack.a(bluenrg_main_func_speed.o)
 .revsh_text    0x0000000000000000        0x4 ../../../../../../Library/Bluetooth_LE/library/libbluenrg1_stack.a(bluenrg_main_func_speed.o)
 .rev16_text    0x0000000000000000        0x4 ../../../../../../Library/Bluetooth_LE/library/libbluenrg1_stack.a(device_id_data.o)
 .revsh_text    0x0000000000000000        0x4 ../../../../../../Library/Bluetooth_LE/library/libbluenrg1_stack.a(device_id_data.o)
 .rev16_text    0x0000000000000000        0x4 ../../../../../../Library/Bluetooth_LE/library/libbluenrg1_stack.a(isr_postproc.o)
 .revsh_text    0x0000000000000000        0x4 ../../../../../../Library/Bluetooth_LE/library/libbluenrg1_stack.a(isr_postproc.o)
 .rev16_text    0x0000000000000000        0x4 ../../../../../../Library/Bluetooth_LE/library/libbluenrg1_stack.a(isr_routines.o)
 .revsh_text    0x0000000000000000        0x4 ../../../../../../Library/Bluetooth_LE/library/libbluenrg1_stack.a(isr_routines.o)
 i.AES_CMAC_Decrypt_Append
                0x0000000000000000        0x8 ../../../../../../Library/cryptolib/libcrypto.a(crypto.o)
 i.AES_CMAC_Decrypt_Finish
                0x0000000000000000       0xc4 ../../../../../../Library/cryptolib/libcrypto.a(crypto.o)
 i.AES_CMAC_Decrypt_Init
                0x0000000000000000        0x8 ../../../../../../Library/cryptolib/libcrypto.a(crypto.o)
 i.Crypto_DeInit
                0x0000000000000000        0x2 ../../../../../../Library/cryptolib/libcrypto.a(crypto.o)
 .text          0x0000000000000000        0x0 /opt/Atollic_TrueSTUDIO_for_STM32_x86_64_9.3.0/ARMTools/bin/../lib/gcc/arm-atollic-eabi/6.3.1/../../../../arm-atollic-eabi/lib/armv6-m/libc_nano.a(lib_a-aeabi_memclr.o)
 .data          0x0000000000000000        0x0 /opt/Atollic_TrueSTUDIO_for_STM32_x86_64_9.3.0/ARMTools/bin/../lib/gcc/arm-atollic-eabi/6.3.1/../../../../arm-atollic-eabi/lib/armv6-m/libc_nano.a(lib_a-aeabi_memclr.o)
 .bss           0x0000000000000000        0x0 /opt/Atollic_TrueSTUDIO_for_STM32_x86_64_9.3.0/ARMTools/bin/../lib/gcc/arm-atollic-eabi/6.3.1/../../../../arm-atollic-eabi/lib/armv6-m/libc_nano.a(lib_a-aeabi_memclr.o)
 .text          0x0000000000000000        0x0 /opt/Atollic_TrueSTUDIO_for_STM32_x86_64_9.3.0/ARMTools/bin/../lib/gcc/arm-atollic-eabi/6.3.1/../../../../arm-atollic-eabi/lib/armv6-m/libc_nano.a(lib_a-aeabi_memcpy.o)
 .data          0x0000000000000000        0x0 /opt/Atollic_TrueSTUDIO_for_STM32_x86_64_9.3.0/ARMTools/bin/../lib/gcc/arm-atollic-eabi/6.3.1/../../../../arm-atollic-eabi/lib/armv6-m/libc_nano.a(lib_a-aeabi_memcpy.o)
 .bss           0x0000000000000000        0x0 /opt/Atollic_TrueSTUDIO_for_STM32_x86_64_9.3.0/ARMTools/bin/../lib/gcc/arm-atollic-eabi/6.3.1/../../../../arm-atollic-eabi/lib/armv6-m/libc_nano.a(lib_a-aeabi_memcpy.o)
 .text          0x0000000000000000        0x0 /opt/Atollic_TrueSTUDIO_for_STM32_x86_64_9.3.0/ARMTools/bin/../lib/gcc/arm-atollic-eabi/6.3.1/../../../../arm-atollic-eabi/lib/armv6-m/libc_nano.a(lib_a-aeabi_memmove.o)
 .data          0x0000000000000000        0x0 /opt/Atollic_TrueSTUDIO_for_STM32_x86_64_9.3.0/ARMTools/bin/../lib/gcc/arm-atollic-eabi/6.3.1/../../../../arm-atollic-eabi/lib/armv6-m/libc_nano.a(lib_a-aeabi_memmove.o)
 .bss           0x0000000000000000        0x0 /opt/Atollic_TrueSTUDIO_for_STM32_x86_64_9.3.0/ARMTools/bin/../lib/gcc/arm-atollic-eabi/6.3.1/../../../../arm-atollic-eabi/lib/armv6-m/libc_nano.a(lib_a-aeabi_memmove.o)
 .text          0x0000000000000000        0x0 /opt/Atollic_TrueSTUDIO_for_STM32_x86_64_9.3.0/ARMTools/bin/../lib/gcc/arm-atollic-eabi/6.3.1/../../../../arm-atollic-eabi/lib/armv6-m/libc_nano.a(lib_a-aeabi_memset.o)
 .data          0x0000000000000000        0x0 /opt/Atollic_TrueSTUDIO_for_STM32_x86_64_9.3.0/ARMTools/bin/../lib/gcc/arm-atollic-eabi/6.3.1/../../../../arm-atollic-eabi/lib/armv6-m/libc_nano.a(lib_a-aeabi_memset.o)
 .bss           0x0000000000000000        0x0 /opt/Atollic_TrueSTUDIO_for_STM32_x86_64_9.3.0/ARMTools/bin/../lib/gcc/arm-atollic-eabi/6.3.1/../../../../arm-atollic-eabi/lib/armv6-m/libc_nano.a(lib_a-aeabi_memset.o)
 .text          0x0000000000000000        0x0 /opt/Atollic_TrueSTUDIO_for_STM32_x86_64_9.3.0/ARMTools/bin/../lib/gcc/arm-atollic-eabi/6.3.1/../../../../arm-atollic-eabi/lib/armv6-m/libc_nano.a(lib_a-memcmp.o)
 .data          0x0000000000000000        0x0 /opt/Atollic_TrueSTUDIO_for_STM32_x86_64_9.3.0/ARMTools/bin/../lib/gcc/arm-atollic-eabi/6.3.1/../../../../arm-atollic-eabi/lib/armv6-m/libc_nano.a(lib_a-memcmp.o)
 .bss           0x0000000000000000        0x0 /opt/Atollic_TrueSTUDIO_for_STM32_x86_64_9.3.0/ARMTools/bin/../lib/gcc/arm-atollic-eabi/6.3.1/../../../../arm-atollic-eabi/lib/armv6-m/libc_nano.a(lib_a-memcmp.o)
 .text          0x0000000000000000        0x0 /opt/Atollic_TrueSTUDIO_for_STM32_x86_64_9.3.0/ARMTools/bin/../lib/gcc/arm-atollic-eabi/6.3.1/../../../../arm-atollic-eabi/lib/armv6-m/libc_nano.a(lib_a-memcpy-stub.o)
 .data          0x0000000000000000        0x0 /opt/Atollic_TrueSTUDIO_for_STM32_x86_64_9.3.0/ARMTools/bin/../lib/gcc/arm-atollic-eabi/6.3.1/../../../../arm-atollic-eabi/lib/armv6-m/libc_nano.a(lib_a-memcpy-stub.o)
 .bss           0x0000000000000000        0x0 /opt/Atollic_TrueSTUDIO_for_STM32_x86_64_9.3.0/ARMTools/bin/../lib/gcc/arm-atollic-eabi/6.3.1/../../../../arm-atollic-eabi/lib/armv6-m/libc_nano.a(lib_a-memcpy-stub.o)
 .text          0x0000000000000000        0x0 /opt/Atollic_TrueSTUDIO_for_STM32_x86_64_9.3.0/ARMTools/bin/../lib/gcc/arm-atollic-eabi/6.3.1/../../../../arm-atollic-eabi/lib/armv6-m/libc_nano.a(lib_a-memmove.o)
 .data          0x0000000000000000        0x0 /opt/Atollic_TrueSTUDIO_for_STM32_x86_64_9.3.0/ARMTools/bin/../lib/gcc/arm-atollic-eabi/6.3.1/../../../../arm-atollic-eabi/lib/armv6-m/libc_nano.a(lib_a-memmove.o)
 .bss           0x0000000000000000        0x0 /opt/Atollic_TrueSTUDIO_for_STM32_x86_64_9.3.0/ARMTools/bin/../lib/gcc/arm-atollic-eabi/6.3.1/../../../../arm-atollic-eabi/lib/armv6-m/libc_nano.a(lib_a-memmove.o)
 .text          0x0000000000000000        0x0 /opt/Atollic_TrueSTUDIO_for_STM32_x86_64_9.3.0/ARMTools/bin/../lib/gcc/arm-atollic-eabi/6.3.1/../../../../arm-atollic-eabi/lib/armv6-m/libc_nano.a(lib_a-memset.o)
 .data          0x0000000000000000        0x0 /opt/Atollic_TrueSTUDIO_for_STM32_x86_64_9.3.0/ARMTools/bin/../lib/gcc/arm-atollic-eabi/6.3.1/../../../../arm-atollic-eabi/lib/armv6-m/libc_nano.a(lib_a-memset.o)
 .bss           0x0000000000000000        0x0 /opt/Atollic_TrueSTUDIO_for_STM32_x86_64_9.3.0/ARMTools/bin/../lib/gcc/arm-atollic-eabi/6.3.1/../../../../arm-atollic-eabi/lib/armv6-m/libc_nano.a(lib_a-memset.o)
 .data          0x0000000000000000        0x0 /opt/Atollic_TrueSTUDIO_for_STM32_x86_64_9.3.0/ARMTools/bin/../lib/gcc/arm-atollic-eabi/6.3.1/armv6-m/libgcc.a(_udivsi3.o)
 .bss           0x0000000000000000        0x0 /opt/Atollic_TrueSTUDIO_for_STM32_x86_64_9.3.0/ARMTools/bin/../lib/gcc/arm-atollic-eabi/6.3.1/armv6-m/libgcc.a(_udivsi3.o)
 .debug_frame   0x0000000000000000       0x20 /opt/Atollic_TrueSTUDIO_for_STM32_x86_64_9.3.0/ARMTools/bin/../lib/gcc/arm-atollic-eabi/6.3.1/armv6-m/libgcc.a(_udivsi3.o)
 .ARM.attributes
                0x0000000000000000       0x1e /opt/Atollic_TrueSTUDIO_for_STM32_x86_64_9.3.0/ARMTools/bin/../lib/gcc/arm-atollic-eabi/6.3.1/armv6-m/libgcc.a(_udivsi3.o)
 .data          0x0000000000000000        0x0 /opt/Atollic_TrueSTUDIO_for_STM32_x86_64_9.3.0/ARMTools/bin/../lib/gcc/arm-atollic-eabi/6.3.1/armv6-m/libgcc.a(_divsi3.o)
 .bss           0x0000000000000000        0x0 /opt/Atollic_TrueSTUDIO_for_STM32_x86_64_9.3.0/ARMTools/bin/../lib/gcc/arm-atollic-eabi/6.3.1/armv6-m/libgcc.a(_divsi3.o)
 .debug_frame   0x0000000000000000       0x20 /opt/Atollic_TrueSTUDIO_for_STM32_x86_64_9.3.0/ARMTools/bin/../lib/gcc/arm-atollic-eabi/6.3.1/armv6-m/libgcc.a(_divsi3.o)
 .ARM.attributes
                0x0000000000000000       0x1e /opt/Atollic_TrueSTUDIO_for_STM32_x86_64_9.3.0/ARMTools/bin/../lib/gcc/arm-atollic-eabi/6.3.1/armv6-m/libgcc.a(_divsi3.o)
 .data          0x0000000000000000        0x0 /opt/Atollic_TrueSTUDIO_for_STM32_x86_64_9.3.0/ARMTools/bin/../lib/gcc/arm-atollic-eabi/6.3.1/armv6-m/libgcc.a(_dvmd_tls.o)
 .bss           0x0000000000000000        0x0 /opt/Atollic_TrueSTUDIO_for_STM32_x86_64_9.3.0/ARMTools/bin/../lib/gcc/arm-atollic-eabi/6.3.1/armv6-m/libgcc.a(_dvmd_tls.o)
 .ARM.attributes
                0x0000000000000000       0x1e /opt/Atollic_TrueSTUDIO_for_STM32_x86_64_9.3.0/ARMTools/bin/../lib/gcc/arm-atollic-eabi/6.3.1/armv6-m/libgcc.a(_dvmd_tls.o)
 .data          0x0000000000000000        0x0 /opt/Atollic_TrueSTUDIO_for_STM32_x86_64_9.3.0/ARMTools/bin/../lib/gcc/arm-atollic-eabi/6.3.1/armv6-m/libgcc.a(unaligned-funcs.o)
 .bss           0x0000000000000000        0x0 /opt/Atollic_TrueSTUDIO_for_STM32_x86_64_9.3.0/ARMTools/bin/../lib/gcc/arm-atollic-eabi/6.3.1/armv6-m/libgcc.a(unaligned-funcs.o)
 .debug_frame   0x0000000000000000       0x50 /opt/Atollic_TrueSTUDIO_for_STM32_x86_64_9.3.0/ARMTools/bin/../lib/gcc/arm-atollic-eabi/6.3.1/armv6-m/libgcc.a(unaligned-funcs.o)
 .ARM.attributes
                0x0000000000000000       0x2c /opt/Atollic_TrueSTUDIO_for_STM32_x86_64_9.3.0/ARMTools/bin/../lib/gcc/arm-atollic-eabi/6.3.1/armv6-m/libgcc.a(unaligned-funcs.o)
 .text          0x0000000000000000      0x324 /opt/Atollic_TrueSTUDIO_for_STM32_x86_64_9.3.0/ARMTools/bin/../lib/gcc/arm-atollic-eabi/6.3.1/armv6-m/libgcc.a(addsf3.o)
 .data          0x0000000000000000        0x0 /opt/Atollic_TrueSTUDIO_for_STM32_x86_64_9.3.0/ARMTools/bin/../lib/gcc/arm-atollic-eabi/6.3.1/armv6-m/libgcc.a(addsf3.o)
 .bss           0x0000000000000000        0x0 /opt/Atollic_TrueSTUDIO_for_STM32_x86_64_9.3.0/ARMTools/bin/../lib/gcc/arm-atollic-eabi/6.3.1/armv6-m/libgcc.a(addsf3.o)
 .debug_frame   0x0000000000000000       0x34 /opt/Atollic_TrueSTUDIO_for_STM32_x86_64_9.3.0/ARMTools/bin/../lib/gcc/arm-atollic-eabi/6.3.1/armv6-m/libgcc.a(addsf3.o)
 .ARM.attributes
                0x0000000000000000       0x2c /opt/Atollic_TrueSTUDIO_for_STM32_x86_64_9.3.0/ARMTools/bin/../lib/gcc/arm-atollic-eabi/6.3.1/armv6-m/libgcc.a(addsf3.o)
 .text          0x0000000000000000      0x290 /opt/Atollic_TrueSTUDIO_for_STM32_x86_64_9.3.0/ARMTools/bin/../lib/gcc/arm-atollic-eabi/6.3.1/armv6-m/libgcc.a(divsf3.o)
 .data          0x0000000000000000        0x0 /opt/Atollic_TrueSTUDIO_for_STM32_x86_64_9.3.0/ARMTools/bin/../lib/gcc/arm-atollic-eabi/6.3.1/armv6-m/libgcc.a(divsf3.o)
 .bss           0x0000000000000000        0x0 /opt/Atollic_TrueSTUDIO_for_STM32_x86_64_9.3.0/ARMTools/bin/../lib/gcc/arm-atollic-eabi/6.3.1/armv6-m/libgcc.a(divsf3.o)
 .rodata        0x0000000000000000       0x80 /opt/Atollic_TrueSTUDIO_for_STM32_x86_64_9.3.0/ARMTools/bin/../lib/gcc/arm-atollic-eabi/6.3.1/armv6-m/libgcc.a(divsf3.o)
 .debug_frame   0x0000000000000000       0x3c /opt/Atollic_TrueSTUDIO_for_STM32_x86_64_9.3.0/ARMTools/bin/../lib/gcc/arm-atollic-eabi/6.3.1/armv6-m/libgcc.a(divsf3.o)
 .ARM.attributes
                0x0000000000000000       0x2c /opt/Atollic_TrueSTUDIO_for_STM32_x86_64_9.3.0/ARMTools/bin/../lib/gcc/arm-atollic-eabi/6.3.1/armv6-m/libgcc.a(divsf3.o)
 .text          0x0000000000000000      0x240 /opt/Atollic_TrueSTUDIO_for_STM32_x86_64_9.3.0/ARMTools/bin/../lib/gcc/arm-atollic-eabi/6.3.1/armv6-m/libgcc.a(mulsf3.o)
 .data          0x0000000000000000        0x0 /opt/Atollic_TrueSTUDIO_for_STM32_x86_64_9.3.0/ARMTools/bin/../lib/gcc/arm-atollic-eabi/6.3.1/armv6-m/libgcc.a(mulsf3.o)
 .bss           0x0000000000000000        0x0 /opt/Atollic_TrueSTUDIO_for_STM32_x86_64_9.3.0/ARMTools/bin/../lib/gcc/arm-atollic-eabi/6.3.1/armv6-m/libgcc.a(mulsf3.o)
 .rodata        0x0000000000000000       0x40 /opt/Atollic_TrueSTUDIO_for_STM32_x86_64_9.3.0/ARMTools/bin/../lib/gcc/arm-atollic-eabi/6.3.1/armv6-m/libgcc.a(mulsf3.o)
 .debug_frame   0x0000000000000000       0x3c /opt/Atollic_TrueSTUDIO_for_STM32_x86_64_9.3.0/ARMTools/bin/../lib/gcc/arm-atollic-eabi/6.3.1/armv6-m/libgcc.a(mulsf3.o)
 .ARM.attributes
                0x0000000000000000       0x2c /opt/Atollic_TrueSTUDIO_for_STM32_x86_64_9.3.0/ARMTools/bin/../lib/gcc/arm-atollic-eabi/6.3.1/armv6-m/libgcc.a(mulsf3.o)
 .text          0x0000000000000000      0x338 /opt/Atollic_TrueSTUDIO_for_STM32_x86_64_9.3.0/ARMTools/bin/../lib/gcc/arm-atollic-eabi/6.3.1/armv6-m/libgcc.a(subsf3.o)
 .data          0x0000000000000000        0x0 /opt/Atollic_TrueSTUDIO_for_STM32_x86_64_9.3.0/ARMTools/bin/../lib/gcc/arm-atollic-eabi/6.3.1/armv6-m/libgcc.a(subsf3.o)
 .bss           0x0000000000000000        0x0 /opt/Atollic_TrueSTUDIO_for_STM32_x86_64_9.3.0/ARMTools/bin/../lib/gcc/arm-atollic-eabi/6.3.1/armv6-m/libgcc.a(subsf3.o)
 .debug_frame   0x0000000000000000       0x38 /opt/Atollic_TrueSTUDIO_for_STM32_x86_64_9.3.0/ARMTools/bin/../lib/gcc/arm-atollic-eabi/6.3.1/armv6-m/libgcc.a(subsf3.o)
 .ARM.attributes
                0x0000000000000000       0x2c /opt/Atollic_TrueSTUDIO_for_STM32_x86_64_9.3.0/ARMTools/bin/../lib/gcc/arm-atollic-eabi/6.3.1/armv6-m/libgcc.a(subsf3.o)
 .text          0x0000000000000000       0xa0 /opt/Atollic_TrueSTUDIO_for_STM32_x86_64_9.3.0/ARMTools/bin/../lib/gcc/arm-atollic-eabi/6.3.1/armv6-m/libgcc.a(floatsisf.o)
 .data          0x0000000000000000        0x0 /opt/Atollic_TrueSTUDIO_for_STM32_x86_64_9.3.0/ARMTools/bin/../lib/gcc/arm-atollic-eabi/6.3.1/armv6-m/libgcc.a(floatsisf.o)
 .bss           0x0000000000000000        0x0 /opt/Atollic_TrueSTUDIO_for_STM32_x86_64_9.3.0/ARMTools/bin/../lib/gcc/arm-atollic-eabi/6.3.1/armv6-m/libgcc.a(floatsisf.o)
 .debug_frame   0x0000000000000000       0x2c /opt/Atollic_TrueSTUDIO_for_STM32_x86_64_9.3.0/ARMTools/bin/../lib/gcc/arm-atollic-eabi/6.3.1/armv6-m/libgcc.a(floatsisf.o)
 .ARM.attributes
                0x0000000000000000       0x2c /opt/Atollic_TrueSTUDIO_for_STM32_x86_64_9.3.0/ARMTools/bin/../lib/gcc/arm-atollic-eabi/6.3.1/armv6-m/libgcc.a(floatsisf.o)
 .text          0x0000000000000000       0x8c /opt/Atollic_TrueSTUDIO_for_STM32_x86_64_9.3.0/ARMTools/bin/../lib/gcc/arm-atollic-eabi/6.3.1/armv6-m/libgcc.a(floatunsisf.o)
 .data          0x0000000000000000        0x0 /opt/Atollic_TrueSTUDIO_for_STM32_x86_64_9.3.0/ARMTools/bin/../lib/gcc/arm-atollic-eabi/6.3.1/armv6-m/libgcc.a(floatunsisf.o)
 .bss           0x0000000000000000        0x0 /opt/Atollic_TrueSTUDIO_for_STM32_x86_64_9.3.0/ARMTools/bin/../lib/gcc/arm-atollic-eabi/6.3.1/armv6-m/libgcc.a(floatunsisf.o)
 .debug_frame   0x0000000000000000       0x28 /opt/Atollic_TrueSTUDIO_for_STM32_x86_64_9.3.0/ARMTools/bin/../lib/gcc/arm-atollic-eabi/6.3.1/armv6-m/libgcc.a(floatunsisf.o)
 .ARM.attributes
                0x0000000000000000       0x2c /opt/Atollic_TrueSTUDIO_for_STM32_x86_64_9.3.0/ARMTools/bin/../lib/gcc/arm-atollic-eabi/6.3.1/armv6-m/libgcc.a(floatunsisf.o)
 .text          0x0000000000000000      0x620 /opt/Atollic_TrueSTUDIO_for_STM32_x86_64_9.3.0/ARMTools/bin/../lib/gcc/arm-atollic-eabi/6.3.1/armv6-m/libgcc.a(adddf3.o)
 .data          0x0000000000000000        0x0 /opt/Atollic_TrueSTUDIO_for_STM32_x86_64_9.3.0/ARMTools/bin/../lib/gcc/arm-atollic-eabi/6.3.1/armv6-m/libgcc.a(adddf3.o)
 .bss           0x0000000000000000        0x0 /opt/Atollic_TrueSTUDIO_for_STM32_x86_64_9.3.0/ARMTools/bin/../lib/gcc/arm-atollic-eabi/6.3.1/armv6-m/libgcc.a(adddf3.o)
 .debug_frame   0x0000000000000000       0x3c /opt/Atollic_TrueSTUDIO_for_STM32_x86_64_9.3.0/ARMTools/bin/../lib/gcc/arm-atollic-eabi/6.3.1/armv6-m/libgcc.a(adddf3.o)
 .ARM.attributes
                0x0000000000000000       0x2c /opt/Atollic_TrueSTUDIO_for_STM32_x86_64_9.3.0/ARMTools/bin/../lib/gcc/arm-atollic-eabi/6.3.1/armv6-m/libgcc.a(adddf3.o)
 .text          0x0000000000000000      0x668 /opt/Atollic_TrueSTUDIO_for_STM32_x86_64_9.3.0/ARMTools/bin/../lib/gcc/arm-atollic-eabi/6.3.1/armv6-m/libgcc.a(divdf3.o)
 .data          0x0000000000000000        0x0 /opt/Atollic_TrueSTUDIO_for_STM32_x86_64_9.3.0/ARMTools/bin/../lib/gcc/arm-atollic-eabi/6.3.1/armv6-m/libgcc.a(divdf3.o)
 .bss           0x0000000000000000        0x0 /opt/Atollic_TrueSTUDIO_for_STM32_x86_64_9.3.0/ARMTools/bin/../lib/gcc/arm-atollic-eabi/6.3.1/armv6-m/libgcc.a(divdf3.o)
 .rodata        0x0000000000000000       0x40 /opt/Atollic_TrueSTUDIO_for_STM32_x86_64_9.3.0/ARMTools/bin/../lib/gcc/arm-atollic-eabi/6.3.1/armv6-m/libgcc.a(divdf3.o)
 .debug_frame   0x0000000000000000       0x3c /opt/Atollic_TrueSTUDIO_for_STM32_x86_64_9.3.0/ARMTools/bin/../lib/gcc/arm-atollic-eabi/6.3.1/armv6-m/libgcc.a(divdf3.o)
 .ARM.attributes
                0x0000000000000000       0x2c /opt/Atollic_TrueSTUDIO_for_STM32_x86_64_9.3.0/ARMTools/bin/../lib/gcc/arm-atollic-eabi/6.3.1/armv6-m/libgcc.a(divdf3.o)
 .text          0x0000000000000000      0x500 /opt/Atollic_TrueSTUDIO_for_STM32_x86_64_9.3.0/ARMTools/bin/../lib/gcc/arm-atollic-eabi/6.3.1/armv6-m/libgcc.a(muldf3.o)
 .data          0x0000000000000000        0x0 /opt/Atollic_TrueSTUDIO_for_STM32_x86_64_9.3.0/ARMTools/bin/../lib/gcc/arm-atollic-eabi/6.3.1/armv6-m/libgcc.a(muldf3.o)
 .bss           0x0000000000000000        0x0 /opt/Atollic_TrueSTUDIO_for_STM32_x86_64_9.3.0/ARMTools/bin/../lib/gcc/arm-atollic-eabi/6.3.1/armv6-m/libgcc.a(muldf3.o)
 .rodata        0x0000000000000000       0x40 /opt/Atollic_TrueSTUDIO_for_STM32_x86_64_9.3.0/ARMTools/bin/../lib/gcc/arm-atollic-eabi/6.3.1/armv6-m/libgcc.a(muldf3.o)
 .debug_frame   0x0000000000000000       0x3c /opt/Atollic_TrueSTUDIO_for_STM32_x86_64_9.3.0/ARMTools/bin/../lib/gcc/arm-atollic-eabi/6.3.1/armv6-m/libgcc.a(muldf3.o)
 .ARM.attributes
                0x0000000000000000       0x2c /opt/Atollic_TrueSTUDIO_for_STM32_x86_64_9.3.0/ARMTools/bin/../lib/gcc/arm-atollic-eabi/6.3.1/armv6-m/libgcc.a(muldf3.o)
 .text          0x0000000000000000      0x62c /opt/Atollic_TrueSTUDIO_for_STM32_x86_64_9.3.0/ARMTools/bin/../lib/gcc/arm-atollic-eabi/6.3.1/armv6-m/libgcc.a(subdf3.o)
 .data          0x0000000000000000        0x0 /opt/Atollic_TrueSTUDIO_for_STM32_x86_64_9.3.0/ARMTools/bin/../lib/gcc/arm-atollic-eabi/6.3.1/armv6-m/libgcc.a(subdf3.o)
 .bss           0x0000000000000000        0x0 /opt/Atollic_TrueSTUDIO_for_STM32_x86_64_9.3.0/ARMTools/bin/../lib/gcc/arm-atollic-eabi/6.3.1/armv6-m/libgcc.a(subdf3.o)
 .debug_frame   0x0000000000000000       0x38 /opt/Atollic_TrueSTUDIO_for_STM32_x86_64_9.3.0/ARMTools/bin/../lib/gcc/arm-atollic-eabi/6.3.1/armv6-m/libgcc.a(subdf3.o)
 .ARM.attributes
                0x0000000000000000       0x2c /opt/Atollic_TrueSTUDIO_for_STM32_x86_64_9.3.0/ARMTools/bin/../lib/gcc/arm-atollic-eabi/6.3.1/armv6-m/libgcc.a(subdf3.o)
 .text          0x0000000000000000       0xa4 /opt/Atollic_TrueSTUDIO_for_STM32_x86_64_9.3.0/ARMTools/bin/../lib/gcc/arm-atollic-eabi/6.3.1/armv6-m/libgcc.a(extendsfdf2.o)
 .data          0x0000000000000000        0x0 /opt/Atollic_TrueSTUDIO_for_STM32_x86_64_9.3.0/ARMTools/bin/../lib/gcc/arm-atollic-eabi/6.3.1/armv6-m/libgcc.a(extendsfdf2.o)
 .bss           0x0000000000000000        0x0 /opt/Atollic_TrueSTUDIO_for_STM32_x86_64_9.3.0/ARMTools/bin/../lib/gcc/arm-atollic-eabi/6.3.1/armv6-m/libgcc.a(extendsfdf2.o)
 .debug_frame   0x0000000000000000       0x2c /opt/Atollic_TrueSTUDIO_for_STM32_x86_64_9.3.0/ARMTools/bin/../lib/gcc/arm-atollic-eabi/6.3.1/armv6-m/libgcc.a(extendsfdf2.o)
 .ARM.attributes
                0x0000000000000000       0x2c /opt/Atollic_TrueSTUDIO_for_STM32_x86_64_9.3.0/ARMTools/bin/../lib/gcc/arm-atollic-eabi/6.3.1/armv6-m/libgcc.a(extendsfdf2.o)
 .text          0x0000000000000000      0x114 /opt/Atollic_TrueSTUDIO_for_STM32_x86_64_9.3.0/ARMTools/bin/../lib/gcc/arm-atollic-eabi/6.3.1/armv6-m/libgcc.a(truncdfsf2.o)
 .data          0x0000000000000000        0x0 /opt/Atollic_TrueSTUDIO_for_STM32_x86_64_9.3.0/ARMTools/bin/../lib/gcc/arm-atollic-eabi/6.3.1/armv6-m/libgcc.a(truncdfsf2.o)
 .bss           0x0000000000000000        0x0 /opt/Atollic_TrueSTUDIO_for_STM32_x86_64_9.3.0/ARMTools/bin/../lib/gcc/arm-atollic-eabi/6.3.1/armv6-m/libgcc.a(truncdfsf2.o)
 .debug_frame   0x0000000000000000       0x30 /opt/Atollic_TrueSTUDIO_for_STM32_x86_64_9.3.0/ARMTools/bin/../lib/gcc/arm-atollic-eabi/6.3.1/armv6-m/libgcc.a(truncdfsf2.o)
 .ARM.attributes
                0x0000000000000000       0x2c /opt/Atollic_TrueSTUDIO_for_STM32_x86_64_9.3.0/ARMTools/bin/../lib/gcc/arm-atollic-eabi/6.3.1/armv6-m/libgcc.a(truncdfsf2.o)
 .text          0x0000000000000000       0x3c /opt/Atollic_TrueSTUDIO_for_STM32_x86_64_9.3.0/ARMTools/bin/../lib/gcc/arm-atollic-eabi/6.3.1/armv6-m/libgcc.a(_clzsi2.o)
 .data          0x0000000000000000        0x0 /opt/Atollic_TrueSTUDIO_for_STM32_x86_64_9.3.0/ARMTools/bin/../lib/gcc/arm-atollic-eabi/6.3.1/armv6-m/libgcc.a(_clzsi2.o)
 .bss           0x0000000000000000        0x0 /opt/Atollic_TrueSTUDIO_for_STM32_x86_64_9.3.0/ARMTools/bin/../lib/gcc/arm-atollic-eabi/6.3.1/armv6-m/libgcc.a(_clzsi2.o)
 .ARM.attributes
                0x0000000000000000       0x1e /opt/Atollic_TrueSTUDIO_for_STM32_x86_64_9.3.0/ARMTools/bin/../lib/gcc/arm-atollic-eabi/6.3.1/armv6-m/libgcc.a(_clzsi2.o)

Memory Configuration

Name             Origin             Length             Attributes
REGION_RAM       0x0000000020000000 0x0000000000006000 xrw
REGION_FLASH_BOOTLOADER 0x0000000010040000 0x0000000000000000 xr
REGION_FLASH     0x0000000010040000 0x000000000003f000 xr
REGION_NVM       0x000000001007f000 0x0000000000001000 xr
REGION_ROM       0x0000000010000000 0x0000000000000800 xr
*default*        0x0000000000000000 0xffffffffffffffff

Linker script and memory map

LOAD Hal/context_switch.o
LOAD Hal/fifo.o
LOAD Hal/miscutil.o
LOAD Hal/osal.o
LOAD Hal/sleep.o
LOAD Library/BlueNRG1_adc.o
LOAD Library/BlueNRG1_dma.o
LOAD Library/BlueNRG1_flash.o
LOAD Library/BlueNRG1_gpio.o
LOAD Library/BlueNRG1_i2c.o
LOAD Library/BlueNRG1_mft.o
LOAD Library/BlueNRG1_pka.o
LOAD Library/BlueNRG1_rtc.o
LOAD Library/BlueNRG1_spi.o
LOAD Library/BlueNRG1_sysCtrl.o
LOAD Library/BlueNRG1_uart.o
LOAD Library/BlueNRG1_wdg.o
LOAD Library/misc.o
LOAD Stack/stack_dle_api_stubs.o
LOAD Stack/stack_priv_api_stubs.o
LOAD Stack/stack_sc_api_stubs.o
LOAD Stack/stack_slvonly_api_stubs.o
LOAD Stack/stack_user_cfg.o
LOAD Startup/system_bluenrg1.o
LOAD User/BlueNRG1_it.o
LOAD User/DTM_boot.o
LOAD User/DTM_cmd_db.o
LOAD User/DTM_cmds.o
LOAD User/DTM_main.o
LOAD User/cmd.o
LOAD User/hci_parser.o
LOAD User/hw_config.o
LOAD User/transport_layer.o
LOAD ../../../../../../Library/Bluetooth_LE/library/libbluenrg1_stack.a
LOAD ../../../../../../Library/cryptolib/libcrypto.a
                0x0000000000000080                malloc_getpagesize_P = 0x80
START GROUP
LOAD /opt/Atollic_TrueSTUDIO_for_STM32_x86_64_9.3.0/ARMTools/bin/../lib/gcc/arm-atollic-eabi/6.3.1/../../../../arm-atollic-eabi/lib/armv6-m/libc_nano.a
LOAD /opt/Atollic_TrueSTUDIO_for_STM32_x86_64_9.3.0/ARMTools/bin/../lib/gcc/arm-atollic-eabi/6.3.1/../../../../arm-atollic-eabi/lib/armv6-m/libm.a
END GROUP
                0x0000000020000000                _MEMORY_RAM_BEGIN_ = 0x20000000
                0x0000000000006000                _MEMORY_RAM_SIZE_ = 0x6000
                0x0000000020005fff                _MEMORY_RAM_END_ = 0x20005fff
                0x0000000010040000                _MEMORY_FLASH_BEGIN_ = 0x10040000
                0x0000000000040000                _MEMORY_FLASH_SIZE_ = 0x40000
                0x000000001007ffff                _MEMORY_FLASH_END_ = 0x1007ffff
                0x0000000010000000                _MEMORY_ROM_BEGIN_ = 0x10000000
                0x0000000000000800                _MEMORY_ROM_SIZE_ = 0x800
                0x00000000100007ff                _MEMORY_ROM_END_ = 0x100007ff
                0x0000000000001000                FLASH_NVM_DATASIZE = 0x1000
                0x0000000000000000                MEMORY_FLASH_APP_OFFSET = DEFINED (MEMORY_FLASH_APP_OFFSET)?MEMORY_FLASH_APP_OFFSET:0x0
                0x000000000003f000                MEMORY_FLASH_APP_SIZE = DEFINED (MEMORY_FLASH_APP_SIZE)?MEMORY_FLASH_APP_SIZE:((_MEMORY_FLASH_SIZE_ - FLASH_NVM_DATASIZE) - MEMORY_FLASH_APP_OFFSET)
                0x00000000000002cc                MEMORY_RAM_APP_OFFSET = DEFINED (MEMORY_RAM_APP_OFFSET)?MEMORY_RAM_APP_OFFSET:0x2cc
                0x0000000000000800                RESET_MANAGER_SIZE = DEFINED (RESET_MANAGER_SIZE)?RESET_MANAGER_SIZE:0x800
                [0x000000000003f000]                MEMORY_FLASH_APP_SIZE = DEFINED (ST_OTA_HIGHER_APPLICATION)?(((((_MEMORY_FLASH_SIZE_ - RESET_MANAGER_SIZE) - FLASH_NVM_DATASIZE) / 0x2) / 0x800) * 0x800):MEMORY_FLASH_APP_SIZE
                [0x0000000000000000]                MEMORY_FLASH_APP_OFFSET = DEFINED (ST_OTA_HIGHER_APPLICATION)?(RESET_MANAGER_SIZE + MEMORY_FLASH_APP_SIZE):MEMORY_FLASH_APP_OFFSET
                [0x000000000003f000]                MEMORY_FLASH_APP_SIZE = DEFINED (ST_OTA_LOWER_APPLICATION)?(((((_MEMORY_FLASH_SIZE_ - RESET_MANAGER_SIZE) - FLASH_NVM_DATASIZE) / 0x2) / 0x800) * 0x800):MEMORY_FLASH_APP_SIZE
                [0x0000000000000000]                MEMORY_FLASH_APP_OFFSET = DEFINED (ST_OTA_LOWER_APPLICATION)?RESET_MANAGER_SIZE:MEMORY_FLASH_APP_OFFSET
                0x0000000000011800                SERVICE_MANAGER_SIZE = 0x11800
                [0x000000000003f000]                MEMORY_FLASH_APP_SIZE = DEFINED (ST_USE_OTA_SERVICE_MANAGER_APPLICATION)?((_MEMORY_FLASH_SIZE_ - SERVICE_MANAGER_SIZE) - FLASH_NVM_DATASIZE):MEMORY_FLASH_APP_SIZE
                [0x0000000000000000]                MEMORY_FLASH_APP_OFFSET = DEFINED (ST_USE_OTA_SERVICE_MANAGER_APPLICATION)?SERVICE_MANAGER_SIZE:MEMORY_FLASH_APP_OFFSET
                0x0000000000000000                _Min_Heap_Size = 0x0
                0x0000000000000c00                _Min_Stack_Size = 0xc00

.bootloader     0x0000000010040000        0x0
                0x0000000010040000                . = ALIGN (0x4)
 *(.bootloader)
                0x0000000010040000                . = ALIGN (0x4)

.intvec         0x0000000010040000       0xc0
                0x0000000010040000                . = ALIGN (0x4)
 *(.intvec)
 .intvec        0x0000000010040000       0xc0 Startup/system_bluenrg1.o
                0x0000000010040000                __vector_table
                0x00000000100400c0                . = ALIGN (0x4)

.text           0x00000000100400c0    0x200e4
                0x00000000100400c0                . = ALIGN (0x4)
 *(.cmd_call_table)
 *(.text)
 .text          0x00000000100400c0       0x9c Hal/context_switch.o
                0x00000000100400c0                CS_contextSave
                0x0000000010040112                CS_contextRestore
 .text          0x000000001004015c      0x114 /opt/Atollic_TrueSTUDIO_for_STM32_x86_64_9.3.0/ARMTools/bin/../lib/gcc/arm-atollic-eabi/6.3.1/armv6-m/libgcc.a(_udivsi3.o)
                0x000000001004015c                __udivsi3
                0x000000001004015c                __aeabi_uidiv
                0x0000000010040268                __aeabi_uidivmod
 .text          0x0000000010040270      0x1d4 /opt/Atollic_TrueSTUDIO_for_STM32_x86_64_9.3.0/ARMTools/bin/../lib/gcc/arm-atollic-eabi/6.3.1/armv6-m/libgcc.a(_divsi3.o)
                0x0000000010040270                __aeabi_idiv
                0x0000000010040270                __divsi3
                0x000000001004043c                __aeabi_idivmod
 .text          0x0000000010040444        0x4 /opt/Atollic_TrueSTUDIO_for_STM32_x86_64_9.3.0/ARMTools/bin/../lib/gcc/arm-atollic-eabi/6.3.1/armv6-m/libgcc.a(_dvmd_tls.o)
                0x0000000010040444                __aeabi_ldiv0
                0x0000000010040444                __aeabi_idiv0
 .text          0x0000000010040448       0x74 /opt/Atollic_TrueSTUDIO_for_STM32_x86_64_9.3.0/ARMTools/bin/../lib/gcc/arm-atollic-eabi/6.3.1/armv6-m/libgcc.a(unaligned-funcs.o)
                0x0000000010040448                __aeabi_uread4
                0x0000000010040460                __aeabi_uwrite4
                0x0000000010040470                __aeabi_uread8
                0x000000001004049c                __aeabi_uwrite8
 *(.text*)
 .text._fifo_get
                0x00000000100404bc       0x48 Hal/fifo.o
 .text.fifo_init
                0x0000000010040504       0x10 Hal/fifo.o
                0x0000000010040504                fifo_init
 .text.fifo_size
                0x0000000010040514       0x16 Hal/fifo.o
                0x0000000010040514                fifo_size
 .text.fifo_flush
                0x000000001004052a        0x8 Hal/fifo.o
                0x000000001004052a                fifo_flush
 .text.fifo_get
                0x0000000010040532        0xa Hal/fifo.o
                0x0000000010040532                fifo_get
 .text.fifo_put_var_len_item
                0x000000001004053c       0x6c Hal/fifo.o
                0x000000001004053c                fifo_put_var_len_item
 .text.fifo_discard
                0x00000000100405a8       0x36 Hal/fifo.o
                0x00000000100405a8                fifo_discard
 .text.fifo_get_ptr
                0x00000000100405de       0x32 Hal/fifo.o
                0x00000000100405de                fifo_get_ptr
 .text.fifo_get_var_len_item
                0x0000000010040610       0x28 Hal/fifo.o
                0x0000000010040610                fifo_get_var_len_item
 .text.fifo_get_ptr_var_len_item
                0x0000000010040638       0x18 Hal/fifo.o
                0x0000000010040638                fifo_get_ptr_var_len_item
 .text.fifo_discard_var_len_item
                0x0000000010040650       0x1e Hal/fifo.o
                0x0000000010040650                fifo_discard_var_len_item
 *fill*         0x000000001004066e        0x2 
 .text.HAL_GetPartInfo
                0x0000000010040670       0x64 Hal/miscutil.o
                0x0000000010040670                HAL_GetPartInfo
 .text.HAL_GetCrashInfo
                0x00000000100406d4       0x1c Hal/miscutil.o
                0x00000000100406d4                HAL_GetCrashInfo
 .text.HAL_CrashHandler
                0x00000000100406f0       0x70 Hal/miscutil.o
                0x00000000100406f0                HAL_CrashHandler
 .text.BLEPLAT_get_part_info
                0x0000000010040760       0x22 Hal/miscutil.o
                0x0000000010040760                BLEPLAT_get_part_info
 .text.Osal_MemCpy
                0x0000000010040782        0x8 Hal/osal.o
                0x0000000010040782                Osal_MemCpy
 .text.Osal_MemSet
                0x000000001004078a        0x8 Hal/osal.o
                0x000000001004078a                Osal_MemSet
 .text.Osal_MemCmp
                0x0000000010040792        0x8 Hal/osal.o
                0x0000000010040792                Osal_MemCmp
 .text.HAL_VTIMER_TimerSleepCheck
                0x000000001004079a        0x4 Hal/sleep.o
                0x000000001004079a                HAL_VTIMER_TimerSleepCheck
 *fill*         0x000000001004079e        0x2 
 .text.BlueNRG_Sleep
                0x00000000100407a0      0x990 Hal/sleep.o
                0x00000000100407a0                BlueNRG_Sleep
 .text.DMA_Init
                0x0000000010041130       0x3c Library/BlueNRG1_dma.o
                0x0000000010041130                DMA_Init
 .text.DMA_StructInit
                0x000000001004116c       0x1a Library/BlueNRG1_dma.o
                0x000000001004116c                DMA_StructInit
 .text.DMA_Cmd  0x0000000010041186       0x14 Library/BlueNRG1_dma.o
                0x0000000010041186                DMA_Cmd
 .text.DMA_FlagConfig
                0x000000001004119a       0x12 Library/BlueNRG1_dma.o
                0x000000001004119a                DMA_FlagConfig
 .text.DMA_GetFlagStatus
                0x00000000100411ac       0x10 Library/BlueNRG1_dma.o
                0x00000000100411ac                DMA_GetFlagStatus
 .text.DMA_ClearFlag
                0x00000000100411bc        0x8 Library/BlueNRG1_dma.o
                0x00000000100411bc                DMA_ClearFlag
 .text.FLASH_WaitCmdDone
                0x00000000100411c4       0x10 Library/BlueNRG1_flash.o
                0x00000000100411c4                FLASH_WaitCmdDone
 .text.FLASH_ErasePage
                0x00000000100411d4       0x30 Library/BlueNRG1_flash.o
                0x00000000100411d4                FLASH_ErasePage
 .text.FLASH_ProgramWord
                0x0000000010041204       0x30 Library/BlueNRG1_flash.o
                0x0000000010041204                FLASH_ProgramWord
 .text.GPIO_Init
                0x0000000010041234       0xde Library/BlueNRG1_gpio.o
                0x0000000010041234                GPIO_Init
 .text.GPIO_StructInit
                0x0000000010041312        0xc Library/BlueNRG1_gpio.o
                0x0000000010041312                GPIO_StructInit
 .text.rev_memcmp.constprop.0
                0x000000001004131e       0x16 Library/BlueNRG1_pka.o
 .text.PKA_Reset
                0x0000000010041334       0x14 Library/BlueNRG1_pka.o
                0x0000000010041334                PKA_Reset
 .text.PKA_StartProcessing
                0x0000000010041348       0x14 Library/BlueNRG1_pka.o
                0x0000000010041348                PKA_StartProcessing
 .text.PKA_GetProcessStatus
                0x000000001004135c        0xc Library/BlueNRG1_pka.o
                0x000000001004135c                PKA_GetProcessStatus
 .text.PKA_VerifyProcess
                0x0000000010041368       0x20 Library/BlueNRG1_pka.o
                0x0000000010041368                PKA_VerifyProcess
 .text.PKA_SetData
                0x0000000010041388       0xbc Library/BlueNRG1_pka.o
                0x0000000010041388                PKA_SetData
 .text.PKA_GetData
                0x0000000010041444       0x3c Library/BlueNRG1_pka.o
                0x0000000010041444                PKA_GetData
 .text.SysCtrl_PeripheralClockCmd
                0x0000000010041480       0x18 Library/BlueNRG1_sysCtrl.o
                0x0000000010041480                SysCtrl_PeripheralClockCmd
 .text.SysCtrl_GetWakeupResetReason
                0x0000000010041498       0xac Library/BlueNRG1_sysCtrl.o
                0x0000000010041498                SysCtrl_GetWakeupResetReason
 .text.UART_Cmd
                0x0000000010041544       0x1c Library/BlueNRG1_uart.o
                0x0000000010041544                UART_Cmd
 .text.UART_Init
                0x0000000010041560      0x150 Library/BlueNRG1_uart.o
                0x0000000010041560                UART_Init
 .text.UART_StructInit
                0x00000000100416b0       0x1a Library/BlueNRG1_uart.o
                0x00000000100416b0                UART_StructInit
 *fill*         0x00000000100416ca        0x2 
 .text.UART_ITConfig
                0x00000000100416cc       0x18 Library/BlueNRG1_uart.o
                0x00000000100416cc                UART_ITConfig
 .text.UART_ReceiveData
                0x00000000100416e4        0xc Library/BlueNRG1_uart.o
                0x00000000100416e4                UART_ReceiveData
 .text.UART_GetFlagStatus
                0x00000000100416f0       0x1c Library/BlueNRG1_uart.o
                0x00000000100416f0                UART_GetFlagStatus
 .text.UART_GetITStatus
                0x000000001004170c       0x14 Library/BlueNRG1_uart.o
                0x000000001004170c                UART_GetITStatus
 .text.UART_ClearITPendingBit
                0x0000000010041720        0xc Library/BlueNRG1_uart.o
                0x0000000010041720                UART_ClearITPendingBit
 .text.UART_DMACmd
                0x000000001004172c       0x18 Library/BlueNRG1_uart.o
                0x000000001004172c                UART_DMACmd
 .text.WDG_SetReload
                0x0000000010041744        0xc Library/BlueNRG1_wdg.o
                0x0000000010041744                WDG_SetReload
 .text.WDG_Enable
                0x0000000010041750       0x18 Library/BlueNRG1_wdg.o
                0x0000000010041750                WDG_Enable
 .text.NVIC_Init
                0x0000000010041768       0x90 Library/misc.o
                0x0000000010041768                NVIC_Init
 .text.SystemSleepCmd
                0x00000000100417f8       0x1c Library/misc.o
                0x00000000100417f8                SystemSleepCmd
 .text.SysTick_State
                0x0000000010041814       0x1c Library/misc.o
                0x0000000010041814                SysTick_State
 .text.aci_gap_add_devices_to_resolving_list
                0x0000000010041830        0x8 Stack/stack_user_cfg.o
                0x0000000010041830                aci_gap_add_devices_to_resolving_list
 .text.hci_le_remove_device_from_resolving_list
                0x0000000010041838        0x8 Stack/stack_user_cfg.o
                0x0000000010041838                hci_le_remove_device_from_resolving_list
 .text.hci_le_add_device_to_resolving_list
                0x0000000010041840        0x8 Stack/stack_user_cfg.o
                0x0000000010041840                hci_le_add_device_to_resolving_list
 .text.hci_le_set_resolvable_private_address_timeout
                0x0000000010041848        0x8 Stack/stack_user_cfg.o
                0x0000000010041848                hci_le_set_resolvable_private_address_timeout
 .text.hci_le_set_address_resolution_enable
                0x0000000010041850        0x8 Stack/stack_user_cfg.o
                0x0000000010041850                hci_le_set_address_resolution_enable
 .text.hci_le_read_peer_resolvable_address
                0x0000000010041858        0x8 Stack/stack_user_cfg.o
                0x0000000010041858                hci_le_read_peer_resolvable_address
 .text.hci_le_read_local_resolvable_address
                0x0000000010041860        0x8 Stack/stack_user_cfg.o
                0x0000000010041860                hci_le_read_local_resolvable_address
 .text.hci_le_read_resolving_list_size
                0x0000000010041868        0x8 Stack/stack_user_cfg.o
                0x0000000010041868                hci_le_read_resolving_list_size
 .text.hci_le_clear_resolving_list
                0x0000000010041870        0x8 Stack/stack_user_cfg.o
                0x0000000010041870                hci_le_clear_resolving_list
 .text.PRIV_vGeneratePrivateAddress_ucfg
                0x0000000010041878        0x8 Stack/stack_user_cfg.o
                0x0000000010041878                PRIV_vGeneratePrivateAddress_ucfg
 .text.PRIV_u32ProcessAdvPacket_ucfg
                0x0000000010041880        0x8 Stack/stack_user_cfg.o
                0x0000000010041880                PRIV_u32ProcessAdvPacket_ucfg
 .text.PRIV_u8OfflineProcessing_ucfg
                0x0000000010041888        0x8 Stack/stack_user_cfg.o
                0x0000000010041888                PRIV_u8OfflineProcessing_ucfg
 .text.PRIV_vGenerate_hci_le_enhanced_connection_complete_event_ucfg
                0x0000000010041890       0x1e Stack/stack_user_cfg.o
                0x0000000010041890                PRIV_vGenerate_hci_le_enhanced_connection_complete_event_ucfg
 .text.PRIV_vGenerate_hci_le_direct_advertising_report_event_ucfg
                0x00000000100418ae       0x1a Stack/stack_user_cfg.o
                0x00000000100418ae                PRIV_vGenerate_hci_le_direct_advertising_report_event_ucfg
 .text.GAP_enable_controller_privacy_ucfg
                0x00000000100418c8        0x8 Stack/stack_user_cfg.o
                0x00000000100418c8                GAP_enable_controller_privacy_ucfg
 .text.LL_Encrypt_Plain_Data_ucfg
                0x00000000100418d0        0x8 Stack/stack_user_cfg.o
                0x00000000100418d0                LL_Encrypt_Plain_Data_ucfg
 .text.PRIV_controller_privacy_csr_ucfg
                0x00000000100418d8        0x4 Stack/stack_user_cfg.o
                0x00000000100418d8                PRIV_controller_privacy_csr_ucfg
 .text.aci_gap_start_auto_connection_establish_proc
                0x00000000100418dc       0x40 Stack/stack_user_cfg.o
                0x00000000100418dc                aci_gap_start_auto_connection_establish_proc
 .text.aci_gap_start_general_connection_establish_proc
                0x000000001004191c       0x14 Stack/stack_user_cfg.o
                0x000000001004191c                aci_gap_start_general_connection_establish_proc
 .text.aci_gap_start_selective_connection_establish_proc
                0x0000000010041930       0x22 Stack/stack_user_cfg.o
                0x0000000010041930                aci_gap_start_selective_connection_establish_proc
 .text.aci_gap_create_connection
                0x0000000010041952       0x42 Stack/stack_user_cfg.o
                0x0000000010041952                aci_gap_create_connection
 .text.aci_gap_start_connection_update
                0x0000000010041994       0x1c Stack/stack_user_cfg.o
                0x0000000010041994                aci_gap_start_connection_update
 .text.aci_gap_terminate_gap_proc
                0x00000000100419b0        0x8 Stack/stack_user_cfg.o
                0x00000000100419b0                aci_gap_terminate_gap_proc
 .text.aci_gap_start_limited_discovery_proc
                0x00000000100419b8        0x8 Stack/stack_user_cfg.o
                0x00000000100419b8                aci_gap_start_limited_discovery_proc
 .text.aci_gap_start_general_discovery_proc
                0x00000000100419c0        0x8 Stack/stack_user_cfg.o
                0x00000000100419c0                aci_gap_start_general_discovery_proc
 .text.aci_gap_start_name_discovery_proc
                0x00000000100419c8       0x42 Stack/stack_user_cfg.o
                0x00000000100419c8                aci_gap_start_name_discovery_proc
 .text.aci_gap_start_observation_proc
                0x0000000010041a0a       0x14 Stack/stack_user_cfg.o
                0x0000000010041a0a                aci_gap_start_observation_proc
 .text.aci_gap_send_pairing_req
                0x0000000010041a1e        0x8 Stack/stack_user_cfg.o
                0x0000000010041a1e                aci_gap_send_pairing_req
 .text.aci_l2cap_connection_parameter_update_resp
                0x0000000010041a26       0x2e Stack/stack_user_cfg.o
                0x0000000010041a26                aci_l2cap_connection_parameter_update_resp
 .text.hci_le_create_connection
                0x0000000010041a54       0x4a Stack/stack_user_cfg.o
                0x0000000010041a54                hci_le_create_connection
 .text.hci_le_create_connection_cancel
                0x0000000010041a9e        0x8 Stack/stack_user_cfg.o
                0x0000000010041a9e                hci_le_create_connection_cancel
 .text.hci_le_connection_update
                0x0000000010041aa6       0x1c Stack/stack_user_cfg.o
                0x0000000010041aa6                hci_le_connection_update
 .text.hci_le_set_scan_parameters
                0x0000000010041ac2        0xe Stack/stack_user_cfg.o
                0x0000000010041ac2                hci_le_set_scan_parameters
 .text.hci_le_set_scan_enable
                0x0000000010041ad0        0x8 Stack/stack_user_cfg.o
                0x0000000010041ad0                hci_le_set_scan_enable
 .text.hci_le_start_encryption
                0x0000000010041ad8        0x8 Stack/stack_user_cfg.o
                0x0000000010041ad8                hci_le_start_encryption
 .text.hci_le_set_host_channel_classification
                0x0000000010041ae0        0x8 Stack/stack_user_cfg.o
                0x0000000010041ae0                hci_le_set_host_channel_classification
 .text.GAP_DiscProcTimeoutcb_ucfg
                0x0000000010041ae8        0x8 Stack/stack_user_cfg.o
                0x0000000010041ae8                GAP_DiscProcTimeoutcb_ucfg
 .text.cancel_connect_master_ucfg
                0x0000000010041af0        0x8 Stack/stack_user_cfg.o
                0x0000000010041af0                cancel_connect_master_ucfg
 .text.isr_event_handler_scan_data_ucfg
                0x0000000010041af8        0x8 Stack/stack_user_cfg.o
                0x0000000010041af8                isr_event_handler_scan_data_ucfg
 .text.Reclassify_All_Channels_ucfg
                0x0000000010041b00        0x8 Stack/stack_user_cfg.o
                0x0000000010041b00                Reclassify_All_Channels_ucfg
 .text.GAP_check_and_set_role_ucfg
                0x0000000010041b08        0x8 Stack/stack_user_cfg.o
                0x0000000010041b08                GAP_check_and_set_role_ucfg
 .text.GAP_discover_peer_name_ucfg
                0x0000000010041b10        0x8 Stack/stack_user_cfg.o
                0x0000000010041b10                GAP_discover_peer_name_ucfg
 .text.state_func_call_init_csr_ucfg
                0x0000000010041b18        0x8 Stack/stack_user_cfg.o
                0x0000000010041b18                state_func_call_init_csr_ucfg
 .text.master_csr_ucfg
                0x0000000010041b20        0x4 Stack/stack_user_cfg.o
                0x0000000010041b20                master_csr_ucfg
 .text.smp_MI_Start_Encryption_ucfg
                0x0000000010041b24        0x8 Stack/stack_user_cfg.o
                0x0000000010041b24                smp_MI_Start_Encryption_ucfg
 .text.smp_Execute_Actions_wrt_Current_State_MI_excerpt_ucfg
                0x0000000010041b2c        0x8 Stack/stack_user_cfg.o
                0x0000000010041b2c                smp_Execute_Actions_wrt_Current_State_MI_excerpt_ucfg
 .text.smp_Process_Rx_Packet_wrt_Current_State_MI_excerpt_ucfg
                0x0000000010041b34        0x8 Stack/stack_user_cfg.o
                0x0000000010041b34                smp_Process_Rx_Packet_wrt_Current_State_MI_excerpt_ucfg
 .text.smp_Execute_Actions_wrt_Current_State_sc_MI_excerpt_phase2as2_ucfg
                0x0000000010041b3c        0x8 Stack/stack_user_cfg.o
                0x0000000010041b3c                smp_Execute_Actions_wrt_Current_State_sc_MI_excerpt_phase2as2_ucfg
 .text.hci_le_set_data_length
                0x0000000010041b44        0x8 Stack/stack_user_cfg.o
                0x0000000010041b44                hci_le_set_data_length
 .text.hci_le_read_suggested_default_data_length
                0x0000000010041b4c        0x8 Stack/stack_user_cfg.o
                0x0000000010041b4c                hci_le_read_suggested_default_data_length
 .text.hci_le_write_suggested_default_data_length
                0x0000000010041b54        0x8 Stack/stack_user_cfg.o
                0x0000000010041b54                hci_le_write_suggested_default_data_length
 .text.hci_le_read_maximum_data_length
                0x0000000010041b5c        0x8 Stack/stack_user_cfg.o
                0x0000000010041b5c                hci_le_read_maximum_data_length
 .text.Data_Len_Update_Offline_Processing_ucfg
                0x0000000010041b64        0x8 Stack/stack_user_cfg.o
                0x0000000010041b64                Data_Len_Update_Offline_Processing_ucfg
 .text.Data_Length_Update_Control_ISR_ucfg
                0x0000000010041b6c        0x8 Stack/stack_user_cfg.o
                0x0000000010041b6c                Data_Length_Update_Control_ISR_ucfg
 .text.ll_write_supported_data_ucfg
                0x0000000010041b74        0x8 Stack/stack_user_cfg.o
                0x0000000010041b74                ll_write_supported_data_ucfg
 .text.LL_Data_Length_Change_Event_ucfg
                0x0000000010041b7c        0x8 Stack/stack_user_cfg.o
                0x0000000010041b7c                LL_Data_Length_Change_Event_ucfg
 .text.LL_Send_Length_Resp_ucfg
                0x0000000010041b84        0x8 Stack/stack_user_cfg.o
                0x0000000010041b84                LL_Send_Length_Resp_ucfg
 .text.data_length_extension_csr_ucfg
                0x0000000010041b8c        0x4 Stack/stack_user_cfg.o
                0x0000000010041b8c                data_length_extension_csr_ucfg
 .text.aci_gap_passkey_input
                0x0000000010041b90        0x8 Stack/stack_user_cfg.o
                0x0000000010041b90                aci_gap_passkey_input
 .text.aci_gap_numeric_comparison_value_confirm_yesno
                0x0000000010041b98        0x8 Stack/stack_user_cfg.o
                0x0000000010041b98                aci_gap_numeric_comparison_value_confirm_yesno
 .text.hci_le_read_local_p256_public_key
                0x0000000010041ba0        0x8 Stack/stack_user_cfg.o
                0x0000000010041ba0                hci_le_read_local_p256_public_key
 .text.hci_le_generate_dhkey
                0x0000000010041ba8        0x8 Stack/stack_user_cfg.o
                0x0000000010041ba8                hci_le_generate_dhkey
 .text.PKA_Offline_Processing_ucfg
                0x0000000010041bb0        0x8 Stack/stack_user_cfg.o
                0x0000000010041bb0                PKA_Offline_Processing_ucfg
 .text.smp_sc_init_ucfg
                0x0000000010041bb8        0x8 Stack/stack_user_cfg.o
                0x0000000010041bb8                smp_sc_init_ucfg
 .text.smp_sc_continue_on_exclusive_sc_pairing_ucfg
                0x0000000010041bc0        0x8 Stack/stack_user_cfg.o
                0x0000000010041bc0                smp_sc_continue_on_exclusive_sc_pairing_ucfg
 .text.smp_sc_check_for_ecc_pk_generation_request_ucfg
                0x0000000010041bc8        0x8 Stack/stack_user_cfg.o
                0x0000000010041bc8                smp_sc_check_for_ecc_pk_generation_request_ucfg
 .text.smp_sc_generate_new_local_oob_data_ucfg
                0x0000000010041bd0        0x8 Stack/stack_user_cfg.o
                0x0000000010041bd0                smp_sc_generate_new_local_oob_data_ucfg
 .text.smp_sc_update_statistics_on_pairing_complete_ucfg
                0x0000000010041bd8        0x8 Stack/stack_user_cfg.o
                0x0000000010041bd8                smp_sc_update_statistics_on_pairing_complete_ucfg
 .text.secure_connections_csr_ucfg
                0x0000000010041be0        0x4 Stack/stack_user_cfg.o
                0x0000000010041be0                secure_connections_csr_ucfg
 .text.smp_sc_hci_le_read_local_p256_public_key_complete_evt_hndl_ucfg
                0x0000000010041be4        0x8 Stack/stack_user_cfg.o
                0x0000000010041be4                smp_sc_hci_le_read_local_p256_public_key_complete_evt_hndl_ucfg
 .text.smp_sc_hci_le_generate_dhkey_complete_evt_hndl_ucfg
                0x0000000010041bec        0x8 Stack/stack_user_cfg.o
                0x0000000010041bec                smp_sc_hci_le_generate_dhkey_complete_evt_hndl_ucfg
 .text.smp_sc_MI_PairingResponse_Receive_sc_excerpt_ucfg
                0x0000000010041bf4        0x8 Stack/stack_user_cfg.o
                0x0000000010041bf4                smp_sc_MI_PairingResponse_Receive_sc_excerpt_ucfg
 .text.smp_sc_MI_Pairing_Phase_2AS1_Start_sc_excerpt_ucfg
                0x0000000010041bfc        0x8 Stack/stack_user_cfg.o
                0x0000000010041bfc                smp_sc_MI_Pairing_Phase_2AS1_Start_sc_excerpt_ucfg
 .text.smp_sc_SR_Pairing_Phase_2AS1_Start_sc_excerpt_ucfg
                0x0000000010041c04        0x8 Stack/stack_user_cfg.o
                0x0000000010041c04                smp_sc_SR_Pairing_Phase_2AS1_Start_sc_excerpt_ucfg
 .text.smp_sc_MI_PairingConfirm_Send_sc_excerpt_ucfg
                0x0000000010041c0c        0x8 Stack/stack_user_cfg.o
                0x0000000010041c0c                smp_sc_MI_PairingConfirm_Send_sc_excerpt_ucfg
 .text.smp_sc_MI_PairingRandom_Receive_sc_excerpt1_ucfg
                0x0000000010041c14        0x8 Stack/stack_user_cfg.o
                0x0000000010041c14                smp_sc_MI_PairingRandom_Receive_sc_excerpt1_ucfg
 .text.smp_sc_MI_PairingRandom_Receive_sc_excerpt2_ucfg
                0x0000000010041c1c        0x8 Stack/stack_user_cfg.o
                0x0000000010041c1c                smp_sc_MI_PairingRandom_Receive_sc_excerpt2_ucfg
 .text.smp_sc_SR_PairingConfirm_Receive_sc_excerpt_ucfg
                0x0000000010041c24        0x8 Stack/stack_user_cfg.o
                0x0000000010041c24                smp_sc_SR_PairingConfirm_Receive_sc_excerpt_ucfg
 .text.smp_sc_SR_PairingRandom_Receive_sc_excerpt_ucfg
                0x0000000010041c2c        0x8 Stack/stack_user_cfg.o
                0x0000000010041c2c                smp_sc_SR_PairingRandom_Receive_sc_excerpt_ucfg
 .text.smp_Execute_Actions_wrt_Current_State_sc_excerpt_phase_1_to_2_ucfg
                0x0000000010041c34        0x8 Stack/stack_user_cfg.o
                0x0000000010041c34                smp_Execute_Actions_wrt_Current_State_sc_excerpt_phase_1_to_2_ucfg
 .text.smp_Execute_Actions_wrt_Current_State_sc_excerpt_phase2as2_ucfg
                0x0000000010041c3c        0x8 Stack/stack_user_cfg.o
                0x0000000010041c3c                smp_Execute_Actions_wrt_Current_State_sc_excerpt_phase2as2_ucfg
 .text.smp_Process_Rx_Packet_wrt_Current_State_sc_excerpt_ucfg
                0x0000000010041c44        0x8 Stack/stack_user_cfg.o
                0x0000000010041c44                smp_Process_Rx_Packet_wrt_Current_State_sc_excerpt_ucfg
 .text.smp_Process_Rx_Packet_Exception_Cases_sc_excerpt_ucfg
                0x0000000010041c4c        0x8 Stack/stack_user_cfg.o
                0x0000000010041c4c                smp_Process_Rx_Packet_Exception_Cases_sc_excerpt_ucfg
 .text.PKA_Handler
                0x0000000010041c54        0x2 Startup/system_bluenrg1.o
                0x0000000010041c54                PKA_Handler
 .text.PendSV_Handler
                0x0000000010041c56        0x2 Startup/system_bluenrg1.o
                0x0000000010041c56                PendSV_Handler
 .text.GPIO_Handler
                0x0000000010041c58        0x2 Startup/system_bluenrg1.o
                0x0000000010041c58                GPIO_Handler
 .text.NVM_Handler
                0x0000000010041c5a        0x2 Startup/system_bluenrg1.o
                0x0000000010041c5a                NVM_Handler
 .text.SPI_Handler
                0x0000000010041c5c        0x2 Startup/system_bluenrg1.o
                0x0000000010041c5c                SPI_Handler
 .text.MFT1A_Handler
                0x0000000010041c5e        0x2 Startup/system_bluenrg1.o
                0x0000000010041c5e                MFT1A_Handler
 .text.MFT1B_Handler
                0x0000000010041c60        0x2 Startup/system_bluenrg1.o
                0x0000000010041c60                MFT1B_Handler
 .text.MFT2A_Handler
                0x0000000010041c62        0x2 Startup/system_bluenrg1.o
                0x0000000010041c62                MFT2A_Handler
 .text.MFT2B_Handler
                0x0000000010041c64        0x2 Startup/system_bluenrg1.o
                0x0000000010041c64                MFT2B_Handler
 .text.RTC_Handler
                0x0000000010041c66        0x2 Startup/system_bluenrg1.o
                0x0000000010041c66                RTC_Handler
 .text.WDG_Handler
                0x0000000010041c68        0x2 Startup/system_bluenrg1.o
                0x0000000010041c68                WDG_Handler
 .text.ADC_Handler
                0x0000000010041c6a        0x2 Startup/system_bluenrg1.o
                0x0000000010041c6a                ADC_Handler
 .text.I2C2_Handler
                0x0000000010041c6c        0x2 Startup/system_bluenrg1.o
                0x0000000010041c6c                I2C2_Handler
 .text.I2C1_Handler
                0x0000000010041c6e        0x2 Startup/system_bluenrg1.o
                0x0000000010041c6e                I2C1_Handler
 .text.Set_RF_FrontEnd
                0x0000000010041c70       0x4c Startup/system_bluenrg1.o
                0x0000000010041c70                Set_RF_FrontEnd
 .text.BOR_ConfigSave
                0x0000000010041cbc       0x48 Startup/system_bluenrg1.o
                0x0000000010041cbc                BOR_ConfigSave
 .text.SET_BORconfigStatus
                0x0000000010041d04       0x48 Startup/system_bluenrg1.o
                0x0000000010041d04                SET_BORconfigStatus
 .text.__low_level_init
                0x0000000010041d4c       0xbc Startup/system_bluenrg1.o
                0x0000000010041d4c                __low_level_init
 .text.RESET_HANDLER
                0x0000000010041e08       0x8c Startup/system_bluenrg1.o
                0x0000000010041e08                RESET_HANDLER
 .text.DeviceConfiguration
                0x0000000010041e94      0x134 Startup/system_bluenrg1.o
                0x0000000010041e94                DeviceConfiguration
 .text.NMI_Handler
                0x0000000010041fc8       0x10 User/BlueNRG1_it.o
                0x0000000010041fc8                NMI_Handler
 .text.HardFault_Handler
                0x0000000010041fd8       0x10 User/BlueNRG1_it.o
                0x0000000010041fd8                HardFault_Handler
 .text.SVC_Handler
                0x0000000010041fe8        0x2 User/BlueNRG1_it.o
                0x0000000010041fe8                SVC_Handler
 *fill*         0x0000000010041fea        0x2 
 .text.SysTick_Handler
                0x0000000010041fec       0x10 User/BlueNRG1_it.o
                0x0000000010041fec                SysTick_Handler
 .text.UART_Handler
                0x0000000010041ffc       0x32 User/BlueNRG1_it.o
                0x0000000010041ffc                UART_Handler
 *fill*         0x000000001004202e        0x2 
 .text.DMA_Handler
                0x0000000010042030       0x30 User/BlueNRG1_it.o
                0x0000000010042030                DMA_Handler
 .text.Blue_Handler
                0x0000000010042060       0x14 User/BlueNRG1_it.o
                0x0000000010042060                Blue_Handler
 .text.DTM_SystemInit
                0x0000000010042074      0x1e0 User/DTM_boot.o
                0x0000000010042074                DTM_SystemInit
 .text.DTM_StackInit
                0x0000000010042254       0x8c User/DTM_boot.o
                0x0000000010042254                DTM_StackInit
 .text.hci_read_transmit_power_level_process
                0x00000000100422e0       0x52 User/DTM_cmd_db.o
                0x00000000100422e0                hci_read_transmit_power_level_process
 .text.hci_read_local_version_information_process
                0x0000000010042332       0x9e User/DTM_cmd_db.o
                0x0000000010042332                hci_read_local_version_information_process
 .text.hci_read_rssi_process
                0x00000000100423d0       0x50 User/DTM_cmd_db.o
                0x00000000100423d0                hci_read_rssi_process
 .text.hci_le_read_buffer_size_process
                0x0000000010042420       0x46 User/DTM_cmd_db.o
                0x0000000010042420                hci_le_read_buffer_size_process
 .text.hci_le_read_advertising_channel_tx_power_process
                0x0000000010042466       0x38 User/DTM_cmd_db.o
                0x0000000010042466                hci_le_read_advertising_channel_tx_power_process
 .text.hci_le_read_white_list_size_process
                0x000000001004249e       0x38 User/DTM_cmd_db.o
                0x000000001004249e                hci_le_read_white_list_size_process
 .text.hci_le_test_end_process
                0x00000000100424d6       0x3c User/DTM_cmd_db.o
                0x00000000100424d6                hci_le_test_end_process
 .text.hci_le_read_suggested_default_data_length_process
                0x0000000010042512       0x4a User/DTM_cmd_db.o
                0x0000000010042512                hci_le_read_suggested_default_data_length_process
 .text.hci_le_read_resolving_list_size_process
                0x000000001004255c       0x38 User/DTM_cmd_db.o
                0x000000001004255c                hci_le_read_resolving_list_size_process
 .text.hci_le_read_maximum_data_length_process
                0x0000000010042594       0x68 User/DTM_cmd_db.o
                0x0000000010042594                hci_le_read_maximum_data_length_process
 .text.aci_hal_get_fw_build_number_process
                0x00000000100425fc       0x3c User/DTM_cmd_db.o
                0x00000000100425fc                aci_hal_get_fw_build_number_process
 .text.aci_hal_get_firmware_details_process
                0x0000000010042638      0x10c User/DTM_cmd_db.o
                0x0000000010042638                aci_hal_get_firmware_details_process
 .text.aci_hal_read_config_data_process
                0x0000000010042744       0x5e User/DTM_cmd_db.o
                0x0000000010042744                aci_hal_read_config_data_process
 .text.aci_hal_le_tx_test_packet_number_process
                0x00000000100427a2       0x4e User/DTM_cmd_db.o
                0x00000000100427a2                aci_hal_le_tx_test_packet_number_process
 .text.aci_hal_get_anchor_period_process
                0x00000000100427f0       0x70 User/DTM_cmd_db.o
                0x00000000100427f0                aci_hal_get_anchor_period_process
 .text.aci_gap_set_limited_discoverable_process
                0x0000000010042860       0x92 User/DTM_cmd_db.o
                0x0000000010042860                aci_gap_set_limited_discoverable_process
 .text.aci_gap_set_discoverable_process
                0x00000000100428f2       0x92 User/DTM_cmd_db.o
                0x00000000100428f2                aci_gap_set_discoverable_process
 .text.aci_gap_init_process
                0x0000000010042984       0x66 User/DTM_cmd_db.o
                0x0000000010042984                aci_gap_init_process
 .text.aci_gap_get_security_level_process
                0x00000000100429ea       0x4e User/DTM_cmd_db.o
                0x00000000100429ea                aci_gap_get_security_level_process
 .text.aci_gap_set_broadcast_mode_process
                0x0000000010042a38       0x9a User/DTM_cmd_db.o
                0x0000000010042a38                aci_gap_set_broadcast_mode_process
 .text.aci_gap_get_bonded_devices_process
                0x0000000010042ad2       0x80 User/DTM_cmd_db.o
                0x0000000010042ad2                aci_gap_get_bonded_devices_process
 .text.aci_gap_get_oob_data_process
                0x0000000010042b52       0x74 User/DTM_cmd_db.o
                0x0000000010042b52                aci_gap_get_oob_data_process
 .text.aci_gap_add_devices_to_resolving_list_process
                0x0000000010042bc6       0x6e User/DTM_cmd_db.o
                0x0000000010042bc6                aci_gap_add_devices_to_resolving_list_process
 .text.aci_gatt_add_service_process
                0x0000000010042c34       0x74 User/DTM_cmd_db.o
                0x0000000010042c34                aci_gatt_add_service_process
 .text.aci_gatt_include_service_process
                0x0000000010042ca8       0x86 User/DTM_cmd_db.o
                0x0000000010042ca8                aci_gatt_include_service_process
 .text.aci_gatt_add_char_process
                0x0000000010042d2e       0x9e User/DTM_cmd_db.o
                0x0000000010042d2e                aci_gatt_add_char_process
 .text.aci_gatt_add_char_desc_process
                0x0000000010042dcc       0xc8 User/DTM_cmd_db.o
                0x0000000010042dcc                aci_gatt_add_char_desc_process
 .text.aci_gatt_read_handle_value_process
                0x0000000010042e94       0x9a User/DTM_cmd_db.o
                0x0000000010042e94                aci_gatt_read_handle_value_process
 .text.hci_disconnect_process
                0x0000000010042f2e       0x34 User/DTM_cmd_db.o
                0x0000000010042f2e                hci_disconnect_process
 .text.hci_read_remote_version_information_process
                0x0000000010042f62       0x32 User/DTM_cmd_db.o
                0x0000000010042f62                hci_read_remote_version_information_process
 .text.hci_set_event_mask_process
                0x0000000010042f94       0x2c User/DTM_cmd_db.o
                0x0000000010042f94                hci_set_event_mask_process
 .text.hci_reset_process
                0x0000000010042fc0       0x2a User/DTM_cmd_db.o
                0x0000000010042fc0                hci_reset_process
 .text.hci_read_local_supported_commands_process
                0x0000000010042fea       0x3c User/DTM_cmd_db.o
                0x0000000010042fea                hci_read_local_supported_commands_process
 .text.hci_read_local_supported_features_process
                0x0000000010043026       0x38 User/DTM_cmd_db.o
                0x0000000010043026                hci_read_local_supported_features_process
 .text.hci_read_bd_addr_process
                0x000000001004305e       0x38 User/DTM_cmd_db.o
                0x000000001004305e                hci_read_bd_addr_process
 .text.hci_le_set_event_mask_process
                0x0000000010043096       0x2c User/DTM_cmd_db.o
                0x0000000010043096                hci_le_set_event_mask_process
 .text.hci_le_read_local_supported_features_process
                0x00000000100430c2       0x38 User/DTM_cmd_db.o
                0x00000000100430c2                hci_le_read_local_supported_features_process
 .text.hci_le_set_random_address_process
                0x00000000100430fa       0x2e User/DTM_cmd_db.o
                0x00000000100430fa                hci_le_set_random_address_process
 .text.hci_le_set_advertising_parameters_process
                0x0000000010043128       0x58 User/DTM_cmd_db.o
                0x0000000010043128                hci_le_set_advertising_parameters_process
 .text.hci_le_set_advertising_data_process
                0x0000000010043180       0x30 User/DTM_cmd_db.o
                0x0000000010043180                hci_le_set_advertising_data_process
 .text.hci_le_set_scan_response_data_process
                0x00000000100431b0       0x30 User/DTM_cmd_db.o
                0x00000000100431b0                hci_le_set_scan_response_data_process
 .text.hci_le_set_advertise_enable_process
                0x00000000100431e0       0x2e User/DTM_cmd_db.o
                0x00000000100431e0                hci_le_set_advertise_enable_process
 .text.hci_le_set_scan_parameters_process
                0x000000001004320e       0x46 User/DTM_cmd_db.o
                0x000000001004320e                hci_le_set_scan_parameters_process
 .text.hci_le_set_scan_enable_process
                0x0000000010043254       0x30 User/DTM_cmd_db.o
                0x0000000010043254                hci_le_set_scan_enable_process
 .text.hci_le_create_connection_process
                0x0000000010043284       0x94 User/DTM_cmd_db.o
                0x0000000010043284                hci_le_create_connection_process
 .text.hci_le_create_connection_cancel_process
                0x0000000010043318       0x28 User/DTM_cmd_db.o
                0x0000000010043318                hci_le_create_connection_cancel_process
 .text.hci_le_clear_white_list_process
                0x0000000010043340       0x2a User/DTM_cmd_db.o
                0x0000000010043340                hci_le_clear_white_list_process
 .text.hci_le_add_device_to_white_list_process
                0x000000001004336a       0x30 User/DTM_cmd_db.o
                0x000000001004336a                hci_le_add_device_to_white_list_process
 .text.hci_le_remove_device_from_white_list_process
                0x000000001004339a       0x30 User/DTM_cmd_db.o
                0x000000001004339a                hci_le_remove_device_from_white_list_process
 .text.hci_le_connection_update_process
                0x00000000100433ca       0x70 User/DTM_cmd_db.o
                0x00000000100433ca                hci_le_connection_update_process
 .text.hci_le_set_host_channel_classification_process
                0x000000001004343a       0x2e User/DTM_cmd_db.o
                0x000000001004343a                hci_le_set_host_channel_classification_process
 .text.hci_le_read_channel_map_process
                0x0000000010043468       0x50 User/DTM_cmd_db.o
                0x0000000010043468                hci_le_read_channel_map_process
 .text.hci_le_read_remote_used_features_process
                0x00000000100434b8       0x34 User/DTM_cmd_db.o
                0x00000000100434b8                hci_le_read_remote_used_features_process
 .text.hci_le_encrypt_process
                0x00000000100434ec       0x3e User/DTM_cmd_db.o
                0x00000000100434ec                hci_le_encrypt_process
 .text.hci_le_rand_process
                0x000000001004352a       0x38 User/DTM_cmd_db.o
                0x000000001004352a                hci_le_rand_process
 .text.hci_le_start_encryption_process
                0x0000000010043562       0x42 User/DTM_cmd_db.o
                0x0000000010043562                hci_le_start_encryption_process
 .text.hci_le_long_term_key_request_reply_process
                0x00000000100435a4       0x46 User/DTM_cmd_db.o
                0x00000000100435a4                hci_le_long_term_key_request_reply_process
 .text.hci_le_long_term_key_requested_negative_reply_process
                0x00000000100435ea       0x44 User/DTM_cmd_db.o
                0x00000000100435ea                hci_le_long_term_key_requested_negative_reply_process
 .text.hci_le_read_supported_states_process
                0x000000001004362e       0x38 User/DTM_cmd_db.o
                0x000000001004362e                hci_le_read_supported_states_process
 .text.hci_le_receiver_test_process
                0x0000000010043666       0x2e User/DTM_cmd_db.o
                0x0000000010043666                hci_le_receiver_test_process
 .text.hci_le_transmitter_test_process
                0x0000000010043694       0x32 User/DTM_cmd_db.o
                0x0000000010043694                hci_le_transmitter_test_process
 .text.hci_le_set_data_length_process
                0x00000000100436c6       0x54 User/DTM_cmd_db.o
                0x00000000100436c6                hci_le_set_data_length_process
 .text.hci_le_write_suggested_default_data_length_process
                0x000000001004371a       0x3c User/DTM_cmd_db.o
                0x000000001004371a                hci_le_write_suggested_default_data_length_process
 .text.hci_le_read_local_p256_public_key_process
                0x0000000010043756       0x2a User/DTM_cmd_db.o
                0x0000000010043756                hci_le_read_local_p256_public_key_process
 .text.hci_le_generate_dhkey_process
                0x0000000010043780       0x2e User/DTM_cmd_db.o
                0x0000000010043780                hci_le_generate_dhkey_process
 .text.hci_le_add_device_to_resolving_list_process
                0x00000000100437ae       0x38 User/DTM_cmd_db.o
                0x00000000100437ae                hci_le_add_device_to_resolving_list_process
 .text.hci_le_remove_device_from_resolving_list_process
                0x00000000100437e6       0x30 User/DTM_cmd_db.o
                0x00000000100437e6                hci_le_remove_device_from_resolving_list_process
 .text.hci_le_clear_resolving_list_process
                0x0000000010043816       0x2a User/DTM_cmd_db.o
                0x0000000010043816                hci_le_clear_resolving_list_process
 .text.hci_le_read_peer_resolvable_address_process
                0x0000000010043840       0x3e User/DTM_cmd_db.o
                0x0000000010043840                hci_le_read_peer_resolvable_address_process
 .text.hci_le_read_local_resolvable_address_process
                0x000000001004387e       0x3e User/DTM_cmd_db.o
                0x000000001004387e                hci_le_read_local_resolvable_address_process
 .text.hci_le_set_address_resolution_enable_process
                0x00000000100438bc       0x2e User/DTM_cmd_db.o
                0x00000000100438bc                hci_le_set_address_resolution_enable_process
 .text.hci_le_set_resolvable_private_address_timeout_process
                0x00000000100438ea       0x34 User/DTM_cmd_db.o
                0x00000000100438ea                hci_le_set_resolvable_private_address_timeout_process
 .text.aci_hal_write_config_data_process
                0x000000001004391e       0x32 User/DTM_cmd_db.o
                0x000000001004391e                aci_hal_write_config_data_process
 .text.aci_hal_set_tx_power_level_process
                0x0000000010043950       0x30 User/DTM_cmd_db.o
                0x0000000010043950                aci_hal_set_tx_power_level_process
 .text.aci_hal_tone_start_process
                0x0000000010043980       0x30 User/DTM_cmd_db.o
                0x0000000010043980                aci_hal_tone_start_process
 .text.aci_hal_tone_stop_process
                0x00000000100439b0       0x2a User/DTM_cmd_db.o
                0x00000000100439b0                aci_hal_tone_stop_process
 .text.aci_hal_get_link_status_process
                0x00000000100439da       0x4a User/DTM_cmd_db.o
                0x00000000100439da                aci_hal_get_link_status_process
 .text.aci_hal_set_radio_activity_mask_process
                0x0000000010043a24       0x34 User/DTM_cmd_db.o
                0x0000000010043a24                aci_hal_set_radio_activity_mask_process
 .text.aci_hal_set_event_mask_process
                0x0000000010043a58       0x42 User/DTM_cmd_db.o
                0x0000000010043a58                aci_hal_set_event_mask_process
 .text.aci_hal_updater_start_process
                0x0000000010043a9a       0x2a User/DTM_cmd_db.o
                0x0000000010043a9a                aci_hal_updater_start_process
 .text.aci_hal_transmitter_test_packets_process
                0x0000000010043ac4       0x3a User/DTM_cmd_db.o
                0x0000000010043ac4                aci_hal_transmitter_test_packets_process
 .text.aci_gap_set_non_discoverable_process
                0x0000000010043afe       0x2a User/DTM_cmd_db.o
                0x0000000010043afe                aci_gap_set_non_discoverable_process
 .text.aci_gap_set_direct_connectable_process
                0x0000000010043b28       0x4a User/DTM_cmd_db.o
                0x0000000010043b28                aci_gap_set_direct_connectable_process
 .text.aci_gap_set_io_capability_process
                0x0000000010043b72       0x2e User/DTM_cmd_db.o
                0x0000000010043b72                aci_gap_set_io_capability_process
 .text.aci_gap_set_authentication_requirement_process
                0x0000000010043ba0       0x60 User/DTM_cmd_db.o
                0x0000000010043ba0                aci_gap_set_authentication_requirement_process
 .text.aci_gap_set_authorization_requirement_process
                0x0000000010043c00       0x36 User/DTM_cmd_db.o
                0x0000000010043c00                aci_gap_set_authorization_requirement_process
 .text.aci_gap_pass_key_resp_process
                0x0000000010043c36       0x48 User/DTM_cmd_db.o
                0x0000000010043c36                aci_gap_pass_key_resp_process
 .text.aci_gap_authorization_resp_process
                0x0000000010043c7e       0x36 User/DTM_cmd_db.o
                0x0000000010043c7e                aci_gap_authorization_resp_process
 .text.aci_gap_set_non_connectable_process
                0x0000000010043cb4       0x30 User/DTM_cmd_db.o
                0x0000000010043cb4                aci_gap_set_non_connectable_process
 .text.aci_gap_set_undirected_connectable_process
                0x0000000010043ce4       0x40 User/DTM_cmd_db.o
                0x0000000010043ce4                aci_gap_set_undirected_connectable_process
 .text.aci_gap_slave_security_req_process
                0x0000000010043d24       0x34 User/DTM_cmd_db.o
                0x0000000010043d24                aci_gap_slave_security_req_process
 .text.aci_gap_update_adv_data_process
                0x0000000010043d58       0x30 User/DTM_cmd_db.o
                0x0000000010043d58                aci_gap_update_adv_data_process
 .text.aci_gap_delete_ad_type_process
                0x0000000010043d88       0x2e User/DTM_cmd_db.o
                0x0000000010043d88                aci_gap_delete_ad_type_process
 .text.aci_gap_set_event_mask_process
                0x0000000010043db6       0x34 User/DTM_cmd_db.o
                0x0000000010043db6                aci_gap_set_event_mask_process
 .text.aci_gap_configure_whitelist_process
                0x0000000010043dea       0x2a User/DTM_cmd_db.o
                0x0000000010043dea                aci_gap_configure_whitelist_process
 .text.aci_gap_terminate_process
                0x0000000010043e14       0x36 User/DTM_cmd_db.o
                0x0000000010043e14                aci_gap_terminate_process
 .text.aci_gap_clear_security_db_process
                0x0000000010043e4a       0x2a User/DTM_cmd_db.o
                0x0000000010043e4a                aci_gap_clear_security_db_process
 .text.aci_gap_allow_rebond_process
                0x0000000010043e74       0x34 User/DTM_cmd_db.o
                0x0000000010043e74                aci_gap_allow_rebond_process
 .text.aci_gap_start_limited_discovery_proc_process
                0x0000000010043ea8       0x40 User/DTM_cmd_db.o
                0x0000000010043ea8                aci_gap_start_limited_discovery_proc_process
 .text.aci_gap_start_general_discovery_proc_process
                0x0000000010043ee8       0x40 User/DTM_cmd_db.o
                0x0000000010043ee8                aci_gap_start_general_discovery_proc_process
 .text.aci_gap_start_name_discovery_proc_process
                0x0000000010043f28       0x86 User/DTM_cmd_db.o
                0x0000000010043f28                aci_gap_start_name_discovery_proc_process
 .text.aci_gap_start_auto_connection_establish_proc_process
                0x0000000010043fae       0xb8 User/DTM_cmd_db.o
                0x0000000010043fae                aci_gap_start_auto_connection_establish_proc_process
 .text.aci_gap_start_general_connection_establish_proc_process
                0x0000000010044066       0x4a User/DTM_cmd_db.o
                0x0000000010044066                aci_gap_start_general_connection_establish_proc_process
 .text.aci_gap_start_selective_connection_establish_proc_process
                0x00000000100440b0       0x86 User/DTM_cmd_db.o
                0x00000000100440b0                aci_gap_start_selective_connection_establish_proc_process
 .text.aci_gap_create_connection_process
                0x0000000010044136       0x86 User/DTM_cmd_db.o
                0x0000000010044136                aci_gap_create_connection_process
 .text.aci_gap_terminate_gap_proc_process
                0x00000000100441bc       0x2e User/DTM_cmd_db.o
                0x00000000100441bc                aci_gap_terminate_gap_proc_process
 .text.aci_gap_start_connection_update_process
                0x00000000100441ea       0x70 User/DTM_cmd_db.o
                0x00000000100441ea                aci_gap_start_connection_update_process
 .text.aci_gap_send_pairing_req_process
                0x000000001004425a       0x36 User/DTM_cmd_db.o
                0x000000001004425a                aci_gap_send_pairing_req_process
 .text.aci_gap_resolve_private_addr_process
                0x0000000010044290       0x3c User/DTM_cmd_db.o
                0x0000000010044290                aci_gap_resolve_private_addr_process
 .text.aci_gap_start_observation_proc_process
                0x00000000100442cc       0x4a User/DTM_cmd_db.o
                0x00000000100442cc                aci_gap_start_observation_proc_process
 .text.aci_gap_is_device_bonded_process
                0x0000000010044316       0x30 User/DTM_cmd_db.o
                0x0000000010044316                aci_gap_is_device_bonded_process
 .text.aci_gap_numeric_comparison_value_confirm_yesno_process
                0x0000000010044346       0x36 User/DTM_cmd_db.o
                0x0000000010044346                aci_gap_numeric_comparison_value_confirm_yesno_process
 .text.aci_gap_passkey_input_process
                0x000000001004437c       0x36 User/DTM_cmd_db.o
                0x000000001004437c                aci_gap_passkey_input_process
 .text.aci_gap_set_oob_data_process
                0x00000000100443b2       0x3e User/DTM_cmd_db.o
                0x00000000100443b2                aci_gap_set_oob_data_process
 .text.aci_gap_remove_bonded_device_process
                0x00000000100443f0       0x30 User/DTM_cmd_db.o
                0x00000000100443f0                aci_gap_remove_bonded_device_process
 .text.aci_gatt_init_process
                0x0000000010044420       0x28 User/DTM_cmd_db.o
                0x0000000010044420                aci_gatt_init_process
 .text.aci_gatt_update_char_value_process
                0x0000000010044448       0x46 User/DTM_cmd_db.o
                0x0000000010044448                aci_gatt_update_char_value_process
 .text.aci_gatt_del_char_process
                0x000000001004448e       0x3a User/DTM_cmd_db.o
                0x000000001004448e                aci_gatt_del_char_process
 .text.aci_gatt_del_service_process
                0x00000000100444c8       0x34 User/DTM_cmd_db.o
                0x00000000100444c8                aci_gatt_del_service_process
 .text.aci_gatt_del_include_service_process
                0x00000000100444fc       0x3c User/DTM_cmd_db.o
                0x00000000100444fc                aci_gatt_del_include_service_process
 .text.aci_gatt_set_event_mask_process
                0x0000000010044538       0x42 User/DTM_cmd_db.o
                0x0000000010044538                aci_gatt_set_event_mask_process
 .text.aci_gatt_exchange_config_process
                0x000000001004457a       0x34 User/DTM_cmd_db.o
                0x000000001004457a                aci_gatt_exchange_config_process
 .text.aci_att_find_info_req_process
                0x00000000100445ae       0x44 User/DTM_cmd_db.o
                0x00000000100445ae                aci_att_find_info_req_process
 .text.aci_att_find_by_type_value_req_process
                0x00000000100445f2       0x58 User/DTM_cmd_db.o
                0x00000000100445f2                aci_att_find_by_type_value_req_process
 .text.aci_att_read_by_type_req_process
                0x000000001004464a       0x6a User/DTM_cmd_db.o
                0x000000001004464a                aci_att_read_by_type_req_process
 .text.aci_att_read_by_group_type_req_process
                0x00000000100446b4       0x68 User/DTM_cmd_db.o
                0x00000000100446b4                aci_att_read_by_group_type_req_process
 .text.aci_att_prepare_write_req_process
                0x000000001004471c       0x4c User/DTM_cmd_db.o
                0x000000001004471c                aci_att_prepare_write_req_process
 .text.aci_att_execute_write_req_process
                0x0000000010044768       0x36 User/DTM_cmd_db.o
                0x0000000010044768                aci_att_execute_write_req_process
 .text.aci_gatt_disc_all_primary_services_process
                0x000000001004479e       0x34 User/DTM_cmd_db.o
                0x000000001004479e                aci_gatt_disc_all_primary_services_process
 .text.aci_gatt_disc_primary_service_by_uuid_process
                0x00000000100447d2       0x54 User/DTM_cmd_db.o
                0x00000000100447d2                aci_gatt_disc_primary_service_by_uuid_process
 .text.aci_gatt_find_included_services_process
                0x0000000010044826       0x44 User/DTM_cmd_db.o
                0x0000000010044826                aci_gatt_find_included_services_process
 .text.aci_gatt_disc_all_char_of_service_process
                0x000000001004486a       0x44 User/DTM_cmd_db.o
                0x000000001004486a                aci_gatt_disc_all_char_of_service_process
 .text.aci_gatt_disc_char_by_uuid_process
                0x00000000100448ae       0x6a User/DTM_cmd_db.o
                0x00000000100448ae                aci_gatt_disc_char_by_uuid_process
 .text.aci_gatt_disc_all_char_desc_process
                0x0000000010044918       0x44 User/DTM_cmd_db.o
                0x0000000010044918                aci_gatt_disc_all_char_desc_process
 .text.aci_gatt_read_char_value_process
                0x000000001004495c       0x3c User/DTM_cmd_db.o
                0x000000001004495c                aci_gatt_read_char_value_process
 .text.aci_gatt_read_using_char_uuid_process
                0x0000000010044998       0x6a User/DTM_cmd_db.o
                0x0000000010044998                aci_gatt_read_using_char_uuid_process
 .text.aci_gatt_read_long_char_value_process
                0x0000000010044a02       0x44 User/DTM_cmd_db.o
                0x0000000010044a02                aci_gatt_read_long_char_value_process
 .text.aci_gatt_read_multiple_char_value_process
                0x0000000010044a46       0x56 User/DTM_cmd_db.o
                0x0000000010044a46                aci_gatt_read_multiple_char_value_process
 .text.aci_gatt_write_char_value_process
                0x0000000010044a9c       0x40 User/DTM_cmd_db.o
                0x0000000010044a9c                aci_gatt_write_char_value_process
 .text.aci_gatt_write_long_char_value_process
                0x0000000010044adc       0x4c User/DTM_cmd_db.o
                0x0000000010044adc                aci_gatt_write_long_char_value_process
 .text.aci_gatt_write_char_reliable_process
                0x0000000010044b28       0x4c User/DTM_cmd_db.o
                0x0000000010044b28                aci_gatt_write_char_reliable_process
 .text.aci_gatt_write_long_char_desc_process
                0x0000000010044b74       0x4c User/DTM_cmd_db.o
                0x0000000010044b74                aci_gatt_write_long_char_desc_process
 .text.aci_gatt_read_long_char_desc_process
                0x0000000010044bc0       0x44 User/DTM_cmd_db.o
                0x0000000010044bc0                aci_gatt_read_long_char_desc_process
 .text.aci_gatt_write_char_desc_process
                0x0000000010044c04       0x40 User/DTM_cmd_db.o
                0x0000000010044c04                aci_gatt_write_char_desc_process
 .text.aci_gatt_read_char_desc_process
                0x0000000010044c44       0x3c User/DTM_cmd_db.o
                0x0000000010044c44                aci_gatt_read_char_desc_process
 .text.aci_gatt_write_without_resp_process
                0x0000000010044c80       0x40 User/DTM_cmd_db.o
                0x0000000010044c80                aci_gatt_write_without_resp_process
 .text.aci_gatt_signed_write_without_resp_process
                0x0000000010044cc0       0x40 User/DTM_cmd_db.o
                0x0000000010044cc0                aci_gatt_signed_write_without_resp_process
 .text.aci_gatt_confirm_indication_process
                0x0000000010044d00       0x34 User/DTM_cmd_db.o
                0x0000000010044d00                aci_gatt_confirm_indication_process
 .text.aci_gatt_write_resp_process
                0x0000000010044d34       0x4c User/DTM_cmd_db.o
                0x0000000010044d34                aci_gatt_write_resp_process
 .text.aci_gatt_allow_read_process
                0x0000000010044d80       0x34 User/DTM_cmd_db.o
                0x0000000010044d80                aci_gatt_allow_read_process
 .text.aci_gatt_set_security_permission_process
                0x0000000010044db4       0x3e User/DTM_cmd_db.o
                0x0000000010044db4                aci_gatt_set_security_permission_process
 .text.aci_gatt_set_desc_value_process
                0x0000000010044df2       0x58 User/DTM_cmd_db.o
                0x0000000010044df2                aci_gatt_set_desc_value_process
 .text.aci_gatt_update_char_value_ext_process
                0x0000000010044e4a       0x6a User/DTM_cmd_db.o
                0x0000000010044e4a                aci_gatt_update_char_value_ext_process
 .text.aci_gatt_deny_read_process
                0x0000000010044eb4       0x36 User/DTM_cmd_db.o
                0x0000000010044eb4                aci_gatt_deny_read_process
 .text.aci_gatt_set_access_permission_process
                0x0000000010044eea       0x3e User/DTM_cmd_db.o
                0x0000000010044eea                aci_gatt_set_access_permission_process
 .text.aci_l2cap_connection_parameter_update_req_process
                0x0000000010044f28       0x58 User/DTM_cmd_db.o
                0x0000000010044f28                aci_l2cap_connection_parameter_update_req_process
 .text.aci_l2cap_connection_parameter_update_resp_process
                0x0000000010044f80       0x78 User/DTM_cmd_db.o
                0x0000000010044f80                aci_l2cap_connection_parameter_update_resp_process
 .text.hci_disconnection_complete_event
                0x0000000010044ff8       0x24 User/DTM_cmd_db.o
                0x0000000010044ff8                hci_disconnection_complete_event
 .text.hci_encryption_change_event
                0x000000001004501c       0x24 User/DTM_cmd_db.o
                0x000000001004501c                hci_encryption_change_event
 .text.hci_read_remote_version_information_complete_event
                0x0000000010045040       0x3e User/DTM_cmd_db.o
                0x0000000010045040                hci_read_remote_version_information_complete_event
 .text.hci_hardware_error_event
                0x000000001004507e       0x20 User/DTM_cmd_db.o
                0x000000001004507e                hci_hardware_error_event
 .text.hci_number_of_completed_packets_event
                0x000000001004509e       0x3e User/DTM_cmd_db.o
                0x000000001004509e                hci_number_of_completed_packets_event
 .text.hci_encryption_key_refresh_complete_event
                0x00000000100450dc       0x24 User/DTM_cmd_db.o
                0x00000000100450dc                hci_encryption_key_refresh_complete_event
 .text.aci_blue_initialized_event
                0x0000000010045100       0x2a User/DTM_cmd_db.o
                0x0000000010045100                aci_blue_initialized_event
 .text.aci_blue_crash_info_event
                0x000000001004512a       0xce User/DTM_cmd_db.o
                0x000000001004512a                aci_blue_crash_info_event
 .text.aci_hal_end_of_radio_activity_event
                0x00000000100451f8       0x3c User/DTM_cmd_db.o
                0x00000000100451f8                aci_hal_end_of_radio_activity_event
 .text.aci_hal_scan_req_report_event
                0x0000000010045234       0x3c User/DTM_cmd_db.o
                0x0000000010045234                aci_hal_scan_req_report_event
 .text.aci_hal_fw_error_event
                0x0000000010045270       0x3e User/DTM_cmd_db.o
                0x0000000010045270                aci_hal_fw_error_event
 .text.aci_gap_limited_discoverable_event
                0x00000000100452ae       0x24 User/DTM_cmd_db.o
                0x00000000100452ae                aci_gap_limited_discoverable_event
 .text.aci_gap_pairing_complete_event
                0x00000000100452d2       0x34 User/DTM_cmd_db.o
                0x00000000100452d2                aci_gap_pairing_complete_event
 .text.aci_gap_pass_key_req_event
                0x0000000010045306       0x2e User/DTM_cmd_db.o
                0x0000000010045306                aci_gap_pass_key_req_event
 .text.aci_gap_authorization_req_event
                0x0000000010045334       0x2e User/DTM_cmd_db.o
                0x0000000010045334                aci_gap_authorization_req_event
 .text.aci_gap_slave_security_initiated_event
                0x0000000010045362       0x22 User/DTM_cmd_db.o
                0x0000000010045362                aci_gap_slave_security_initiated_event
 .text.aci_gap_bond_lost_event
                0x0000000010045384       0x22 User/DTM_cmd_db.o
                0x0000000010045384                aci_gap_bond_lost_event
 .text.aci_gap_proc_complete_event
                0x00000000100453a6       0x38 User/DTM_cmd_db.o
                0x00000000100453a6                aci_gap_proc_complete_event
 .text.aci_gap_addr_not_resolved_event
                0x00000000100453de       0x2e User/DTM_cmd_db.o
                0x00000000100453de                aci_gap_addr_not_resolved_event
 .text.aci_gap_numeric_comparison_value_event
                0x000000001004540c       0x42 User/DTM_cmd_db.o
                0x000000001004540c                aci_gap_numeric_comparison_value_event
 .text.aci_gap_keypress_notification_event
                0x000000001004544e       0x32 User/DTM_cmd_db.o
                0x000000001004544e                aci_gap_keypress_notification_event
 .text.aci_l2cap_connection_update_resp_event
                0x0000000010045480       0x3c User/DTM_cmd_db.o
                0x0000000010045480                aci_l2cap_connection_update_resp_event
 .text.aci_l2cap_proc_timeout_event
                0x00000000100454bc       0x42 User/DTM_cmd_db.o
                0x00000000100454bc                aci_l2cap_proc_timeout_event
 .text.aci_l2cap_connection_update_req_event
                0x00000000100454fe       0x4e User/DTM_cmd_db.o
                0x00000000100454fe                aci_l2cap_connection_update_req_event
 .text.aci_l2cap_command_reject_event
                0x000000001004554c       0x4c User/DTM_cmd_db.o
                0x000000001004554c                aci_l2cap_command_reject_event
 .text.aci_gatt_attribute_modified_event
                0x0000000010045598       0xb8 User/DTM_cmd_db.o
                0x0000000010045598                aci_gatt_attribute_modified_event
 .text.aci_gatt_proc_timeout_event
                0x0000000010045650       0x30 User/DTM_cmd_db.o
                0x0000000010045650                aci_gatt_proc_timeout_event
 .text.aci_att_exchange_mtu_resp_event
                0x0000000010045680       0x3c User/DTM_cmd_db.o
                0x0000000010045680                aci_att_exchange_mtu_resp_event
 .text.aci_att_find_info_resp_event
                0x00000000100456bc       0x44 User/DTM_cmd_db.o
                0x00000000100456bc                aci_att_find_info_resp_event
 .text.aci_att_find_by_type_value_resp_event
                0x0000000010045700       0x50 User/DTM_cmd_db.o
                0x0000000010045700                aci_att_find_by_type_value_resp_event
 .text.aci_att_read_by_type_resp_event
                0x0000000010045750       0x46 User/DTM_cmd_db.o
                0x0000000010045750                aci_att_read_by_type_resp_event
 .text.aci_att_read_resp_event
                0x0000000010045796       0x42 User/DTM_cmd_db.o
                0x0000000010045796                aci_att_read_resp_event
 .text.aci_att_read_blob_resp_event
                0x00000000100457d8       0x42 User/DTM_cmd_db.o
                0x00000000100457d8                aci_att_read_blob_resp_event
 .text.aci_att_read_multiple_resp_event
                0x000000001004581a       0x42 User/DTM_cmd_db.o
                0x000000001004581a                aci_att_read_multiple_resp_event
 .text.aci_att_read_by_group_type_resp_event
                0x000000001004585c       0x46 User/DTM_cmd_db.o
                0x000000001004585c                aci_att_read_by_group_type_resp_event
 .text.aci_att_prepare_write_resp_event
                0x00000000100458a2       0x54 User/DTM_cmd_db.o
                0x00000000100458a2                aci_att_prepare_write_resp_event
 .text.aci_att_exec_write_resp_event
                0x00000000100458f6       0x30 User/DTM_cmd_db.o
                0x00000000100458f6                aci_att_exec_write_resp_event
 .text.aci_gatt_indication_event
                0x0000000010045926       0x4e User/DTM_cmd_db.o
                0x0000000010045926                aci_gatt_indication_event
 .text.aci_gatt_notification_event
                0x0000000010045974       0x4e User/DTM_cmd_db.o
                0x0000000010045974                aci_gatt_notification_event
 .text.aci_gatt_proc_complete_event
                0x00000000100459c2       0x34 User/DTM_cmd_db.o
                0x00000000100459c2                aci_gatt_proc_complete_event
 .text.aci_gatt_error_resp_event
                0x00000000100459f6       0x38 User/DTM_cmd_db.o
                0x00000000100459f6                aci_gatt_error_resp_event
 .text.aci_gatt_disc_read_char_by_uuid_resp_event
                0x0000000010045a2e       0x4e User/DTM_cmd_db.o
                0x0000000010045a2e                aci_gatt_disc_read_char_by_uuid_resp_event
 .text.aci_gatt_write_permit_req_event
                0x0000000010045a7c       0x4e User/DTM_cmd_db.o
                0x0000000010045a7c                aci_gatt_write_permit_req_event
 .text.aci_gatt_read_permit_req_event
                0x0000000010045aca       0x46 User/DTM_cmd_db.o
                0x0000000010045aca                aci_gatt_read_permit_req_event
 .text.aci_gatt_read_multi_permit_req_event
                0x0000000010045b10       0x48 User/DTM_cmd_db.o
                0x0000000010045b10                aci_gatt_read_multi_permit_req_event
 .text.aci_gatt_tx_pool_available_event
                0x0000000010045b58       0x3c User/DTM_cmd_db.o
                0x0000000010045b58                aci_gatt_tx_pool_available_event
 .text.aci_gatt_server_confirmation_event
                0x0000000010045b94       0x30 User/DTM_cmd_db.o
                0x0000000010045b94                aci_gatt_server_confirmation_event
 .text.aci_gatt_prepare_write_permit_req_event
                0x0000000010045bc4       0x56 User/DTM_cmd_db.o
                0x0000000010045bc4                aci_gatt_prepare_write_permit_req_event
 .text.hci_le_connection_complete_event
                0x0000000010045c1a       0x88 User/DTM_cmd_db.o
                0x0000000010045c1a                hci_le_connection_complete_event
 .text.hci_le_advertising_report_event
                0x0000000010045ca2       0x82 User/DTM_cmd_db.o
                0x0000000010045ca2                hci_le_advertising_report_event
 .text.hci_le_connection_update_complete_event
                0x0000000010045d24       0x52 User/DTM_cmd_db.o
                0x0000000010045d24                hci_le_connection_update_complete_event
 .text.hci_le_read_remote_used_features_complete_event
                0x0000000010045d76       0x3c User/DTM_cmd_db.o
                0x0000000010045d76                hci_le_read_remote_used_features_complete_event
 .text.hci_le_long_term_key_request_event
                0x0000000010045db2       0x34 User/DTM_cmd_db.o
                0x0000000010045db2                hci_le_long_term_key_request_event
 .text.hci_le_data_length_change_event
                0x0000000010045de6       0x32 User/DTM_cmd_db.o
                0x0000000010045de6                hci_le_data_length_change_event
 .text.hci_le_read_local_p256_public_key_complete_event
                0x0000000010045e18       0x30 User/DTM_cmd_db.o
                0x0000000010045e18                hci_le_read_local_p256_public_key_complete_event
 .text.hci_le_generate_dhkey_complete_event
                0x0000000010045e48       0x30 User/DTM_cmd_db.o
                0x0000000010045e48                hci_le_generate_dhkey_complete_event
 .text.hci_le_enhanced_connection_complete_event
                0x0000000010045e78       0xa0 User/DTM_cmd_db.o
                0x0000000010045e78                hci_le_enhanced_connection_complete_event
 .text.hci_le_direct_advertising_report_event
                0x0000000010045f18       0x78 User/DTM_cmd_db.o
                0x0000000010045f18                hci_le_direct_advertising_report_event
 .text.aci_hal_updater_start
                0x0000000010045f90       0x1c User/DTM_cmds.o
                0x0000000010045f90                aci_hal_updater_start
 .text.aci_hal_get_firmware_details
                0x0000000010045fac       0x82 User/DTM_cmds.o
                0x0000000010045fac                aci_hal_get_firmware_details
 *fill*         0x000000001004602e        0x2 
 .text.aci_hal_transmitter_test_packets
                0x0000000010046030       0x3c User/DTM_cmds.o
                0x0000000010046030                aci_hal_transmitter_test_packets
 .text.startup.main
                0x000000001004606c       0x90 User/DTM_main.o
                0x000000001004606c                main
 .text.parse_cmd
                0x00000000100460fc       0x74 User/cmd.o
                0x00000000100460fc                parse_cmd
 .text.packet_received
                0x0000000010046170       0x4c User/hci_parser.o
                0x0000000010046170                packet_received
 .text.hci_input
                0x00000000100461bc      0x100 User/hci_parser.o
                0x00000000100461bc                hci_input
 .text.WDG_Configuration
                0x00000000100462bc       0x1c User/hw_config.o
                0x00000000100462bc                WDG_Configuration
 .text.NVIC_EnableRadioIrq
                0x00000000100462d8       0x16 User/hw_config.o
                0x00000000100462d8                NVIC_EnableRadioIrq
 .text.NVIC_Configuration
                0x00000000100462ee       0x1a User/hw_config.o
                0x00000000100462ee                NVIC_Configuration
 .text.GPIO_Configuration
                0x0000000010046308       0x2a User/hw_config.o
                0x0000000010046308                GPIO_Configuration
 *fill*         0x0000000010046332        0x2 
 .text.UART_Configuration
                0x0000000010046334       0x4c User/hw_config.o
                0x0000000010046334                UART_Configuration
 .text.DMA_Configuration
                0x0000000010046380       0x6c User/hw_config.o
                0x0000000010046380                DMA_Configuration
 .text.DMA_Rearm
                0x00000000100463ec       0x18 User/hw_config.o
                0x00000000100463ec                DMA_Rearm
 .text.App_SleepMode_Check
                0x0000000010046404       0x40 User/transport_layer.o
                0x0000000010046404                App_SleepMode_Check
 .text.process_command
                0x0000000010046444       0x7c User/transport_layer.o
                0x0000000010046444                process_command
 .text.transport_layer_init
                0x00000000100464c0       0xac User/transport_layer.o
                0x00000000100464c0                transport_layer_init
 .text.send_command
                0x000000001004656c       0x10 User/transport_layer.o
                0x000000001004656c                send_command
 .text.send_event_isr
                0x000000001004657c       0x74 User/transport_layer.o
                0x000000001004657c                send_event_isr
 .text.transport_layer_tick
                0x00000000100465f0      0x11c User/transport_layer.o
                0x00000000100465f0                transport_layer_tick
 .text.send_event
                0x000000001004670c        0x8 User/transport_layer.o
                0x000000001004670c                send_event
 .text.advance_dma
                0x0000000010046714       0x4c User/transport_layer.o
                0x0000000010046714                advance_dma
 .text.__aeabi_memclr
                0x0000000010046760        0xa /opt/Atollic_TrueSTUDIO_for_STM32_x86_64_9.3.0/ARMTools/bin/../lib/gcc/arm-atollic-eabi/6.3.1/../../../../arm-atollic-eabi/lib/armv6-m/libc_nano.a(lib_a-aeabi_memclr.o)
                0x0000000010046760                __aeabi_memclr8
                0x0000000010046760                __aeabi_memclr
                0x0000000010046760                __aeabi_memclr4
 .text.__aeabi_memcpy
                0x000000001004676a        0x8 /opt/Atollic_TrueSTUDIO_for_STM32_x86_64_9.3.0/ARMTools/bin/../lib/gcc/arm-atollic-eabi/6.3.1/../../../../arm-atollic-eabi/lib/armv6-m/libc_nano.a(lib_a-aeabi_memcpy.o)
                0x000000001004676a                __aeabi_memcpy
                0x000000001004676a                __aeabi_memcpy4
                0x000000001004676a                __aeabi_memcpy8
 .text.__aeabi_memmove
                0x0000000010046772        0x8 /opt/Atollic_TrueSTUDIO_for_STM32_x86_64_9.3.0/ARMTools/bin/../lib/gcc/arm-atollic-eabi/6.3.1/../../../../arm-atollic-eabi/lib/armv6-m/libc_nano.a(lib_a-aeabi_memmove.o)
                0x0000000010046772                __aeabi_memmove8
                0x0000000010046772                __aeabi_memmove
                0x0000000010046772                __aeabi_memmove4
 .text.__aeabi_memset
                0x000000001004677a        0xe /opt/Atollic_TrueSTUDIO_for_STM32_x86_64_9.3.0/ARMTools/bin/../lib/gcc/arm-atollic-eabi/6.3.1/../../../../arm-atollic-eabi/lib/armv6-m/libc_nano.a(lib_a-aeabi_memset.o)
                0x000000001004677a                __aeabi_memset
                0x000000001004677a                __aeabi_memset8
                0x000000001004677a                __aeabi_memset4
 .text.memcmp   0x0000000010046788       0x1e /opt/Atollic_TrueSTUDIO_for_STM32_x86_64_9.3.0/ARMTools/bin/../lib/gcc/arm-atollic-eabi/6.3.1/../../../../arm-atollic-eabi/lib/armv6-m/libc_nano.a(lib_a-memcmp.o)
                0x0000000010046788                memcmp
 .text.memcpy   0x00000000100467a6       0x12 /opt/Atollic_TrueSTUDIO_for_STM32_x86_64_9.3.0/ARMTools/bin/../lib/gcc/arm-atollic-eabi/6.3.1/../../../../arm-atollic-eabi/lib/armv6-m/libc_nano.a(lib_a-memcpy-stub.o)
                0x00000000100467a6                memcpy
 .text.memmove  0x00000000100467b8       0x24 /opt/Atollic_TrueSTUDIO_for_STM32_x86_64_9.3.0/ARMTools/bin/../lib/gcc/arm-atollic-eabi/6.3.1/../../../../arm-atollic-eabi/lib/armv6-m/libc_nano.a(lib_a-memmove.o)
                0x00000000100467b8                memmove
 .text.memset   0x00000000100467dc       0x10 /opt/Atollic_TrueSTUDIO_for_STM32_x86_64_9.3.0/ARMTools/bin/../lib/gcc/arm-atollic-eabi/6.3.1/../../../../arm-atollic-eabi/lib/armv6-m/libc_nano.a(lib_a-memset.o)
                0x00000000100467dc                memset
 *(i.*)
 i._aci_gap_set_discoverable_param_check
                0x00000000100467ec       0x5c ../../../../../../Library/Bluetooth_LE/library/libbluenrg1_stack.a(bluenrg_gap_aci.o)
 i.aci_gap_allow_rebond
                0x0000000010046848        0x8 ../../../../../../Library/Bluetooth_LE/library/libbluenrg1_stack.a(bluenrg_gap_aci.o)
                0x0000000010046848                aci_gap_allow_rebond
 i.aci_gap_authorization_resp
                0x0000000010046850       0x14 ../../../../../../Library/Bluetooth_LE/library/libbluenrg1_stack.a(bluenrg_gap_aci.o)
                0x0000000010046850                aci_gap_authorization_resp
 i.aci_gap_clear_security_db
                0x0000000010046864        0x8 ../../../../../../Library/Bluetooth_LE/library/libbluenrg1_stack.a(bluenrg_gap_aci.o)
                0x0000000010046864                aci_gap_clear_security_db
 i.aci_gap_configure_whitelist
                0x000000001004686c        0x8 ../../../../../../Library/Bluetooth_LE/library/libbluenrg1_stack.a(bluenrg_gap_aci.o)
                0x000000001004686c                aci_gap_configure_whitelist
 i.aci_gap_create_connection_api
                0x0000000010046874       0x5a ../../../../../../Library/Bluetooth_LE/library/libbluenrg1_stack.a(bluenrg_gap_aci.o)
                0x0000000010046874                aci_gap_create_connection_api
 i.aci_gap_delete_ad_type
                0x00000000100468ce       0x18 ../../../../../../Library/Bluetooth_LE/library/libbluenrg1_stack.a(bluenrg_gap_aci.o)
                0x00000000100468ce                aci_gap_delete_ad_type
 i.aci_gap_get_bonded_devices
                0x00000000100468e6       0x14 ../../../../../../Library/Bluetooth_LE/library/libbluenrg1_stack.a(bluenrg_gap_aci.o)
                0x00000000100468e6                aci_gap_get_bonded_devices
 i.aci_gap_get_oob_data
                0x00000000100468fa       0x14 ../../../../../../Library/Bluetooth_LE/library/libbluenrg1_stack.a(bluenrg_gap_aci.o)
                0x00000000100468fa                aci_gap_get_oob_data
 i.aci_gap_get_security_level
                0x000000001004690e        0xa ../../../../../../Library/Bluetooth_LE/library/libbluenrg1_stack.a(bluenrg_gap_aci.o)
                0x000000001004690e                aci_gap_get_security_level
 i.aci_gap_init
                0x0000000010046918       0x30 ../../../../../../Library/Bluetooth_LE/library/libbluenrg1_stack.a(bluenrg_gap_aci.o)
                0x0000000010046918                aci_gap_init
 i.aci_gap_is_device_bonded
                0x0000000010046948       0x20 ../../../../../../Library/Bluetooth_LE/library/libbluenrg1_stack.a(bluenrg_gap_aci.o)
                0x0000000010046948                aci_gap_is_device_bonded
 i.aci_gap_numeric_comparison_value_confirm_yesno_api
                0x0000000010046968       0x14 ../../../../../../Library/Bluetooth_LE/library/libbluenrg1_stack.a(bluenrg_gap_aci.o)
                0x0000000010046968                aci_gap_numeric_comparison_value_confirm_yesno_api
 i.aci_gap_pass_key_resp
                0x000000001004697c       0x18 ../../../../../../Library/Bluetooth_LE/library/libbluenrg1_stack.a(bluenrg_gap_aci.o)
                0x000000001004697c                aci_gap_pass_key_resp
 i.aci_gap_passkey_input_api
                0x0000000010046994       0x10 ../../../../../../Library/Bluetooth_LE/library/libbluenrg1_stack.a(bluenrg_gap_aci.o)
                0x0000000010046994                aci_gap_passkey_input_api
 i.aci_gap_remove_bonded_device
                0x00000000100469a4       0x14 ../../../../../../Library/Bluetooth_LE/library/libbluenrg1_stack.a(bluenrg_gap_aci.o)
                0x00000000100469a4                aci_gap_remove_bonded_device
 i.aci_gap_resolve_private_addr
                0x00000000100469b8        0x8 ../../../../../../Library/Bluetooth_LE/library/libbluenrg1_stack.a(bluenrg_gap_aci.o)
                0x00000000100469b8                aci_gap_resolve_private_addr
 i.aci_gap_send_pairing_req_api
                0x00000000100469c0        0xa ../../../../../../Library/Bluetooth_LE/library/libbluenrg1_stack.a(bluenrg_gap_aci.o)
                0x00000000100469c0                aci_gap_send_pairing_req_api
 *fill*         0x00000000100469ca        0x2 
 i.aci_gap_set_authentication_requirement
                0x00000000100469cc       0x94 ../../../../../../Library/Bluetooth_LE/library/libbluenrg1_stack.a(bluenrg_gap_aci.o)
                0x00000000100469cc                aci_gap_set_authentication_requirement
 i.aci_gap_set_authorization_requirement
                0x0000000010046a60       0x14 ../../../../../../Library/Bluetooth_LE/library/libbluenrg1_stack.a(bluenrg_gap_aci.o)
                0x0000000010046a60                aci_gap_set_authorization_requirement
 i.aci_gap_set_broadcast_mode
                0x0000000010046a74       0x40 ../../../../../../Library/Bluetooth_LE/library/libbluenrg1_stack.a(bluenrg_gap_aci.o)
                0x0000000010046a74                aci_gap_set_broadcast_mode
 i.aci_gap_set_direct_connectable
                0x0000000010046ab4       0x24 ../../../../../../Library/Bluetooth_LE/library/libbluenrg1_stack.a(bluenrg_gap_aci.o)
                0x0000000010046ab4                aci_gap_set_direct_connectable
 i.aci_gap_set_discoverable
                0x0000000010046ad8       0x42 ../../../../../../Library/Bluetooth_LE/library/libbluenrg1_stack.a(bluenrg_gap_aci.o)
                0x0000000010046ad8                aci_gap_set_discoverable
 *fill*         0x0000000010046b1a        0x2 
 i.aci_gap_set_event_mask
                0x0000000010046b1c       0x20 ../../../../../../Library/Bluetooth_LE/library/libbluenrg1_stack.a(bluenrg_gap_aci.o)
                0x0000000010046b1c                aci_gap_set_event_mask
 i.aci_gap_set_io_capability
                0x0000000010046b3c       0x10 ../../../../../../Library/Bluetooth_LE/library/libbluenrg1_stack.a(bluenrg_gap_aci.o)
                0x0000000010046b3c                aci_gap_set_io_capability
 i.aci_gap_set_limited_discoverable
                0x0000000010046b4c       0x42 ../../../../../../Library/Bluetooth_LE/library/libbluenrg1_stack.a(bluenrg_gap_aci.o)
                0x0000000010046b4c                aci_gap_set_limited_discoverable
 i.aci_gap_set_non_connectable
                0x0000000010046b8e       0x14 ../../../../../../Library/Bluetooth_LE/library/libbluenrg1_stack.a(bluenrg_gap_aci.o)
                0x0000000010046b8e                aci_gap_set_non_connectable
 i.aci_gap_set_non_discoverable
                0x0000000010046ba2       0x14 ../../../../../../Library/Bluetooth_LE/library/libbluenrg1_stack.a(bluenrg_gap_aci.o)
                0x0000000010046ba2                aci_gap_set_non_discoverable
 i.aci_gap_set_oob_data
                0x0000000010046bb6       0x28 ../../../../../../Library/Bluetooth_LE/library/libbluenrg1_stack.a(bluenrg_gap_aci.o)
                0x0000000010046bb6                aci_gap_set_oob_data
 i.aci_gap_set_undirected_connectable
                0x0000000010046bde       0x14 ../../../../../../Library/Bluetooth_LE/library/libbluenrg1_stack.a(bluenrg_gap_aci.o)
                0x0000000010046bde                aci_gap_set_undirected_connectable
 i.aci_gap_slave_security_req
                0x0000000010046bf2        0x8 ../../../../../../Library/Bluetooth_LE/library/libbluenrg1_stack.a(bluenrg_gap_aci.o)
                0x0000000010046bf2                aci_gap_slave_security_req
 i.aci_gap_start_auto_connection_establish_proc_api
                0x0000000010046bfa       0x34 ../../../../../../Library/Bluetooth_LE/library/libbluenrg1_stack.a(bluenrg_gap_aci.o)
                0x0000000010046bfa                aci_gap_start_auto_connection_establish_proc_api
 i.aci_gap_start_connection_update_api
                0x0000000010046c2e       0x22 ../../../../../../Library/Bluetooth_LE/library/libbluenrg1_stack.a(bluenrg_gap_aci.o)
                0x0000000010046c2e                aci_gap_start_connection_update_api
 i.aci_gap_start_general_connection_establish_proc_api
                0x0000000010046c50       0x2a ../../../../../../Library/Bluetooth_LE/library/libbluenrg1_stack.a(bluenrg_gap_aci.o)
                0x0000000010046c50                aci_gap_start_general_connection_establish_proc_api
 i.aci_gap_start_general_discovery_proc_api
                0x0000000010046c7a        0x8 ../../../../../../Library/Bluetooth_LE/library/libbluenrg1_stack.a(bluenrg_gap_aci.o)
                0x0000000010046c7a                aci_gap_start_general_discovery_proc_api
 i.aci_gap_start_limited_discovery_proc_api
                0x0000000010046c82        0x8 ../../../../../../Library/Bluetooth_LE/library/libbluenrg1_stack.a(bluenrg_gap_aci.o)
                0x0000000010046c82                aci_gap_start_limited_discovery_proc_api
 i.aci_gap_start_name_discovery_proc_api
                0x0000000010046c8a       0x54 ../../../../../../Library/Bluetooth_LE/library/libbluenrg1_stack.a(bluenrg_gap_aci.o)
                0x0000000010046c8a                aci_gap_start_name_discovery_proc_api
 i.aci_gap_start_observation_proc_api
                0x0000000010046cde       0x1c ../../../../../../Library/Bluetooth_LE/library/libbluenrg1_stack.a(bluenrg_gap_aci.o)
                0x0000000010046cde                aci_gap_start_observation_proc_api
 i.aci_gap_start_selective_connection_establish_proc_api
                0x0000000010046cfa       0x32 ../../../../../../Library/Bluetooth_LE/library/libbluenrg1_stack.a(bluenrg_gap_aci.o)
                0x0000000010046cfa                aci_gap_start_selective_connection_establish_proc_api
 i.aci_gap_terminate
                0x0000000010046d2c        0x8 ../../../../../../Library/Bluetooth_LE/library/libbluenrg1_stack.a(bluenrg_gap_aci.o)
                0x0000000010046d2c                aci_gap_terminate
 i.aci_gap_terminate_gap_proc_api
                0x0000000010046d34        0x8 ../../../../../../Library/Bluetooth_LE/library/libbluenrg1_stack.a(bluenrg_gap_aci.o)
                0x0000000010046d34                aci_gap_terminate_gap_proc_api
 i.aci_gap_update_adv_data
                0x0000000010046d3c       0x10 ../../../../../../Library/Bluetooth_LE/library/libbluenrg1_stack.a(bluenrg_gap_aci.o)
                0x0000000010046d3c                aci_gap_update_adv_data
 i.load_scanParams
                0x0000000010046d4c       0x4c ../../../../../../Library/Bluetooth_LE/library/libbluenrg1_stack.a(bluenrg_gap_aci.o)
 i._load_uuid   0x0000000010046d98       0x26 ../../../../../../Library/Bluetooth_LE/library/libbluenrg1_stack.a(bluenrg_gatt_aci.o)
 i.aci_att_execute_write_req
                0x0000000010046dbe        0x8 ../../../../../../Library/Bluetooth_LE/library/libbluenrg1_stack.a(bluenrg_gatt_aci.o)
                0x0000000010046dbe                aci_att_execute_write_req
 i.aci_att_find_by_type_value_req
                0x0000000010046dc6       0x1c ../../../../../../Library/Bluetooth_LE/library/libbluenrg1_stack.a(bluenrg_gatt_aci.o)
                0x0000000010046dc6                aci_att_find_by_type_value_req
 i.aci_att_find_info_req
                0x0000000010046de2        0x8 ../../../../../../Library/Bluetooth_LE/library/libbluenrg1_stack.a(bluenrg_gatt_aci.o)
                0x0000000010046de2                aci_att_find_info_req
 i.aci_att_prepare_write_req
                0x0000000010046dea       0x14 ../../../../../../Library/Bluetooth_LE/library/libbluenrg1_stack.a(bluenrg_gatt_aci.o)
                0x0000000010046dea                aci_att_prepare_write_req
 i.aci_att_read_by_group_type_req
                0x0000000010046dfe       0x28 ../../../../../../Library/Bluetooth_LE/library/libbluenrg1_stack.a(bluenrg_gatt_aci.o)
                0x0000000010046dfe                aci_att_read_by_group_type_req
 i.aci_att_read_by_type_req
                0x0000000010046e26       0x28 ../../../../../../Library/Bluetooth_LE/library/libbluenrg1_stack.a(bluenrg_gatt_aci.o)
                0x0000000010046e26                aci_att_read_by_type_req
 i.aci_gatt_add_char
                0x0000000010046e4e       0x3e ../../../../../../Library/Bluetooth_LE/library/libbluenrg1_stack.a(bluenrg_gatt_aci.o)
                0x0000000010046e4e                aci_gatt_add_char
 i.aci_gatt_add_char_desc
                0x0000000010046e8c       0x50 ../../../../../../Library/Bluetooth_LE/library/libbluenrg1_stack.a(bluenrg_gatt_aci.o)
                0x0000000010046e8c                aci_gatt_add_char_desc
 i.aci_gatt_add_service
                0x0000000010046edc       0x36 ../../../../../../Library/Bluetooth_LE/library/libbluenrg1_stack.a(bluenrg_gatt_aci.o)
                0x0000000010046edc                aci_gatt_add_service
 i.aci_gatt_allow_read
                0x0000000010046f12        0xc ../../../../../../Library/Bluetooth_LE/library/libbluenrg1_stack.a(bluenrg_gatt_aci.o)
                0x0000000010046f12                aci_gatt_allow_read
 i.aci_gatt_confirm_indication
                0x0000000010046f1e        0x8 ../../../../../../Library/Bluetooth_LE/library/libbluenrg1_stack.a(bluenrg_gatt_aci.o)
                0x0000000010046f1e                aci_gatt_confirm_indication
 i.aci_gatt_del_char
                0x0000000010046f26        0x8 ../../../../../../Library/Bluetooth_LE/library/libbluenrg1_stack.a(bluenrg_gatt_aci.o)
                0x0000000010046f26                aci_gatt_del_char
 i.aci_gatt_del_include_service
                0x0000000010046f2e        0x8 ../../../../../../Library/Bluetooth_LE/library/libbluenrg1_stack.a(bluenrg_gatt_aci.o)
                0x0000000010046f2e                aci_gatt_del_include_service
 i.aci_gatt_del_service
                0x0000000010046f36        0x8 ../../../../../../Library/Bluetooth_LE/library/libbluenrg1_stack.a(bluenrg_gatt_aci.o)
                0x0000000010046f36                aci_gatt_del_service
 i.aci_gatt_deny_read
                0x0000000010046f3e        0xc ../../../../../../Library/Bluetooth_LE/library/libbluenrg1_stack.a(bluenrg_gatt_aci.o)
                0x0000000010046f3e                aci_gatt_deny_read
 i.aci_gatt_disc_all_char_desc
                0x0000000010046f4a        0x8 ../../../../../../Library/Bluetooth_LE/library/libbluenrg1_stack.a(bluenrg_gatt_aci.o)
                0x0000000010046f4a                aci_gatt_disc_all_char_desc
 i.aci_gatt_disc_all_char_of_service
                0x0000000010046f52        0x8 ../../../../../../Library/Bluetooth_LE/library/libbluenrg1_stack.a(bluenrg_gatt_aci.o)
                0x0000000010046f52                aci_gatt_disc_all_char_of_service
 i.aci_gatt_disc_all_primary_services
                0x0000000010046f5a        0x8 ../../../../../../Library/Bluetooth_LE/library/libbluenrg1_stack.a(bluenrg_gatt_aci.o)
                0x0000000010046f5a                aci_gatt_disc_all_primary_services
 i.aci_gatt_disc_char_by_uuid
                0x0000000010046f62       0x28 ../../../../../../Library/Bluetooth_LE/library/libbluenrg1_stack.a(bluenrg_gatt_aci.o)
                0x0000000010046f62                aci_gatt_disc_char_by_uuid
 i.aci_gatt_disc_primary_service_by_uuid
                0x0000000010046f8a       0x20 ../../../../../../Library/Bluetooth_LE/library/libbluenrg1_stack.a(bluenrg_gatt_aci.o)
                0x0000000010046f8a                aci_gatt_disc_primary_service_by_uuid
 i.aci_gatt_exchange_config
                0x0000000010046faa        0x8 ../../../../../../Library/Bluetooth_LE/library/libbluenrg1_stack.a(bluenrg_gatt_aci.o)
                0x0000000010046faa                aci_gatt_exchange_config
 i.aci_gatt_find_included_services
                0x0000000010046fb2        0x8 ../../../../../../Library/Bluetooth_LE/library/libbluenrg1_stack.a(bluenrg_gatt_aci.o)
                0x0000000010046fb2                aci_gatt_find_included_services
 i.aci_gatt_include_service
                0x0000000010046fba       0x2e ../../../../../../Library/Bluetooth_LE/library/libbluenrg1_stack.a(bluenrg_gatt_aci.o)
                0x0000000010046fba                aci_gatt_include_service
 i.aci_gatt_init
                0x0000000010046fe8        0x8 ../../../../../../Library/Bluetooth_LE/library/libbluenrg1_stack.a(bluenrg_gatt_aci.o)
                0x0000000010046fe8                aci_gatt_init
 i.aci_gatt_read_char_desc
                0x0000000010046ff0        0x8 ../../../../../../Library/Bluetooth_LE/library/libbluenrg1_stack.a(bluenrg_gatt_aci.o)
                0x0000000010046ff0                aci_gatt_read_char_desc
 i.aci_gatt_read_char_value
                0x0000000010046ff8        0x8 ../../../../../../Library/Bluetooth_LE/library/libbluenrg1_stack.a(bluenrg_gatt_aci.o)
                0x0000000010046ff8                aci_gatt_read_char_value
 i.aci_gatt_read_handle_value
                0x0000000010047000       0x54 ../../../../../../Library/Bluetooth_LE/library/libbluenrg1_stack.a(bluenrg_gatt_aci.o)
                0x0000000010047000                aci_gatt_read_handle_value
 i.aci_gatt_read_long_char_desc
                0x0000000010047054        0x8 ../../../../../../Library/Bluetooth_LE/library/libbluenrg1_stack.a(bluenrg_gatt_aci.o)
                0x0000000010047054                aci_gatt_read_long_char_desc
 i.aci_gatt_read_long_char_value
                0x000000001004705c        0x8 ../../../../../../Library/Bluetooth_LE/library/libbluenrg1_stack.a(bluenrg_gatt_aci.o)
                0x000000001004705c                aci_gatt_read_long_char_value
 i.aci_gatt_read_multiple_char_value
                0x0000000010047064        0x8 ../../../../../../Library/Bluetooth_LE/library/libbluenrg1_stack.a(bluenrg_gatt_aci.o)
                0x0000000010047064                aci_gatt_read_multiple_char_value
 i.aci_gatt_read_using_char_uuid
                0x000000001004706c       0x28 ../../../../../../Library/Bluetooth_LE/library/libbluenrg1_stack.a(bluenrg_gatt_aci.o)
                0x000000001004706c                aci_gatt_read_using_char_uuid
 i.aci_gatt_set_access_permission
                0x0000000010047094        0x8 ../../../../../../Library/Bluetooth_LE/library/libbluenrg1_stack.a(bluenrg_gatt_aci.o)
                0x0000000010047094                aci_gatt_set_access_permission
 i.aci_gatt_set_desc_value
                0x000000001004709c       0x1c ../../../../../../Library/Bluetooth_LE/library/libbluenrg1_stack.a(bluenrg_gatt_aci.o)
                0x000000001004709c                aci_gatt_set_desc_value
 i.aci_gatt_set_event_mask
                0x00000000100470b8       0x20 ../../../../../../Library/Bluetooth_LE/library/libbluenrg1_stack.a(bluenrg_gatt_aci.o)
                0x00000000100470b8                aci_gatt_set_event_mask
 i.aci_gatt_set_security_permission
                0x00000000100470d8        0x8 ../../../../../../Library/Bluetooth_LE/library/libbluenrg1_stack.a(bluenrg_gatt_aci.o)
                0x00000000100470d8                aci_gatt_set_security_permission
 i.aci_gatt_signed_write_without_resp
                0x00000000100470e0        0x8 ../../../../../../Library/Bluetooth_LE/library/libbluenrg1_stack.a(bluenrg_gatt_aci.o)
                0x00000000100470e0                aci_gatt_signed_write_without_resp
 i.aci_gatt_update_char_value
                0x00000000100470e8       0x14 ../../../../../../Library/Bluetooth_LE/library/libbluenrg1_stack.a(bluenrg_gatt_aci.o)
                0x00000000100470e8                aci_gatt_update_char_value
 i.aci_gatt_update_char_value_ext
                0x00000000100470fc       0x22 ../../../../../../Library/Bluetooth_LE/library/libbluenrg1_stack.a(bluenrg_gatt_aci.o)
                0x00000000100470fc                aci_gatt_update_char_value_ext
 i.aci_gatt_write_char_desc
                0x000000001004711e        0x8 ../../../../../../Library/Bluetooth_LE/library/libbluenrg1_stack.a(bluenrg_gatt_aci.o)
                0x000000001004711e                aci_gatt_write_char_desc
 i.aci_gatt_write_char_reliable
                0x0000000010047126       0x14 ../../../../../../Library/Bluetooth_LE/library/libbluenrg1_stack.a(bluenrg_gatt_aci.o)
                0x0000000010047126                aci_gatt_write_char_reliable
 i.aci_gatt_write_char_value
                0x000000001004713a        0x8 ../../../../../../Library/Bluetooth_LE/library/libbluenrg1_stack.a(bluenrg_gatt_aci.o)
                0x000000001004713a                aci_gatt_write_char_value
 i.aci_gatt_write_long_char_desc
                0x0000000010047142       0x14 ../../../../../../Library/Bluetooth_LE/library/libbluenrg1_stack.a(bluenrg_gatt_aci.o)
                0x0000000010047142                aci_gatt_write_long_char_desc
 i.aci_gatt_write_long_char_value
                0x0000000010047156       0x14 ../../../../../../Library/Bluetooth_LE/library/libbluenrg1_stack.a(bluenrg_gatt_aci.o)
                0x0000000010047156                aci_gatt_write_long_char_value
 i.aci_gatt_write_resp
                0x000000001004716a       0x1c ../../../../../../Library/Bluetooth_LE/library/libbluenrg1_stack.a(bluenrg_gatt_aci.o)
                0x000000001004716a                aci_gatt_write_resp
 i.aci_gatt_write_without_resp
                0x0000000010047186        0x8 ../../../../../../Library/Bluetooth_LE/library/libbluenrg1_stack.a(bluenrg_gatt_aci.o)
                0x0000000010047186                aci_gatt_write_without_resp
 *fill*         0x000000001004718e        0x2 
 i.aci_hal_get_fw_build_number
                0x0000000010047190        0xc ../../../../../../Library/Bluetooth_LE/library/libbluenrg1_stack.a(bluenrg_hal_aci.o)
                0x0000000010047190                aci_hal_get_fw_build_number
 i.aci_hal_le_tx_test_packet_number
                0x000000001004719c       0x18 ../../../../../../Library/Bluetooth_LE/library/libbluenrg1_stack.a(bluenrg_hal_aci.o)
                0x000000001004719c                aci_hal_le_tx_test_packet_number
 i.aci_hal_read_config_data
                0x00000000100471b4        0x8 ../../../../../../Library/Bluetooth_LE/library/libbluenrg1_stack.a(bluenrg_hal_aci.o)
                0x00000000100471b4                aci_hal_read_config_data
 i.aci_hal_set_event_mask
                0x00000000100471bc       0x20 ../../../../../../Library/Bluetooth_LE/library/libbluenrg1_stack.a(bluenrg_hal_aci.o)
                0x00000000100471bc                aci_hal_set_event_mask
 i.aci_hal_set_tx_power_level
                0x00000000100471dc        0x8 ../../../../../../Library/Bluetooth_LE/library/libbluenrg1_stack.a(bluenrg_hal_aci.o)
                0x00000000100471dc                aci_hal_set_tx_power_level
 i.aci_hal_tone_start
                0x00000000100471e4       0xe0 ../../../../../../Library/Bluetooth_LE/library/libbluenrg1_stack.a(bluenrg_hal_aci.o)
                0x00000000100471e4                aci_hal_tone_start
 i.aci_hal_tone_stop
                0x00000000100472c4       0x44 ../../../../../../Library/Bluetooth_LE/library/libbluenrg1_stack.a(bluenrg_hal_aci.o)
                0x00000000100472c4                aci_hal_tone_stop
 i.aci_hal_write_config_data
                0x0000000010047308        0x8 ../../../../../../Library/Bluetooth_LE/library/libbluenrg1_stack.a(bluenrg_hal_aci.o)
                0x0000000010047308                aci_hal_write_config_data
 i.aci_l2cap_connection_parameter_update_req
                0x0000000010047310       0x18 ../../../../../../Library/Bluetooth_LE/library/libbluenrg1_stack.a(bluenrg_l2cap_aci.o)
                0x0000000010047310                aci_l2cap_connection_parameter_update_req
 i.aci_l2cap_connection_parameter_update_resp_api
                0x0000000010047328       0x2a ../../../../../../Library/Bluetooth_LE/library/libbluenrg1_stack.a(bluenrg_l2cap_aci.o)
                0x0000000010047328                aci_l2cap_connection_parameter_update_resp_api
 *fill*         0x0000000010047352        0x2 
 i.BTLE_StackTick
                0x0000000010047354       0x84 ../../../../../../Library/Bluetooth_LE/library/libbluenrg1_stack.a(bluenrg_main_func.o)
                0x0000000010047354                BTLE_StackTick
 i.BlueNRG_Stack_Initialization
                0x00000000100473d8       0x44 ../../../../../../Library/Bluetooth_LE/library/libbluenrg1_stack.a(bluenrg_main_func.o)
                0x00000000100473d8                BlueNRG_Stack_Initialization
 i.BlueNRG_Stack_Initialize_ConfigData
                0x000000001004741c       0x64 ../../../../../../Library/Bluetooth_LE/library/libbluenrg1_stack.a(bluenrg_main_func.o)
 i.BlueNRG_Stack_Initialize_Layers
                0x0000000010047480       0x84 ../../../../../../Library/Bluetooth_LE/library/libbluenrg1_stack.a(bluenrg_main_func.o)
 i.BlueNRG_Stack_Initialize_RAM_check
                0x0000000010047504       0x7c ../../../../../../Library/Bluetooth_LE/library/libbluenrg1_stack.a(bluenrg_main_func.o)
 i.BlueNRG_Stack_Perform_Crystal_Check
                0x0000000010047580       0xc4 ../../../../../../Library/Bluetooth_LE/library/libbluenrg1_stack.a(bluenrg_main_func.o)
 i.BlueNRG_Start_Crystal_Measurement
                0x0000000010047644       0x1c ../../../../../../Library/Bluetooth_LE/library/libbluenrg1_stack.a(bluenrg_main_func.o)
 i._BlueNRG_Stack_Initialization
                0x0000000010047660       0xe8 ../../../../../../Library/Bluetooth_LE/library/libbluenrg1_stack.a(bluenrg_main_func.o)
                0x0000000010047660                _BlueNRG_Stack_Initialization
 i.GAP_Connection_Complete_Handler
                0x0000000010047748       0x68 ../../../../../../Library/Bluetooth_LE/library/libbluenrg1_stack.a(gap.o)
                0x0000000010047748                GAP_Connection_Complete_Handler
 i.GAP_Create_Connection
                0x00000000100477b0       0x64 ../../../../../../Library/Bluetooth_LE/library/libbluenrg1_stack.a(gap.o)
                0x00000000100477b0                GAP_Create_Connection
 i.GAP_DiscProcTimeoutcb
                0x0000000010047814       0x48 ../../../../../../Library/Bluetooth_LE/library/libbluenrg1_stack.a(gap.o)
                0x0000000010047814                GAP_DiscProcTimeoutcb
 i.GAP_Init     0x000000001004785c      0x1fc ../../../../../../Library/Bluetooth_LE/library/libbluenrg1_stack.a(gap.o)
                0x000000001004785c                GAP_Init
 i.GAP_Init_Context
                0x0000000010047a58       0x14 ../../../../../../Library/Bluetooth_LE/library/libbluenrg1_stack.a(gap.o)
                0x0000000010047a58                GAP_Init_Context
 i.GAP_Internal_Evt_Handler
                0x0000000010047a6c       0x3c ../../../../../../Library/Bluetooth_LE/library/libbluenrg1_stack.a(gap.o)
                0x0000000010047a6c                GAP_Internal_Evt_Handler
 i.GAP_LL_Event_Handler_ISR
                0x0000000010047aa8       0x68 ../../../../../../Library/Bluetooth_LE/library/libbluenrg1_stack.a(gap.o)
                0x0000000010047aa8                GAP_LL_Event_Handler_ISR
 i.GAP_LimDiscTimeoutcb
                0x0000000010047b10       0x2c ../../../../../../Library/Bluetooth_LE/library/libbluenrg1_stack.a(gap.o)
                0x0000000010047b10                GAP_LimDiscTimeoutcb
 i.GAP_Process_Q
                0x0000000010047b3c       0x40 ../../../../../../Library/Bluetooth_LE/library/libbluenrg1_stack.a(gap.o)
                0x0000000010047b3c                GAP_Process_Q
 i.GAP_Set_Broadcast_Mode
                0x0000000010047b7c       0x48 ../../../../../../Library/Bluetooth_LE/library/libbluenrg1_stack.a(gap.o)
                0x0000000010047b7c                GAP_Set_Broadcast_Mode
 i.GAP_Set_Direct_Connectable_Mode
                0x0000000010047bc4       0x30 ../../../../../../Library/Bluetooth_LE/library/libbluenrg1_stack.a(gap.o)
                0x0000000010047bc4                GAP_Set_Direct_Connectable_Mode
 i.GAP_Set_Discoverable_Mode
                0x0000000010047bf4       0x38 ../../../../../../Library/Bluetooth_LE/library/libbluenrg1_stack.a(gap.o)
                0x0000000010047bf4                GAP_Set_Discoverable_Mode
 i.GAP_Set_Limited_Discoverable_Mode
                0x0000000010047c2c       0x54 ../../../../../../Library/Bluetooth_LE/library/libbluenrg1_stack.a(gap.o)
                0x0000000010047c2c                GAP_Set_Limited_Discoverable_Mode
 i.GAP_Set_NonConnectable_Mode
                0x0000000010047c80       0x2c ../../../../../../Library/Bluetooth_LE/library/libbluenrg1_stack.a(gap.o)
                0x0000000010047c80                GAP_Set_NonConnectable_Mode
 i.GAP_Set_Non_Discoverable_Mode
                0x0000000010047cac       0x2c ../../../../../../Library/Bluetooth_LE/library/libbluenrg1_stack.a(gap.o)
                0x0000000010047cac                GAP_Set_Non_Discoverable_Mode
 i.GAP_Set_Undirected_Connectable_Mode
                0x0000000010047cd8       0x30 ../../../../../../Library/Bluetooth_LE/library/libbluenrg1_stack.a(gap.o)
                0x0000000010047cd8                GAP_Set_Undirected_Connectable_Mode
 i.GAP_Start_Auto_Conn_Establishment_Proc
                0x0000000010047d08       0x58 ../../../../../../Library/Bluetooth_LE/library/libbluenrg1_stack.a(gap.o)
                0x0000000010047d08                GAP_Start_Auto_Conn_Establishment_Proc
 i.GAP_Start_General_Conn_Establishment_Proc
                0x0000000010047d60       0x5c ../../../../../../Library/Bluetooth_LE/library/libbluenrg1_stack.a(gap.o)
                0x0000000010047d60                GAP_Start_General_Conn_Establishment_Proc
 i.GAP_Start_General_Discovery_Procedure
                0x0000000010047dbc       0x48 ../../../../../../Library/Bluetooth_LE/library/libbluenrg1_stack.a(gap.o)
                0x0000000010047dbc                GAP_Start_General_Discovery_Procedure
 i.GAP_Start_Limited_Discovery_Procedure
                0x0000000010047e04       0x48 ../../../../../../Library/Bluetooth_LE/library/libbluenrg1_stack.a(gap.o)
                0x0000000010047e04                GAP_Start_Limited_Discovery_Procedure
 i.GAP_Start_Name_Discovery_Procedure
                0x0000000010047e4c       0x50 ../../../../../../Library/Bluetooth_LE/library/libbluenrg1_stack.a(gap.o)
                0x0000000010047e4c                GAP_Start_Name_Discovery_Procedure
 i.GAP_Start_Observation_Procedure
                0x0000000010047e9c       0x74 ../../../../../../Library/Bluetooth_LE/library/libbluenrg1_stack.a(gap.o)
                0x0000000010047e9c                GAP_Start_Observation_Procedure
 i.GAP_Start_Selective_Conn_Establishment_Proc
                0x0000000010047f10       0x6c ../../../../../../Library/Bluetooth_LE/library/libbluenrg1_stack.a(gap.o)
                0x0000000010047f10                GAP_Start_Selective_Conn_Establishment_Proc
 i.GAP_Started_Gatt_Proc
                0x0000000010047f7c       0x2c ../../../../../../Library/Bluetooth_LE/library/libbluenrg1_stack.a(gap.o)
                0x0000000010047f7c                GAP_Started_Gatt_Proc
 i.GAP_Terminate_Gap_Procedure
                0x0000000010047fa8       0x8c ../../../../../../Library/Bluetooth_LE/library/libbluenrg1_stack.a(gap.o)
                0x0000000010047fa8                GAP_Terminate_Gap_Procedure
 i.GAP_check_and_set_role
                0x0000000010048034        0xe ../../../../../../Library/Bluetooth_LE/library/libbluenrg1_stack.a(gap.o)
                0x0000000010048034                GAP_check_and_set_role
 *fill*         0x0000000010048042        0x2 
 i.GAP_discover_peer_name
                0x0000000010048044       0x44 ../../../../../../Library/Bluetooth_LE/library/libbluenrg1_stack.a(gap.o)
                0x0000000010048044                GAP_discover_peer_name
 i.GAP_enable_controller_privacy
                0x0000000010048088       0x44 ../../../../../../Library/Bluetooth_LE/library/libbluenrg1_stack.a(gap.o)
                0x0000000010048088                GAP_enable_controller_privacy
 i._GAP_Parse_Advertising_Report
                0x00000000100480cc       0x64 ../../../../../../Library/Bluetooth_LE/library/libbluenrg1_stack.a(gap.o)
 i._gap_set_discoverable_connectable
                0x0000000010048130      0x174 ../../../../../../Library/Bluetooth_LE/library/libbluenrg1_stack.a(gap.o)
                0x0000000010048130                _gap_set_discoverable_connectable
 i.aci_gap_limited_discoverable_event_push
                0x00000000100482a4       0x50 ../../../../../../Library/Bluetooth_LE/library/libbluenrg1_stack.a(gap.o)
 i.aci_gap_proc_complete_event_push
                0x00000000100482f4       0x74 ../../../../../../Library/Bluetooth_LE/library/libbluenrg1_stack.a(gap.o)
 i.advParamsCheckAndSet
                0x0000000010048368       0x88 ../../../../../../Library/Bluetooth_LE/library/libbluenrg1_stack.a(gap.o)
                0x0000000010048368                advParamsCheckAndSet
 i.gapClearAllModeFlags
                0x00000000100483f0       0x14 ../../../../../../Library/Bluetooth_LE/library/libbluenrg1_stack.a(gap.o)
                0x00000000100483f0                gapClearAllModeFlags
 i.setGapAdvData
                0x0000000010048404      0x104 ../../../../../../Library/Bluetooth_LE/library/libbluenrg1_stack.a(gap.o)
                0x0000000010048404                setGapAdvData
 i.Check_and_find_gatt_client
                0x0000000010048508       0x18 ../../../../../../Library/Bluetooth_LE/library/libbluenrg1_stack.a(gatt_client.o)
 i.Find_Gatt_Client
                0x0000000010048520       0x3c ../../../../../../Library/Bluetooth_LE/library/libbluenrg1_stack.a(gatt_client.o)
                0x0000000010048520                Find_Gatt_Client
 i.GATT_Server_Set_Flag
                0x000000001004855c       0x18 ../../../../../../Library/Bluetooth_LE/library/libbluenrg1_stack.a(gatt_client.o)
 i.Gatt_All_Primary_Cb
                0x0000000010048574        0xa ../../../../../../Library/Bluetooth_LE/library/libbluenrg1_stack.a(gatt_client.o)
 i.Gatt_Check_Not_Error_Resp
                0x000000001004857e       0x52 ../../../../../../Library/Bluetooth_LE/library/libbluenrg1_stack.a(gatt_client.o)
 i.Gatt_Confirm_Indication
                0x00000000100485d0       0x44 ../../../../../../Library/Bluetooth_LE/library/libbluenrg1_stack.a(gatt_client.o)
                0x00000000100485d0                Gatt_Confirm_Indication
 i.Gatt_Disc_All_Charac_By_Uuid_Cb
                0x0000000010048614        0xa ../../../../../../Library/Bluetooth_LE/library/libbluenrg1_stack.a(gatt_client.o)
 i.Gatt_Disc_All_Charac_Cb
                0x000000001004861e        0xa ../../../../../../Library/Bluetooth_LE/library/libbluenrg1_stack.a(gatt_client.o)
 i.Gatt_Disc_All_Charac_Of_Serv
                0x0000000010048628       0x6c ../../../../../../Library/Bluetooth_LE/library/libbluenrg1_stack.a(gatt_client.o)
                0x0000000010048628                Gatt_Disc_All_Charac_Of_Serv
 i.Gatt_Disc_All_Prim_Services
                0x0000000010048694       0x6c ../../../../../../Library/Bluetooth_LE/library/libbluenrg1_stack.a(gatt_client.o)
                0x0000000010048694                Gatt_Disc_All_Prim_Services
 i.Gatt_Disc_Charac_By_Uuid
                0x0000000010048700       0xac ../../../../../../Library/Bluetooth_LE/library/libbluenrg1_stack.a(gatt_client.o)
                0x0000000010048700                Gatt_Disc_Charac_By_Uuid
 i.Gatt_Disc_Charac_Desc
                0x00000000100487ac       0x60 ../../../../../../Library/Bluetooth_LE/library/libbluenrg1_stack.a(gatt_client.o)
                0x00000000100487ac                Gatt_Disc_Charac_Desc
 i.Gatt_Disc_Charac_Desc_Cb
                0x000000001004880c        0xa ../../../../../../Library/Bluetooth_LE/library/libbluenrg1_stack.a(gatt_client.o)
 *fill*         0x0000000010048816        0x2 
 i.Gatt_Disc_Prim_serv_By_Uuid
                0x0000000010048818       0xa0 ../../../../../../Library/Bluetooth_LE/library/libbluenrg1_stack.a(gatt_client.o)
                0x0000000010048818                Gatt_Disc_Prim_serv_By_Uuid
 i.Gatt_Disc_Prim_serv_By_Uuid_Cb
                0x00000000100488b8        0xa ../../../../../../Library/Bluetooth_LE/library/libbluenrg1_stack.a(gatt_client.o)
 *fill*         0x00000000100488c2        0x2 
 i.Gatt_Exchange_Configuration
                0x00000000100488c4       0x50 ../../../../../../Library/Bluetooth_LE/library/libbluenrg1_stack.a(gatt_client.o)
                0x00000000100488c4                Gatt_Exchange_Configuration
 i.Gatt_Exchange_Configuration_Cb
                0x0000000010048914       0xc4 ../../../../../../Library/Bluetooth_LE/library/libbluenrg1_stack.a(gatt_client.o)
 i.Gatt_Execute_Write_Req
                0x00000000100489d8       0x12 ../../../../../../Library/Bluetooth_LE/library/libbluenrg1_stack.a(gatt_client.o)
                0x00000000100489d8                Gatt_Execute_Write_Req
 i.Gatt_Find_Attr_By_Typ_And_Value_Req
                0x00000000100489ea       0x1e ../../../../../../Library/Bluetooth_LE/library/libbluenrg1_stack.a(gatt_client.o)
                0x00000000100489ea                Gatt_Find_Attr_By_Typ_And_Value_Req
 i.Gatt_Find_Incl_Serv_Cb
                0x0000000010048a08        0xa ../../../../../../Library/Bluetooth_LE/library/libbluenrg1_stack.a(gatt_client.o)
 *fill*         0x0000000010048a12        0x2 
 i.Gatt_Find_Included_Services
                0x0000000010048a14       0x6c ../../../../../../Library/Bluetooth_LE/library/libbluenrg1_stack.a(gatt_client.o)
                0x0000000010048a14                Gatt_Find_Included_Services
 i.Gatt_Find_Information_Req
                0x0000000010048a80       0x12 ../../../../../../Library/Bluetooth_LE/library/libbluenrg1_stack.a(gatt_client.o)
                0x0000000010048a80                Gatt_Find_Information_Req
 *fill*         0x0000000010048a92        0x2 
 i.Gatt_Handler2
                0x0000000010048a94       0xfc ../../../../../../Library/Bluetooth_LE/library/libbluenrg1_stack.a(gatt_client.o)
                0x0000000010048a94                Gatt_Handler2
 i.Gatt_Multi_Charac_Values
                0x0000000010048b90       0x58 ../../../../../../Library/Bluetooth_LE/library/libbluenrg1_stack.a(gatt_client.o)
                0x0000000010048b90                Gatt_Multi_Charac_Values
 i.Gatt_Prepare_Write_Req
                0x0000000010048be8       0x18 ../../../../../../Library/Bluetooth_LE/library/libbluenrg1_stack.a(gatt_client.o)
                0x0000000010048be8                Gatt_Prepare_Write_Req
 i.Gatt_Read    0x0000000010048c00       0x58 ../../../../../../Library/Bluetooth_LE/library/libbluenrg1_stack.a(gatt_client.o)
 i.Gatt_Read_Attr_By_Grp_Type_Req
                0x0000000010048c58       0x30 ../../../../../../Library/Bluetooth_LE/library/libbluenrg1_stack.a(gatt_client.o)
                0x0000000010048c58                Gatt_Read_Attr_By_Grp_Type_Req
 i.Gatt_Read_Attr_By_Type_Req
                0x0000000010048c88       0x30 ../../../../../../Library/Bluetooth_LE/library/libbluenrg1_stack.a(gatt_client.o)
                0x0000000010048c88                Gatt_Read_Attr_By_Type_Req
 i.Gatt_Read_Cb
                0x0000000010048cb8        0xa ../../../../../../Library/Bluetooth_LE/library/libbluenrg1_stack.a(gatt_client.o)
 *fill*         0x0000000010048cc2        0x2 
 i.Gatt_Read_Charac_By_Uuid
                0x0000000010048cc4       0x80 ../../../../../../Library/Bluetooth_LE/library/libbluenrg1_stack.a(gatt_client.o)
                0x0000000010048cc4                Gatt_Read_Charac_By_Uuid
 i.Gatt_Read_Charac_By_Uuid_Cb
                0x0000000010048d44        0xa ../../../../../../Library/Bluetooth_LE/library/libbluenrg1_stack.a(gatt_client.o)
 i.Gatt_Read_Charac_Desc
                0x0000000010048d4e        0x8 ../../../../../../Library/Bluetooth_LE/library/libbluenrg1_stack.a(gatt_client.o)
                0x0000000010048d4e                Gatt_Read_Charac_Desc
 i.Gatt_Read_Charac_Val
                0x0000000010048d56        0x8 ../../../../../../Library/Bluetooth_LE/library/libbluenrg1_stack.a(gatt_client.o)
                0x0000000010048d56                Gatt_Read_Charac_Val
 *fill*         0x0000000010048d5e        0x2 
 i.Gatt_Read_Long
                0x0000000010048d60       0x6c ../../../../../../Library/Bluetooth_LE/library/libbluenrg1_stack.a(gatt_client.o)
 i.Gatt_Read_Long_Cb
                0x0000000010048dcc        0xa ../../../../../../Library/Bluetooth_LE/library/libbluenrg1_stack.a(gatt_client.o)
 i.Gatt_Read_Long_Charac_Desc
                0x0000000010048dd6        0x8 ../../../../../../Library/Bluetooth_LE/library/libbluenrg1_stack.a(gatt_client.o)
                0x0000000010048dd6                Gatt_Read_Long_Charac_Desc
 i.Gatt_Read_Long_Charac_Value
                0x0000000010048dde        0x8 ../../../../../../Library/Bluetooth_LE/library/libbluenrg1_stack.a(gatt_client.o)
                0x0000000010048dde                Gatt_Read_Long_Charac_Value
 i.Gatt_Read_Multi_Attr_Cb
                0x0000000010048de6        0xa ../../../../../../Library/Bluetooth_LE/library/libbluenrg1_stack.a(gatt_client.o)
 i.Gatt_Request_Cb
                0x0000000010048df0      0x12c ../../../../../../Library/Bluetooth_LE/library/libbluenrg1_stack.a(gatt_client.o)
 i.Gatt_Signed_Write_Without_Resp
                0x0000000010048f1c       0x70 ../../../../../../Library/Bluetooth_LE/library/libbluenrg1_stack.a(gatt_client.o)
                0x0000000010048f1c                Gatt_Signed_Write_Without_Resp
 i.Gatt_Super_Handler
                0x0000000010048f8c      0x328 ../../../../../../Library/Bluetooth_LE/library/libbluenrg1_stack.a(gatt_client.o)
 i.Gatt_Super_Handler_Task7
                0x00000000100492b4      0x188 ../../../../../../Library/Bluetooth_LE/library/libbluenrg1_stack.a(gatt_client.o)
 i.Gatt_Write   0x000000001004943c       0x60 ../../../../../../Library/Bluetooth_LE/library/libbluenrg1_stack.a(gatt_client.o)
 i.Gatt_Write_Cb
                0x000000001004949c        0xa ../../../../../../Library/Bluetooth_LE/library/libbluenrg1_stack.a(gatt_client.o)
 i.Gatt_Write_Char_Reliable_Cb
                0x00000000100494a6        0xa ../../../../../../Library/Bluetooth_LE/library/libbluenrg1_stack.a(gatt_client.o)
 i.Gatt_Write_Charac_Desc
                0x00000000100494b0        0xe ../../../../../../Library/Bluetooth_LE/library/libbluenrg1_stack.a(gatt_client.o)
                0x00000000100494b0                Gatt_Write_Charac_Desc
 *fill*         0x00000000100494be        0x2 
 i.Gatt_Write_Charac_Reliable
                0x00000000100494c0       0xd8 ../../../../../../Library/Bluetooth_LE/library/libbluenrg1_stack.a(gatt_client.o)
                0x00000000100494c0                Gatt_Write_Charac_Reliable
 i.Gatt_Write_Charac_Value
                0x0000000010049598        0xe ../../../../../../Library/Bluetooth_LE/library/libbluenrg1_stack.a(gatt_client.o)
                0x0000000010049598                Gatt_Write_Charac_Value
 *fill*         0x00000000100495a6        0x2 
 i.Gatt_Write_Long
                0x00000000100495a8       0xd4 ../../../../../../Library/Bluetooth_LE/library/libbluenrg1_stack.a(gatt_client.o)
 i.Gatt_Write_Long_Cb
                0x000000001004967c        0xa ../../../../../../Library/Bluetooth_LE/library/libbluenrg1_stack.a(gatt_client.o)
 i.Gatt_Write_Long_Charac_Desc
                0x0000000010049686       0x10 ../../../../../../Library/Bluetooth_LE/library/libbluenrg1_stack.a(gatt_client.o)
                0x0000000010049686                Gatt_Write_Long_Charac_Desc
 i.Gatt_Write_Long_Charac_Values
                0x0000000010049696       0x10 ../../../../../../Library/Bluetooth_LE/library/libbluenrg1_stack.a(gatt_client.o)
                0x0000000010049696                Gatt_Write_Long_Charac_Values
 *fill*         0x00000000100496a6        0x2 
 i.Gatt_Write_Without_Resp
                0x00000000100496a8       0x70 ../../../../../../Library/Bluetooth_LE/library/libbluenrg1_stack.a(gatt_client.o)
                0x00000000100496a8                Gatt_Write_Without_Resp
 i.PM_Get_Host_Pckt
                0x0000000010049718       0x10 ../../../../../../Library/Bluetooth_LE/library/libbluenrg1_stack.a(gatt_client.o)
 i.aci_att_exec_write_resp_event_push
                0x0000000010049728       0x54 ../../../../../../Library/Bluetooth_LE/library/libbluenrg1_stack.a(gatt_client.o)
 i.aci_att_find_by_type_value_resp_event_push
                0x000000001004977c       0x78 ../../../../../../Library/Bluetooth_LE/library/libbluenrg1_stack.a(gatt_client.o)
 i.aci_att_find_info_resp_event_push
                0x00000000100497f4       0x7c ../../../../../../Library/Bluetooth_LE/library/libbluenrg1_stack.a(gatt_client.o)
 i.aci_att_prepare_write_resp_event_push
                0x0000000010049870       0xa4 ../../../../../../Library/Bluetooth_LE/library/libbluenrg1_stack.a(gatt_client.o)
 i.aci_att_read_blob_resp_event_push
                0x0000000010049914       0x74 ../../../../../../Library/Bluetooth_LE/library/libbluenrg1_stack.a(gatt_client.o)
 i.aci_att_read_by_group_type_resp_event_push
                0x0000000010049988       0x7c ../../../../../../Library/Bluetooth_LE/library/libbluenrg1_stack.a(gatt_client.o)
 i.aci_att_read_by_type_resp_event_push
                0x0000000010049a04       0x7c ../../../../../../Library/Bluetooth_LE/library/libbluenrg1_stack.a(gatt_client.o)
 i.aci_att_read_multiple_resp_event_push
                0x0000000010049a80       0x74 ../../../../../../Library/Bluetooth_LE/library/libbluenrg1_stack.a(gatt_client.o)
 i.aci_att_read_resp_event_push
                0x0000000010049af4       0x74 ../../../../../../Library/Bluetooth_LE/library/libbluenrg1_stack.a(gatt_client.o)
 i.aci_gatt_disc_read_char_by_uuid_resp_event_push
                0x0000000010049b68       0x84 ../../../../../../Library/Bluetooth_LE/library/libbluenrg1_stack.a(gatt_client.o)
 i.aci_gatt_error_resp_event_push
                0x0000000010049bec       0x78 ../../../../../../Library/Bluetooth_LE/library/libbluenrg1_stack.a(gatt_client.o)
 i.aci_gatt_proc_complete_event_push
                0x0000000010049c64       0x58 ../../../../../../Library/Bluetooth_LE/library/libbluenrg1_stack.a(gatt_client.o)
 i.int16ToLe2Byte
                0x0000000010049cbc        0x8 ../../../../../../Library/Bluetooth_LE/library/libbluenrg1_stack.a(gatt_client.o)
 i.le2ByteToInt16
                0x0000000010049cc4        0xa ../../../../../../Library/Bluetooth_LE/library/libbluenrg1_stack.a(gatt_client.o)
 *fill*         0x0000000010049cce        0x2 
 i.long_write_procedure
                0x0000000010049cd0      0x248 ../../../../../../Library/Bluetooth_LE/library/libbluenrg1_stack.a(gatt_client.o)
                0x0000000010049cd0                long_write_procedure
 i.send_gatt_event
                0x0000000010049f18       0x46 ../../../../../../Library/Bluetooth_LE/library/libbluenrg1_stack.a(gatt_client.o)
 i.Build_Notif_Or_Ind
                0x0000000010049f5e       0x3e ../../../../../../Library/Bluetooth_LE/library/libbluenrg1_stack.a(gatt_server.o)
                0x0000000010049f5e                Build_Notif_Or_Ind
 i.Check_For_Service_Change
                0x0000000010049f9c      0x34c ../../../../../../Library/Bluetooth_LE/library/libbluenrg1_stack.a(gatt_server.o)
                0x0000000010049f9c                Check_For_Service_Change
 i.Find_Attr_Index
                0x000000001004a2e8       0x50 ../../../../../../Library/Bluetooth_LE/library/libbluenrg1_stack.a(gatt_server.o)
                0x000000001004a2e8                Find_Attr_Index
 i.Find_Timed_Out_Connection
                0x000000001004a338       0x20 ../../../../../../Library/Bluetooth_LE/library/libbluenrg1_stack.a(gatt_server.o)
                0x000000001004a338                Find_Timed_Out_Connection
 i.GATT_Connection_Complete_Handler
                0x000000001004a358       0x44 ../../../../../../Library/Bluetooth_LE/library/libbluenrg1_stack.a(gatt_server.o)
                0x000000001004a358                GATT_Connection_Complete_Handler
 i.GATT_Send_Packet
                0x000000001004a39c       0x2c ../../../../../../Library/Bluetooth_LE/library/libbluenrg1_stack.a(gatt_server.o)
                0x000000001004a39c                GATT_Send_Packet
 i.GATT_Server_Set_Flag
                0x000000001004a3c8       0x18 ../../../../../../Library/Bluetooth_LE/library/libbluenrg1_stack.a(gatt_server.o)
 i.GATT_TimeOut_Handler
                0x000000001004a3e0       0x1a ../../../../../../Library/Bluetooth_LE/library/libbluenrg1_stack.a(gatt_server.o)
                0x000000001004a3e0                GATT_TimeOut_Handler
 *fill*         0x000000001004a3fa        0x2 
 i.Gatt_Add_Charac_Desc
                0x000000001004a3fc      0x160 ../../../../../../Library/Bluetooth_LE/library/libbluenrg1_stack.a(gatt_server.o)
                0x000000001004a3fc                Gatt_Add_Charac_Desc
 i.Gatt_Add_Characteristic
                0x000000001004a55c      0x33c ../../../../../../Library/Bluetooth_LE/library/libbluenrg1_stack.a(gatt_server.o)
                0x000000001004a55c                Gatt_Add_Characteristic
 i.Gatt_Add_Descriptor
                0x000000001004a898      0x158 ../../../../../../Library/Bluetooth_LE/library/libbluenrg1_stack.a(gatt_server.o)
                0x000000001004a898                Gatt_Add_Descriptor
 i.Gatt_Add_Service
                0x000000001004a9f0      0x160 ../../../../../../Library/Bluetooth_LE/library/libbluenrg1_stack.a(gatt_server.o)
                0x000000001004a9f0                Gatt_Add_Service
 i.Gatt_Appl_Auth_For_Read
                0x000000001004ab50       0xe8 ../../../../../../Library/Bluetooth_LE/library/libbluenrg1_stack.a(gatt_server.o)
                0x000000001004ab50                Gatt_Appl_Auth_For_Read
 i.Gatt_Appl_Auth_For_Write
                0x000000001004ac38      0x1b8 ../../../../../../Library/Bluetooth_LE/library/libbluenrg1_stack.a(gatt_server.o)
                0x000000001004ac38                Gatt_Appl_Auth_For_Write
 i.Gatt_Delete_Characteristic
                0x000000001004adf0       0x90 ../../../../../../Library/Bluetooth_LE/library/libbluenrg1_stack.a(gatt_server.o)
                0x000000001004adf0                Gatt_Delete_Characteristic
 i.Gatt_Delete_Include_Service
                0x000000001004ae80       0x68 ../../../../../../Library/Bluetooth_LE/library/libbluenrg1_stack.a(gatt_server.o)
                0x000000001004ae80                Gatt_Delete_Include_Service
 i.Gatt_Delete_Service
                0x000000001004aee8       0xac ../../../../../../Library/Bluetooth_LE/library/libbluenrg1_stack.a(gatt_server.o)
                0x000000001004aee8                Gatt_Delete_Service
 i.Gatt_Find_Srv_From_Handle
                0x000000001004af94       0x2c ../../../../../../Library/Bluetooth_LE/library/libbluenrg1_stack.a(gatt_server.o)
                0x000000001004af94                Gatt_Find_Srv_From_Handle
 i.Gatt_Find_Srv_Owner_Of_Handle
                0x000000001004afc0       0x48 ../../../../../../Library/Bluetooth_LE/library/libbluenrg1_stack.a(gatt_server.o)
                0x000000001004afc0                Gatt_Find_Srv_Owner_Of_Handle
 i.Gatt_Find_Timed_Out_Connection_Index
                0x000000001004b008       0x38 ../../../../../../Library/Bluetooth_LE/library/libbluenrg1_stack.a(gatt_server.o)
                0x000000001004b008                Gatt_Find_Timed_Out_Connection_Index
 i.Gatt_Flush_Pending_AclPacket_Lists
                0x000000001004b040       0x34 ../../../../../../Library/Bluetooth_LE/library/libbluenrg1_stack.a(gatt_server.o)
 i.Gatt_Include_Service
                0x000000001004b074      0x158 ../../../../../../Library/Bluetooth_LE/library/libbluenrg1_stack.a(gatt_server.o)
                0x000000001004b074                Gatt_Include_Service
 i.Gatt_Process_Q
                0x000000001004b1cc      0x19c ../../../../../../Library/Bluetooth_LE/library/libbluenrg1_stack.a(gatt_server.o)
                0x000000001004b1cc                Gatt_Process_Q
 i.Gatt_Read_Handle_Val
                0x000000001004b368       0x98 ../../../../../../Library/Bluetooth_LE/library/libbluenrg1_stack.a(gatt_server.o)
                0x000000001004b368                Gatt_Read_Handle_Val
 i.Gatt_Reset_To_Closed_State
                0x000000001004b400       0xfc ../../../../../../Library/Bluetooth_LE/library/libbluenrg1_stack.a(gatt_server.o)
 i.Gatt_Server_Db_Check
                0x000000001004b4fc       0x38 ../../../../../../Library/Bluetooth_LE/library/libbluenrg1_stack.a(gatt_server.o)
                0x000000001004b4fc                Gatt_Server_Db_Check
 i.Gatt_Server_Init
                0x000000001004b534      0x194 ../../../../../../Library/Bluetooth_LE/library/libbluenrg1_stack.a(gatt_server.o)
                0x000000001004b534                Gatt_Server_Init
 i.Gatt_Server_L2C_Handler
                0x000000001004b6c8      0x21c ../../../../../../Library/Bluetooth_LE/library/libbluenrg1_stack.a(gatt_server.o)
                0x000000001004b6c8                Gatt_Server_L2C_Handler
 i.Gatt_Server_L2C_Handler_ISR
                0x000000001004b8e4       0x4c ../../../../../../Library/Bluetooth_LE/library/libbluenrg1_stack.a(gatt_server.o)
                0x000000001004b8e4                Gatt_Server_L2C_Handler_ISR
 i.Gatt_Set_Attr_Access_Permission
                0x000000001004b930       0x8c ../../../../../../Library/Bluetooth_LE/library/libbluenrg1_stack.a(gatt_server.o)
                0x000000001004b930                Gatt_Set_Attr_Access_Permission
 i.Gatt_Set_Desc_Value
                0x000000001004b9bc      0x108 ../../../../../../Library/Bluetooth_LE/library/libbluenrg1_stack.a(gatt_server.o)
                0x000000001004b9bc                Gatt_Set_Desc_Value
 i.Gatt_Store_Server_Database_And_Reset_CCCD
                0x000000001004bac4      0x170 ../../../../../../Library/Bluetooth_LE/library/libbluenrg1_stack.a(gatt_server.o)
 i.Gatt_Update_Charac_Value
                0x000000001004bc34       0x68 ../../../../../../Library/Bluetooth_LE/library/libbluenrg1_stack.a(gatt_server.o)
                0x000000001004bc34                Gatt_Update_Charac_Value
 i.Gatt_Update_Charac_Value_Ext
                0x000000001004bc9c      0x390 ../../../../../../Library/Bluetooth_LE/library/libbluenrg1_stack.a(gatt_server.o)
                0x000000001004bc9c                Gatt_Update_Charac_Value_Ext
 i.Gatt_fetch_handle
                0x000000001004c02c       0x3c ../../../../../../Library/Bluetooth_LE/library/libbluenrg1_stack.a(gatt_server.o)
                0x000000001004c02c                Gatt_fetch_handle
 i.Gatt_search_handle
                0x000000001004c068       0x1e ../../../../../../Library/Bluetooth_LE/library/libbluenrg1_stack.a(gatt_server.o)
                0x000000001004c068                Gatt_search_handle
 *fill*         0x000000001004c086        0x2 
 i.Gatt_search_service_handle
                0x000000001004c088       0x30 ../../../../../../Library/Bluetooth_LE/library/libbluenrg1_stack.a(gatt_server.o)
                0x000000001004c088                Gatt_search_service_handle
 i.Ind_Service_Change_Charac
                0x000000001004c0b8       0x48 ../../../../../../Library/Bluetooth_LE/library/libbluenrg1_stack.a(gatt_server.o)
                0x000000001004c0b8                Ind_Service_Change_Charac
 i.Pm_Resize_Host_Acl_Pckt
                0x000000001004c100        0xe ../../../../../../Library/Bluetooth_LE/library/libbluenrg1_stack.a(gatt_server.o)
 *fill*         0x000000001004c10e        0x2 
 i.Process_Peer_Client_Data
                0x000000001004c110      0x1f8 ../../../../../../Library/Bluetooth_LE/library/libbluenrg1_stack.a(gatt_server.o)
                0x000000001004c110                Process_Peer_Client_Data
 i.Process_Peer_Server_Data
                0x000000001004c308      0x16c ../../../../../../Library/Bluetooth_LE/library/libbluenrg1_stack.a(gatt_server.o)
                0x000000001004c308                Process_Peer_Server_Data
 i.Select_Next_Notification_Client
                0x000000001004c474       0x50 ../../../../../../Library/Bluetooth_LE/library/libbluenrg1_stack.a(gatt_server.o)
                0x000000001004c474                Select_Next_Notification_Client
 i.Send_Notif_Or_Ind
                0x000000001004c4c4       0x4c ../../../../../../Library/Bluetooth_LE/library/libbluenrg1_stack.a(gatt_server.o)
                0x000000001004c4c4                Send_Notif_Or_Ind
 i.aci_gatt_indication_event_push
                0x000000001004c510       0x90 ../../../../../../Library/Bluetooth_LE/library/libbluenrg1_stack.a(gatt_server.o)
 i.aci_gatt_notification_event_push
                0x000000001004c5a0       0x90 ../../../../../../Library/Bluetooth_LE/library/libbluenrg1_stack.a(gatt_server.o)
 i.aci_hal_fw_error_event_push
                0x000000001004c630       0x5c ../../../../../../Library/Bluetooth_LE/library/libbluenrg1_stack.a(gatt_server.o)
 i.store_data   0x000000001004c68c       0x1e ../../../../../../Library/Bluetooth_LE/library/libbluenrg1_stack.a(gatt_server.o)
                0x000000001004c68c                store_data
 i.__ARM_common_switch8
                0x000000001004c6aa       0x1a ../../../../../../Library/Bluetooth_LE/library/libbluenrg1_stack.a(gatt_server.o)
                0x000000001004c6aa                __ARM_common_switch8
 i.HAL_Flash_Store_Data
                0x000000001004c6c4       0x54 ../../../../../../Library/Bluetooth_LE/library/libbluenrg1_stack.a(hal.o)
                0x000000001004c6c4                HAL_Flash_Store_Data
 i.HAL_Generate_Random_Bytes_To
                0x000000001004c718       0x20 ../../../../../../Library/Bluetooth_LE/library/libbluenrg1_stack.a(hal.o)
                0x000000001004c718                HAL_Generate_Random_Bytes_To
 i.HAL_Read_ConfigData
                0x000000001004c738       0x74 ../../../../../../Library/Bluetooth_LE/library/libbluenrg1_stack.a(hal.o)
                0x000000001004c738                HAL_Read_ConfigData
 i.HAL_Set_TX_Power_Level
                0x000000001004c7ac       0x44 ../../../../../../Library/Bluetooth_LE/library/libbluenrg1_stack.a(hal.o)
                0x000000001004c7ac                HAL_Set_TX_Power_Level
 i.HAL_Write_ConfigData
                0x000000001004c7f0      0x11c ../../../../../../Library/Bluetooth_LE/library/libbluenrg1_stack.a(hal.o)
                0x000000001004c7f0                HAL_Write_ConfigData
 i.Hal_Get_Random_Number
                0x000000001004c90c       0x3a ../../../../../../Library/Bluetooth_LE/library/libbluenrg1_stack.a(hal.o)
                0x000000001004c90c                Hal_Get_Random_Number
 i.Hal_Get_Random_Number32
                0x000000001004c946       0x12 ../../../../../../Library/Bluetooth_LE/library/libbluenrg1_stack.a(hal.o)
                0x000000001004c946                Hal_Get_Random_Number32
 i.aci_hal_set_radio_activity_mask
                0x000000001004c958       0x10 ../../../../../../Library/Bluetooth_LE/library/libbluenrg1_stack.a(hal.o)
                0x000000001004c958                aci_hal_set_radio_activity_mask
 i.ble_HAL_Init
                0x000000001004c968       0x1c ../../../../../../Library/Bluetooth_LE/library/libbluenrg1_stack.a(hal.o)
                0x000000001004c968                ble_HAL_Init
 i.char_copy    0x000000001004c984       0x12 ../../../../../../Library/Bluetooth_LE/library/libbluenrg1_stack.a(hal.o)
                0x000000001004c984                char_copy
 *fill*         0x000000001004c996        0x2 
 i.hal_radio_activity_state_callback_check
                0x000000001004c998       0x34 ../../../../../../Library/Bluetooth_LE/library/libbluenrg1_stack.a(hal.o)
                0x000000001004c998                hal_radio_activity_state_callback_check
 i.hal_radio_activity_state_init
                0x000000001004c9cc       0x1c ../../../../../../Library/Bluetooth_LE/library/libbluenrg1_stack.a(hal.o)
                0x000000001004c9cc                hal_radio_activity_state_init
 i.hal_read_radio_activity_state
                0x000000001004c9e8       0x40 ../../../../../../Library/Bluetooth_LE/library/libbluenrg1_stack.a(hal.o)
                0x000000001004c9e8                hal_read_radio_activity_state
 i.set_string   0x000000001004ca28       0x10 ../../../../../../Library/Bluetooth_LE/library/libbluenrg1_stack.a(hal.o)
                0x000000001004ca28                set_string
 i.Controller_Process_Q
                0x000000001004ca38       0x1c ../../../../../../Library/Bluetooth_LE/library/libbluenrg1_stack.a(hci.o)
                0x000000001004ca38                Controller_Process_Q
 i.Get_Random_Addr
                0x000000001004ca54       0x1c ../../../../../../Library/Bluetooth_LE/library/libbluenrg1_stack.a(hci.o)
                0x000000001004ca54                Get_Random_Addr
 i.HCI_Init     0x000000001004ca70       0x7c ../../../../../../Library/Bluetooth_LE/library/libbluenrg1_stack.a(hci.o)
                0x000000001004ca70                HCI_Init
 i.PKA_Offline_Processing
                0x000000001004caec      0x164 ../../../../../../Library/Bluetooth_LE/library/libbluenrg1_stack.a(hci.o)
                0x000000001004caec                PKA_Offline_Processing
 i.aci_hal_get_anchor_period
                0x000000001004cc50        0x8 ../../../../../../Library/Bluetooth_LE/library/libbluenrg1_stack.a(hci.o)
                0x000000001004cc50                aci_hal_get_anchor_period
 i.hci_acl_Process_Q
                0x000000001004cc58       0x6c ../../../../../../Library/Bluetooth_LE/library/libbluenrg1_stack.a(hci.o)
                0x000000001004cc58                hci_acl_Process_Q
 i.hci_disconnect
                0x000000001004ccc4        0x8 ../../../../../../Library/Bluetooth_LE/library/libbluenrg1_stack.a(hci.o)
                0x000000001004ccc4                hci_disconnect
 i.hci_le_add_device_to_white_list
                0x000000001004cccc       0x32 ../../../../../../Library/Bluetooth_LE/library/libbluenrg1_stack.a(hci.o)
                0x000000001004cccc                hci_le_add_device_to_white_list
 i.hci_le_clear_white_list
                0x000000001004ccfe        0x8 ../../../../../../Library/Bluetooth_LE/library/libbluenrg1_stack.a(hci.o)
                0x000000001004ccfe                hci_le_clear_white_list
 i.hci_le_connection_update_api
                0x000000001004cd06       0x22 ../../../../../../Library/Bluetooth_LE/library/libbluenrg1_stack.a(hci.o)
                0x000000001004cd06                hci_le_connection_update_api
 i.hci_le_connection_update_param_check
                0x000000001004cd28       0x58 ../../../../../../Library/Bluetooth_LE/library/libbluenrg1_stack.a(hci.o)
                0x000000001004cd28                hci_le_connection_update_param_check
 i.hci_le_create_connection_api
                0x000000001004cd80       0x92 ../../../../../../Library/Bluetooth_LE/library/libbluenrg1_stack.a(hci.o)
                0x000000001004cd80                hci_le_create_connection_api
 i.hci_le_create_connection_cancel_api
                0x000000001004ce12        0x8 ../../../../../../Library/Bluetooth_LE/library/libbluenrg1_stack.a(hci.o)
                0x000000001004ce12                hci_le_create_connection_cancel_api
 i.hci_le_encrypt
                0x000000001004ce1a        0xa ../../../../../../Library/Bluetooth_LE/library/libbluenrg1_stack.a(hci.o)
                0x000000001004ce1a                hci_le_encrypt
 i.hci_le_generate_dhkey_api
                0x000000001004ce24       0x7c ../../../../../../Library/Bluetooth_LE/library/libbluenrg1_stack.a(hci.o)
                0x000000001004ce24                hci_le_generate_dhkey_api
 i.hci_le_long_term_key_request_reply
                0x000000001004cea0        0xe ../../../../../../Library/Bluetooth_LE/library/libbluenrg1_stack.a(hci.o)
                0x000000001004cea0                hci_le_long_term_key_request_reply
 i.hci_le_long_term_key_requested_negative_reply
                0x000000001004ceae        0xe ../../../../../../Library/Bluetooth_LE/library/libbluenrg1_stack.a(hci.o)
                0x000000001004ceae                hci_le_long_term_key_requested_negative_reply
 i.hci_le_rand  0x000000001004cebc        0x8 ../../../../../../Library/Bluetooth_LE/library/libbluenrg1_stack.a(hci.o)
                0x000000001004cebc                hci_le_rand
 i.hci_le_read_advertising_channel_tx_power
                0x000000001004cec4        0x8 ../../../../../../Library/Bluetooth_LE/library/libbluenrg1_stack.a(hci.o)
                0x000000001004cec4                hci_le_read_advertising_channel_tx_power
 i.hci_le_read_buffer_size
                0x000000001004cecc       0x38 ../../../../../../Library/Bluetooth_LE/library/libbluenrg1_stack.a(hci.o)
                0x000000001004cecc                hci_le_read_buffer_size
 i.hci_le_read_channel_map
                0x000000001004cf04        0x8 ../../../../../../Library/Bluetooth_LE/library/libbluenrg1_stack.a(hci.o)
                0x000000001004cf04                hci_le_read_channel_map
 i.hci_le_read_local_p256_public_key_api
                0x000000001004cf0c       0x3c ../../../../../../Library/Bluetooth_LE/library/libbluenrg1_stack.a(hci.o)
                0x000000001004cf0c                hci_le_read_local_p256_public_key_api
 i.hci_le_read_local_supported_features
                0x000000001004cf48        0xa ../../../../../../Library/Bluetooth_LE/library/libbluenrg1_stack.a(hci.o)
                0x000000001004cf48                hci_le_read_local_supported_features
 i.hci_le_read_maximum_data_length_api
                0x000000001004cf52        0x8 ../../../../../../Library/Bluetooth_LE/library/libbluenrg1_stack.a(hci.o)
                0x000000001004cf52                hci_le_read_maximum_data_length_api
 *fill*         0x000000001004cf5a        0x2 
 i.hci_le_read_remote_used_features
                0x000000001004cf5c       0x18 ../../../../../../Library/Bluetooth_LE/library/libbluenrg1_stack.a(hci.o)
                0x000000001004cf5c                hci_le_read_remote_used_features
 i.hci_le_read_suggested_default_data_length_api
                0x000000001004cf74        0x8 ../../../../../../Library/Bluetooth_LE/library/libbluenrg1_stack.a(hci.o)
                0x000000001004cf74                hci_le_read_suggested_default_data_length_api
 i.hci_le_read_supported_states
                0x000000001004cf7c        0xa ../../../../../../Library/Bluetooth_LE/library/libbluenrg1_stack.a(hci.o)
                0x000000001004cf7c                hci_le_read_supported_states
 i.hci_le_read_white_list_size
                0x000000001004cf86        0xe ../../../../../../Library/Bluetooth_LE/library/libbluenrg1_stack.a(hci.o)
                0x000000001004cf86                hci_le_read_white_list_size
 i.hci_le_receiver_test
                0x000000001004cf94       0x2c ../../../../../../Library/Bluetooth_LE/library/libbluenrg1_stack.a(hci.o)
                0x000000001004cf94                hci_le_receiver_test
 i.hci_le_remove_device_from_white_list
                0x000000001004cfc0       0x24 ../../../../../../Library/Bluetooth_LE/library/libbluenrg1_stack.a(hci.o)
                0x000000001004cfc0                hci_le_remove_device_from_white_list
 i.hci_le_set_advertise_enable
                0x000000001004cfe4       0x40 ../../../../../../Library/Bluetooth_LE/library/libbluenrg1_stack.a(hci.o)
                0x000000001004cfe4                hci_le_set_advertise_enable
 i.hci_le_set_advertising_data
                0x000000001004d024       0x16 ../../../../../../Library/Bluetooth_LE/library/libbluenrg1_stack.a(hci.o)
                0x000000001004d024                hci_le_set_advertising_data
 *fill*         0x000000001004d03a        0x2 
 i.hci_le_set_advertising_parameters
                0x000000001004d03c       0x98 ../../../../../../Library/Bluetooth_LE/library/libbluenrg1_stack.a(hci.o)
                0x000000001004d03c                hci_le_set_advertising_parameters
 i.hci_le_set_data_length_api
                0x000000001004d0d4       0x20 ../../../../../../Library/Bluetooth_LE/library/libbluenrg1_stack.a(hci.o)
                0x000000001004d0d4                hci_le_set_data_length_api
 i.hci_le_set_event_mask
                0x000000001004d0f4       0x40 ../../../../../../Library/Bluetooth_LE/library/libbluenrg1_stack.a(hci.o)
                0x000000001004d0f4                hci_le_set_event_mask
 i.hci_le_set_host_channel_classification_api
                0x000000001004d134        0x8 ../../../../../../Library/Bluetooth_LE/library/libbluenrg1_stack.a(hci.o)
                0x000000001004d134                hci_le_set_host_channel_classification_api
 i.hci_le_set_random_address
                0x000000001004d13c       0x58 ../../../../../../Library/Bluetooth_LE/library/libbluenrg1_stack.a(hci.o)
                0x000000001004d13c                hci_le_set_random_address
 i.hci_le_set_scan_enable_api
                0x000000001004d194       0x4c ../../../../../../Library/Bluetooth_LE/library/libbluenrg1_stack.a(hci.o)
                0x000000001004d194                hci_le_set_scan_enable_api
 i.hci_le_set_scan_parameters_api
                0x000000001004d1e0       0x58 ../../../../../../Library/Bluetooth_LE/library/libbluenrg1_stack.a(hci.o)
                0x000000001004d1e0                hci_le_set_scan_parameters_api
 i.hci_le_set_scan_response_data
                0x000000001004d238       0x16 ../../../../../../Library/Bluetooth_LE/library/libbluenrg1_stack.a(hci.o)
                0x000000001004d238                hci_le_set_scan_response_data
 *fill*         0x000000001004d24e        0x2 
 i.hci_le_start_encryption_api
                0x000000001004d250       0x1c ../../../../../../Library/Bluetooth_LE/library/libbluenrg1_stack.a(hci.o)
                0x000000001004d250                hci_le_start_encryption_api
 i.hci_le_test_end
                0x000000001004d26c       0x24 ../../../../../../Library/Bluetooth_LE/library/libbluenrg1_stack.a(hci.o)
                0x000000001004d26c                hci_le_test_end
 i.hci_le_transmitter_test
                0x000000001004d290       0x4c ../../../../../../Library/Bluetooth_LE/library/libbluenrg1_stack.a(hci.o)
                0x000000001004d290                hci_le_transmitter_test
 i.hci_le_write_suggested_default_data_length_api
                0x000000001004d2dc       0x1c ../../../../../../Library/Bluetooth_LE/library/libbluenrg1_stack.a(hci.o)
                0x000000001004d2dc                hci_le_write_suggested_default_data_length_api
 i.hci_load_connParams
                0x000000001004d2f8       0x64 ../../../../../../Library/Bluetooth_LE/library/libbluenrg1_stack.a(hci.o)
                0x000000001004d2f8                hci_load_connParams
 i.hci_read_bd_addr
                0x000000001004d35c       0x18 ../../../../../../Library/Bluetooth_LE/library/libbluenrg1_stack.a(hci.o)
                0x000000001004d35c                hci_read_bd_addr
 i.hci_read_local_supported_commands
                0x000000001004d374       0x8e ../../../../../../Library/Bluetooth_LE/library/libbluenrg1_stack.a(hci.o)
                0x000000001004d374                hci_read_local_supported_commands
 i.hci_read_local_supported_features
                0x000000001004d402       0x14 ../../../../../../Library/Bluetooth_LE/library/libbluenrg1_stack.a(hci.o)
                0x000000001004d402                hci_read_local_supported_features
 *fill*         0x000000001004d416        0x2 
 i.hci_read_local_version_information
                0x000000001004d418       0x24 ../../../../../../Library/Bluetooth_LE/library/libbluenrg1_stack.a(hci.o)
                0x000000001004d418                hci_read_local_version_information
 i.hci_read_remote_version_information
                0x000000001004d43c       0x70 ../../../../../../Library/Bluetooth_LE/library/libbluenrg1_stack.a(hci.o)
                0x000000001004d43c                hci_read_remote_version_information
 i.hci_read_rssi
                0x000000001004d4ac       0x16 ../../../../../../Library/Bluetooth_LE/library/libbluenrg1_stack.a(hci.o)
                0x000000001004d4ac                hci_read_rssi
 i.hci_read_transmit_power_level
                0x000000001004d4c2       0x20 ../../../../../../Library/Bluetooth_LE/library/libbluenrg1_stack.a(hci.o)
                0x000000001004d4c2                hci_read_transmit_power_level
 i.hci_reset    0x000000001004d4e2        0xa ../../../../../../Library/Bluetooth_LE/library/libbluenrg1_stack.a(hci.o)
                0x000000001004d4e2                hci_reset
 i.hci_rx_acl_data
                0x000000001004d4ec       0x6c ../../../../../../Library/Bluetooth_LE/library/libbluenrg1_stack.a(hci.o)
                0x000000001004d4ec                hci_rx_acl_data
 i.hci_set_event_mask
                0x000000001004d558       0x28 ../../../../../../Library/Bluetooth_LE/library/libbluenrg1_stack.a(hci.o)
                0x000000001004d558                hci_set_event_mask
 i.hci_tx_acl_data_done
                0x000000001004d580       0x44 ../../../../../../Library/Bluetooth_LE/library/libbluenrg1_stack.a(hci.o)
                0x000000001004d580                hci_tx_acl_data_done
 i.hci_le_add_device_to_resolving_list_api
                0x000000001004d5c4       0x42 ../../../../../../Library/Bluetooth_LE/library/libbluenrg1_stack.a(hci_privacy.o)
                0x000000001004d5c4                hci_le_add_device_to_resolving_list_api
 i.hci_le_clear_resolving_list_api
                0x000000001004d606        0x8 ../../../../../../Library/Bluetooth_LE/library/libbluenrg1_stack.a(hci_privacy.o)
                0x000000001004d606                hci_le_clear_resolving_list_api
 i.hci_le_read_local_resolvable_address_api
                0x000000001004d60e       0x28 ../../../../../../Library/Bluetooth_LE/library/libbluenrg1_stack.a(hci_privacy.o)
                0x000000001004d60e                hci_le_read_local_resolvable_address_api
 i.hci_le_read_peer_resolvable_address_api
                0x000000001004d636       0x28 ../../../../../../Library/Bluetooth_LE/library/libbluenrg1_stack.a(hci_privacy.o)
                0x000000001004d636                hci_le_read_peer_resolvable_address_api
 i.hci_le_read_resolving_list_size_api
                0x000000001004d65e        0xe ../../../../../../Library/Bluetooth_LE/library/libbluenrg1_stack.a(hci_privacy.o)
                0x000000001004d65e                hci_le_read_resolving_list_size_api
 i.hci_le_remove_device_from_resolving_list_api
                0x000000001004d66c       0x18 ../../../../../../Library/Bluetooth_LE/library/libbluenrg1_stack.a(hci_privacy.o)
                0x000000001004d66c                hci_le_remove_device_from_resolving_list_api
 i.hci_le_set_address_resolution_enable_api
                0x000000001004d684       0x14 ../../../../../../Library/Bluetooth_LE/library/libbluenrg1_stack.a(hci_privacy.o)
                0x000000001004d684                hci_le_set_address_resolution_enable_api
 i.hci_le_set_resolvable_private_address_timeout_api
                0x000000001004d698        0x8 ../../../../../../Library/Bluetooth_LE/library/libbluenrg1_stack.a(hci_privacy.o)
                0x000000001004d698                hci_le_set_resolvable_private_address_timeout_api
 i.HAL_VTimerAcc_sysT32_ms
                0x000000001004d6a0       0x24 ../../../../../../Library/Bluetooth_LE/library/libbluenrg1_stack.a(host_timer.o)
                0x000000001004d6a0                HAL_VTimerAcc_sysT32_ms
 i.HAL_VTimerGetCurrentTime_sysT32
                0x000000001004d6c4       0x12 ../../../../../../Library/Bluetooth_LE/library/libbluenrg1_stack.a(host_timer.o)
                0x000000001004d6c4                HAL_VTimerGetCurrentTime_sysT32
 i.HAL_VTimerTimeoutCallback
                0x000000001004d6d6        0x2 ../../../../../../Library/Bluetooth_LE/library/libbluenrg1_stack.a(host_timer.o)
                0x000000001004d6d6                HAL_VTimerTimeoutCallback
 i.Set_Host_Timer_value
                0x000000001004d6d8       0x50 ../../../../../../Library/Bluetooth_LE/library/libbluenrg1_stack.a(host_timer.o)
                0x000000001004d6d8                Set_Host_Timer_value
 i.TimerCallback
                0x000000001004d728       0x7c ../../../../../../Library/Bluetooth_LE/library/libbluenrg1_stack.a(host_timer.o)
 i.Timer_ExpiryCallback
                0x000000001004d7a4       0x14 ../../../../../../Library/Bluetooth_LE/library/libbluenrg1_stack.a(host_timer.o)
                0x000000001004d7a4                Timer_ExpiryCallback
 i.Timer_Init   0x000000001004d7b8       0x34 ../../../../../../Library/Bluetooth_LE/library/libbluenrg1_stack.a(host_timer.o)
                0x000000001004d7b8                Timer_Init
 i.Timer_ProcessQ
                0x000000001004d7ec      0x11c ../../../../../../Library/Bluetooth_LE/library/libbluenrg1_stack.a(host_timer.o)
                0x000000001004d7ec                Timer_ProcessQ
 i.Timer_StartOneShot
                0x000000001004d908       0x22 ../../../../../../Library/Bluetooth_LE/library/libbluenrg1_stack.a(host_timer.o)
                0x000000001004d908                Timer_StartOneShot
 *fill*         0x000000001004d92a        0x2 
 i.Timer_StartOneShot_sysTime32
                0x000000001004d92c       0x74 ../../../../../../Library/Bluetooth_LE/library/libbluenrg1_stack.a(host_timer.o)
                0x000000001004d92c                Timer_StartOneShot_sysTime32
 i.Timer_StopOneShot
                0x000000001004d9a0       0x58 ../../../../../../Library/Bluetooth_LE/library/libbluenrg1_stack.a(host_timer.o)
                0x000000001004d9a0                Timer_StopOneShot
 i.Timer_sysTime32_convMachineTime
                0x000000001004d9f8       0x24 ../../../../../../Library/Bluetooth_LE/library/libbluenrg1_stack.a(host_timer.o)
                0x000000001004d9f8                Timer_sysTime32_convMachineTime
 i.L2C_Build_Command_Reject_Pdu
                0x000000001004da1c       0x7c ../../../../../../Library/Bluetooth_LE/library/libbluenrg1_stack.a(l2cap.o)
                0x000000001004da1c                L2C_Build_Command_Reject_Pdu
 i.L2C_Build_Connect_Update_Req
                0x000000001004da98       0xf4 ../../../../../../Library/Bluetooth_LE/library/libbluenrg1_stack.a(l2cap.o)
                0x000000001004da98                L2C_Build_Connect_Update_Req
 i.L2C_Build_Connect_Update_Resp
                0x000000001004db8c       0x9e ../../../../../../Library/Bluetooth_LE/library/libbluenrg1_stack.a(l2cap.o)
                0x000000001004db8c                L2C_Build_Connect_Update_Resp
 i.L2C_Connection_Complete_Handler
                0x000000001004dc2a       0x4a ../../../../../../Library/Bluetooth_LE/library/libbluenrg1_stack.a(l2cap.o)
                0x000000001004dc2a                L2C_Connection_Complete_Handler
 i.L2C_Connection_Complete_Signal_Handler
                0x000000001004dc74       0x2a ../../../../../../Library/Bluetooth_LE/library/libbluenrg1_stack.a(l2cap.o)
                0x000000001004dc74                L2C_Connection_Complete_Signal_Handler
 *fill*         0x000000001004dc9e        0x2 
 i.L2C_Get_Connection_Info
                0x000000001004dca0       0x34 ../../../../../../Library/Bluetooth_LE/library/libbluenrg1_stack.a(l2cap.o)
 i.L2C_Get_Connection_Info_Index
                0x000000001004dcd4       0x30 ../../../../../../Library/Bluetooth_LE/library/libbluenrg1_stack.a(l2cap.o)
 i.L2C_Get_PDU_Len
                0x000000001004dd04        0xe ../../../../../../Library/Bluetooth_LE/library/libbluenrg1_stack.a(l2cap.o)
                0x000000001004dd04                L2C_Get_PDU_Len
 *fill*         0x000000001004dd12        0x2 
 i.L2C_Init     0x000000001004dd14       0x58 ../../../../../../Library/Bluetooth_LE/library/libbluenrg1_stack.a(l2cap.o)
                0x000000001004dd14                L2C_Init
 i.L2C_Mux_Acl_Packet
                0x000000001004dd6c       0x58 ../../../../../../Library/Bluetooth_LE/library/libbluenrg1_stack.a(l2cap.o)
 i.L2C_Rcv_Data
                0x000000001004ddc4       0xcc ../../../../../../Library/Bluetooth_LE/library/libbluenrg1_stack.a(l2cap.o)
 i.L2C_Rcv_Event_Handler
                0x000000001004de90       0x1e ../../../../../../Library/Bluetooth_LE/library/libbluenrg1_stack.a(l2cap.o)
                0x000000001004de90                L2C_Rcv_Event_Handler
 i.L2C_Rcv_Event_Handler_ISR
                0x000000001004deae       0x54 ../../../../../../Library/Bluetooth_LE/library/libbluenrg1_stack.a(l2cap.o)
                0x000000001004deae                L2C_Rcv_Event_Handler_ISR
 *fill*         0x000000001004df02        0x2 
 i.L2C_Reset_To_Closed_State
                0x000000001004df04       0x7c ../../../../../../Library/Bluetooth_LE/library/libbluenrg1_stack.a(l2cap.o)
 i.L2C_Send_Data
                0x000000001004df80       0x4c ../../../../../../Library/Bluetooth_LE/library/libbluenrg1_stack.a(l2cap.o)
                0x000000001004df80                L2C_Send_Data
 i.L2C_SigChan_Req_TimeOut_Handler
                0x000000001004dfcc       0x60 ../../../../../../Library/Bluetooth_LE/library/libbluenrg1_stack.a(l2cap.o)
                0x000000001004dfcc                L2C_SigChan_Req_TimeOut_Handler
 i.L2C_Signal_Channel_Handler
                0x000000001004e02c      0x1b0 ../../../../../../Library/Bluetooth_LE/library/libbluenrg1_stack.a(l2cap.o)
                0x000000001004e02c                L2C_Signal_Channel_Handler
 i.L2C_Signal_Channel_Handler_ISR
                0x000000001004e1dc       0x24 ../../../../../../Library/Bluetooth_LE/library/libbluenrg1_stack.a(l2cap.o)
                0x000000001004e1dc                L2C_Signal_Channel_Handler_ISR
 i.L2C_discard_accumulated_acl_data
                0x000000001004e200       0x5c ../../../../../../Library/Bluetooth_LE/library/libbluenrg1_stack.a(l2cap.o)
 i.aci_l2cap_connection_update_req_event_push
                0x000000001004e25c       0x98 ../../../../../../Library/Bluetooth_LE/library/libbluenrg1_stack.a(l2cap.o)
 i.Data_Length_Update_Control_ISR
                0x000000001004e2f4      0x128 ../../../../../../Library/Bluetooth_LE/library/libbluenrg1_stack.a(ll_isr.o)
                0x000000001004e2f4                Data_Length_Update_Control_ISR
 i.RAL_Isr      0x000000001004e41c      0x218 ../../../../../../Library/Bluetooth_LE/library/libbluenrg1_stack.a(ll_isr.o)
                0x000000001004e41c                RAL_Isr
 i.copy_4_u32   0x000000001004e634       0x12 ../../../../../../Library/Bluetooth_LE/library/libbluenrg1_stack.a(ll_isr.o)
                0x000000001004e634                copy_4_u32
 *fill*         0x000000001004e646        0x2 
 i.copy_tx_data_packet
                0x000000001004e648       0x84 ../../../../../../Library/Bluetooth_LE/library/libbluenrg1_stack.a(ll_isr.o)
                0x000000001004e648                copy_tx_data_packet
 i.encrypt      0x000000001004e6cc       0x74 ../../../../../../Library/Bluetooth_LE/library/libbluenrg1_stack.a(ll_isr.o)
                0x000000001004e6cc                encrypt
 i.full_state_func_call_init
                0x000000001004e740       0x18 ../../../../../../Library/Bluetooth_LE/library/libbluenrg1_stack.a(ll_isr.o)
                0x000000001004e740                full_state_func_call_init
 i.isr_advertise_state
                0x000000001004e758      0x398 ../../../../../../Library/Bluetooth_LE/library/libbluenrg1_stack.a(ll_isr.o)
 i.isr_connect_master_state
                0x000000001004eaf0      0x6d8 ../../../../../../Library/Bluetooth_LE/library/libbluenrg1_stack.a(ll_isr.o)
 i.isr_connect_slave_state
                0x000000001004f1c8      0x7e4 ../../../../../../Library/Bluetooth_LE/library/libbluenrg1_stack.a(ll_isr.o)
 i.isr_scan_state
                0x000000001004f9ac      0x638 ../../../../../../Library/Bluetooth_LE/library/libbluenrg1_stack.a(ll_isr.o)
 i.isr_test_rx_state
                0x000000001004ffe4       0x34 ../../../../../../Library/Bluetooth_LE/library/libbluenrg1_stack.a(ll_isr.o)
 i.isr_test_tx_state
                0x0000000010050018       0x64 ../../../../../../Library/Bluetooth_LE/library/libbluenrg1_stack.a(ll_isr.o)
 i.isr_unknown_state
                0x000000001005007c       0x2c ../../../../../../Library/Bluetooth_LE/library/libbluenrg1_stack.a(ll_isr.o)
 i.__ARM_common_memcpy1_6
                0x00000000100500a8       0x1a ../../../../../../Library/Bluetooth_LE/library/libbluenrg1_stack.a(ll_isr.o)
                0x00000000100500a8                __ARM_common_memcpy1_6
 *fill*         0x00000000100500c2        0x2 
 i.LL_LE_Add_Device_To_Resolving_List
                0x00000000100500c4      0x164 ../../../../../../Library/Bluetooth_LE/library/libbluenrg1_stack.a(ll_privacy.o)
                0x00000000100500c4                LL_LE_Add_Device_To_Resolving_List
 i.LL_LE_Add_Device_To_White_List
                0x0000000010050228       0x70 ../../../../../../Library/Bluetooth_LE/library/libbluenrg1_stack.a(ll_privacy.o)
                0x0000000010050228                LL_LE_Add_Device_To_White_List
 i.LL_LE_Clear_Resolving_List
                0x0000000010050298       0xac ../../../../../../Library/Bluetooth_LE/library/libbluenrg1_stack.a(ll_privacy.o)
                0x0000000010050298                LL_LE_Clear_Resolving_List
 i.LL_LE_Clear_White_List
                0x0000000010050344       0x28 ../../../../../../Library/Bluetooth_LE/library/libbluenrg1_stack.a(ll_privacy.o)
                0x0000000010050344                LL_LE_Clear_White_List
 i.LL_LE_Read_Resolvable_Address
                0x000000001005036c       0x5c ../../../../../../Library/Bluetooth_LE/library/libbluenrg1_stack.a(ll_privacy.o)
                0x000000001005036c                LL_LE_Read_Resolvable_Address
 i.LL_LE_Read_Resolving_List_Size
                0x00000000100503c8        0x4 ../../../../../../Library/Bluetooth_LE/library/libbluenrg1_stack.a(ll_privacy.o)
                0x00000000100503c8                LL_LE_Read_Resolving_List_Size
 i.LL_LE_Read_White_List_Size
                0x00000000100503cc        0x4 ../../../../../../Library/Bluetooth_LE/library/libbluenrg1_stack.a(ll_privacy.o)
                0x00000000100503cc                LL_LE_Read_White_List_Size
 i.LL_LE_Remove_Device_From_Resolving_List
                0x00000000100503d0       0x8c ../../../../../../Library/Bluetooth_LE/library/libbluenrg1_stack.a(ll_privacy.o)
                0x00000000100503d0                LL_LE_Remove_Device_From_Resolving_List
 i.LL_LE_Remove_Device_From_White_List
                0x000000001005045c       0x58 ../../../../../../Library/Bluetooth_LE/library/libbluenrg1_stack.a(ll_privacy.o)
                0x000000001005045c                LL_LE_Remove_Device_From_White_List
 i.LL_LE_Set_Address_Resolution_Enable
                0x00000000100504b4       0x20 ../../../../../../Library/Bluetooth_LE/library/libbluenrg1_stack.a(ll_privacy.o)
                0x00000000100504b4                LL_LE_Set_Address_Resolution_Enable
 i.LL_LE_Set_Resolvable_Private_Address_Timeout
                0x00000000100504d4       0x24 ../../../../../../Library/Bluetooth_LE/library/libbluenrg1_stack.a(ll_privacy.o)
                0x00000000100504d4                LL_LE_Set_Resolvable_Private_Address_Timeout
 i.PRIVWHIT_u8AddAddrInList
                0x00000000100504f8      0x1f0 ../../../../../../Library/Bluetooth_LE/library/libbluenrg1_stack.a(ll_privacy.o)
                0x00000000100504f8                PRIVWHIT_u8AddAddrInList
 i.PRIVWHIT_u8RemoveAddrInList
                0x00000000100506e8      0x12c ../../../../../../Library/Bluetooth_LE/library/libbluenrg1_stack.a(ll_privacy.o)
                0x00000000100506e8                PRIVWHIT_u8RemoveAddrInList
 i.PRIVWHIT_u8ReturnFreeRecordDatabase
                0x0000000010050814       0x2c ../../../../../../Library/Bluetooth_LE/library/libbluenrg1_stack.a(ll_privacy.o)
                0x0000000010050814                PRIVWHIT_u8ReturnFreeRecordDatabase
 i.PRIVWHIT_u8SearchAddrInList
                0x0000000010050840       0x84 ../../../../../../Library/Bluetooth_LE/library/libbluenrg1_stack.a(ll_privacy.o)
                0x0000000010050840                PRIVWHIT_u8SearchAddrInList
 i.PRIVWHIT_vInit_Struct
                0x00000000100508c4       0xb8 ../../../../../../Library/Bluetooth_LE/library/libbluenrg1_stack.a(ll_privacy.o)
                0x00000000100508c4                PRIVWHIT_vInit_Struct
 i.PRIV_SearchAddrInRPAList
                0x000000001005097c       0x50 ../../../../../../Library/Bluetooth_LE/library/libbluenrg1_stack.a(ll_privacy.o)
                0x000000001005097c                PRIV_SearchAddrInRPAList
 i.PRIV_SearchAddrInScratchList
                0x00000000100509cc       0x50 ../../../../../../Library/Bluetooth_LE/library/libbluenrg1_stack.a(ll_privacy.o)
                0x00000000100509cc                PRIV_SearchAddrInScratchList
 i.PRIV_SearchAddrInWhiteList
                0x0000000010050a1c       0x58 ../../../../../../Library/Bluetooth_LE/library/libbluenrg1_stack.a(ll_privacy.o)
                0x0000000010050a1c                PRIV_SearchAddrInWhiteList
 i.PRIV_u32ProcessAdvPacket
                0x0000000010050a74      0x5ac ../../../../../../Library/Bluetooth_LE/library/libbluenrg1_stack.a(ll_privacy.o)
                0x0000000010050a74                PRIV_u32ProcessAdvPacket
 i.PRIV_u8OfflineProcessing
                0x0000000010051020      0x118 ../../../../../../Library/Bluetooth_LE/library/libbluenrg1_stack.a(ll_privacy.o)
                0x0000000010051020                PRIV_u8OfflineProcessing
 i.PRIV_u8ResolvePrivateAddress
                0x0000000010051138      0x110 ../../../../../../Library/Bluetooth_LE/library/libbluenrg1_stack.a(ll_privacy.o)
                0x0000000010051138                PRIV_u8ResolvePrivateAddress
 i.PRIV_u8ResolvePrivateAddressUnit
                0x0000000010051248       0x34 ../../../../../../Library/Bluetooth_LE/library/libbluenrg1_stack.a(ll_privacy.o)
                0x0000000010051248                PRIV_u8ResolvePrivateAddressUnit
 i.PRIV_vGeneratePrivateAddress
                0x000000001005127c       0x62 ../../../../../../Library/Bluetooth_LE/library/libbluenrg1_stack.a(ll_privacy.o)
                0x000000001005127c                PRIV_vGeneratePrivateAddress
 *fill*         0x00000000100512de        0x2 
 i.PRIV_vGenerate_hci_le_direct_advertising_report_event
                0x00000000100512e0      0x17c ../../../../../../Library/Bluetooth_LE/library/libbluenrg1_stack.a(ll_privacy.o)
                0x00000000100512e0                PRIV_vGenerate_hci_le_direct_advertising_report_event
 i.PRIV_vGenerate_hci_le_enhanced_connection_complete_event
                0x000000001005145c      0x1e8 ../../../../../../Library/Bluetooth_LE/library/libbluenrg1_stack.a(ll_privacy.o)
                0x000000001005145c                PRIV_vGenerate_hci_le_enhanced_connection_complete_event
 i.hci_le_direct_advertising_report_event_push
                0x0000000010051644       0x8c ../../../../../../Library/Bluetooth_LE/library/libbluenrg1_stack.a(ll_privacy.o)
 i.scan_connection_or_advertiser
                0x00000000100516d0       0x1a ../../../../../../Library/Bluetooth_LE/library/libbluenrg1_stack.a(ll_privacy.o)
 *fill*         0x00000000100516ea        0x2 
 i.Data_Len_Update_Offline_Processing
                0x00000000100516ec       0x54 ../../../../../../Library/Bluetooth_LE/library/libbluenrg1_stack.a(ll_routines.o)
                0x00000000100516ec                Data_Len_Update_Offline_Processing
 i.Disconnection_Offline_Processing
                0x0000000010051740       0x48 ../../../../../../Library/Bluetooth_LE/library/libbluenrg1_stack.a(ll_routines.o)
                0x0000000010051740                Disconnection_Offline_Processing
 i.LL_Data_Length_Change_Event
                0x0000000010051788       0x54 ../../../../../../Library/Bluetooth_LE/library/libbluenrg1_stack.a(ll_routines.o)
                0x0000000010051788                LL_Data_Length_Change_Event
 i.LL_Data_Length_Update
                0x00000000100517dc       0x38 ../../../../../../Library/Bluetooth_LE/library/libbluenrg1_stack.a(ll_routines.o)
                0x00000000100517dc                LL_Data_Length_Update
 i.LL_Disconnect_Link
                0x0000000010051814       0x3c ../../../../../../Library/Bluetooth_LE/library/libbluenrg1_stack.a(ll_routines.o)
                0x0000000010051814                LL_Disconnect_Link
 i.LL_Get_Default_Data_Length
                0x0000000010051850       0x1c ../../../../../../Library/Bluetooth_LE/library/libbluenrg1_stack.a(ll_routines.o)
                0x0000000010051850                LL_Get_Default_Data_Length
 i.LL_Get_Maximum_Data_Length
                0x000000001005186c       0x28 ../../../../../../Library/Bluetooth_LE/library/libbluenrg1_stack.a(ll_routines.o)
                0x000000001005186c                LL_Get_Maximum_Data_Length
 i.LL_Get_Supported_Features
                0x0000000010051894       0x3e ../../../../../../Library/Bluetooth_LE/library/libbluenrg1_stack.a(ll_routines.o)
                0x0000000010051894                LL_Get_Supported_Features
 *fill*         0x00000000100518d2        0x2 
 i.LL_Read_Remote_Version_Info
                0x00000000100518d4       0xb4 ../../../../../../Library/Bluetooth_LE/library/libbluenrg1_stack.a(ll_routines.o)
                0x00000000100518d4                LL_Read_Remote_Version_Info
 i.LL_Send_Disconnection_Req
                0x0000000010051988       0xa4 ../../../../../../Library/Bluetooth_LE/library/libbluenrg1_stack.a(ll_routines.o)
                0x0000000010051988                LL_Send_Disconnection_Req
 i.LL_Send_Length_Req
                0x0000000010051a2c       0xd0 ../../../../../../Library/Bluetooth_LE/library/libbluenrg1_stack.a(ll_routines.o)
 i.LL_Send_Length_Resp
                0x0000000010051afc       0xb4 ../../../../../../Library/Bluetooth_LE/library/libbluenrg1_stack.a(ll_routines.o)
                0x0000000010051afc                LL_Send_Length_Resp
 i.LL_Set_Data_Length
                0x0000000010051bb0       0xbc ../../../../../../Library/Bluetooth_LE/library/libbluenrg1_stack.a(ll_routines.o)
                0x0000000010051bb0                LL_Set_Data_Length
 i.LL_Write_Default_Data_Length
                0x0000000010051c6c       0x50 ../../../../../../Library/Bluetooth_LE/library/libbluenrg1_stack.a(ll_routines.o)
                0x0000000010051c6c                LL_Write_Default_Data_Length
 i.MIN_U16      0x0000000010051cbc        0x8 ../../../../../../Library/Bluetooth_LE/library/libbluenrg1_stack.a(ll_routines.o)
 i.ll_write_supported_data
                0x0000000010051cc4       0x74 ../../../../../../Library/Bluetooth_LE/library/libbluenrg1_stack.a(ll_routines.o)
                0x0000000010051cc4                ll_write_supported_data
 i.read_rssi    0x0000000010051d38       0x7c ../../../../../../Library/Bluetooth_LE/library/libbluenrg1_stack.a(ll_routines.o)
                0x0000000010051d38                read_rssi
 i.LL_Create_Connection
                0x0000000010051db4      0x270 ../../../../../../Library/Bluetooth_LE/library/libbluenrg1_stack.a(ll_routines_master.o)
                0x0000000010051db4                LL_Create_Connection
 i.LL_Create_Connection_Cancel
                0x0000000010052024       0x38 ../../../../../../Library/Bluetooth_LE/library/libbluenrg1_stack.a(ll_routines_master.o)
                0x0000000010052024                LL_Create_Connection_Cancel
 i.LL_Enable_Disable_Scan
                0x000000001005205c      0x23c ../../../../../../Library/Bluetooth_LE/library/libbluenrg1_stack.a(ll_routines_master.o)
                0x000000001005205c                LL_Enable_Disable_Scan
 i.LL_Start_Connection_Update
                0x0000000010052298      0x14c ../../../../../../Library/Bluetooth_LE/library/libbluenrg1_stack.a(ll_routines_master.o)
                0x0000000010052298                LL_Start_Connection_Update
 i.Reclassify_All_Channels
                0x00000000100523e4       0xc0 ../../../../../../Library/Bluetooth_LE/library/libbluenrg1_stack.a(ll_routines_master.o)
                0x00000000100523e4                Reclassify_All_Channels
 i.check_access_address_patched
                0x00000000100524a4       0xcc ../../../../../../Library/Bluetooth_LE/library/libbluenrg1_stack.a(ll_routines_master.o)
 i.hci_encryption_change_event_push
                0x0000000010052570       0x5c ../../../../../../Library/Bluetooth_LE/library/libbluenrg1_stack.a(ll_routines_master.o)
 i.hci_encryption_key_refresh_complete_event_push
                0x00000000100525cc       0x58 ../../../../../../Library/Bluetooth_LE/library/libbluenrg1_stack.a(ll_routines_master.o)
 i.hci_le_advertising_report_event_push
                0x0000000010052624       0x94 ../../../../../../Library/Bluetooth_LE/library/libbluenrg1_stack.a(ll_routines_master.o)
 i.hci_le_connection_complete_event_push
                0x00000000100526b8       0x88 ../../../../../../Library/Bluetooth_LE/library/libbluenrg1_stack.a(ll_routines_master.o)
 i.hci_le_connection_update_complete_event_push
                0x0000000010052740       0x6c ../../../../../../Library/Bluetooth_LE/library/libbluenrg1_stack.a(ll_routines_master.o)
 i.int32ToLe3Byte
                0x00000000100527ac        0xc ../../../../../../Library/Bluetooth_LE/library/libbluenrg1_stack.a(ll_routines_master.o)
 i.int32ToLe4Byte
                0x00000000100527b8       0x10 ../../../../../../Library/Bluetooth_LE/library/libbluenrg1_stack.a(ll_routines_master.o)
 i.isr_event_handler
                0x00000000100527c8      0x5fc ../../../../../../Library/Bluetooth_LE/library/libbluenrg1_stack.a(ll_routines_master.o)
                0x00000000100527c8                isr_event_handler
 i.isr_event_handler_scan_data
                0x0000000010052dc4      0x1fc ../../../../../../Library/Bluetooth_LE/library/libbluenrg1_stack.a(ll_routines_master.o)
                0x0000000010052dc4                isr_event_handler_scan_data
 i.wait_for_prescheduled_slot_cancellation
                0x0000000010052fc0       0x7c ../../../../../../Library/Bluetooth_LE/library/libbluenrg1_stack.a(ll_routines_master.o)
 i.LL_Encrypt_Plain_Data
                0x000000001005303c       0x88 ../../../../../../Library/Bluetooth_LE/library/libbluenrg1_stack.a(ll_routines_support.o)
                0x000000001005303c                LL_Encrypt_Plain_Data
 i.LL_Set_LTK   0x00000000100530c4       0x9c ../../../../../../Library/Bluetooth_LE/library/libbluenrg1_stack.a(ll_routines_support.o)
                0x00000000100530c4                LL_Set_LTK
 i.aci_hal_get_link_status
                0x0000000010053160       0x54 ../../../../../../Library/Bluetooth_LE/library/libbluenrg1_stack.a(ll_routines_support.o)
                0x0000000010053160                aci_hal_get_link_status
 i.Dynamic_allocator
                0x00000000100531b4      0x264 ../../../../../../Library/Bluetooth_LE/library/libbluenrg1_stack.a(mem_alloc.o)
                0x00000000100531b4                Dynamic_allocator
 i.Dynamic_allocator_noRet
                0x0000000010053418        0x2 ../../../../../../Library/Bluetooth_LE/library/libbluenrg1_stack.a(mem_alloc.o)
                0x0000000010053418                Dynamic_allocator_noRet
 i.Mem_assign   0x000000001005341a       0x16 ../../../../../../Library/Bluetooth_LE/library/libbluenrg1_stack.a(mem_alloc.o)
 i.mem_alloc_ctx_init
                0x0000000010053430       0xa8 ../../../../../../Library/Bluetooth_LE/library/libbluenrg1_stack.a(mem_alloc.o)
                0x0000000010053430                mem_alloc_ctx_init
 i.Mem_Buff_Append
                0x00000000100534d8       0x12 ../../../../../../Library/Bluetooth_LE/library/libbluenrg1_stack.a(mem_buff.o)
                0x00000000100534d8                Mem_Buff_Append
 i.Mem_Buff_Block_Copy
                0x00000000100534ea       0x48 ../../../../../../Library/Bluetooth_LE/library/libbluenrg1_stack.a(mem_buff.o)
                0x00000000100534ea                Mem_Buff_Block_Copy
 i.Mem_Buff_Block_Write
                0x0000000010053532       0x56 ../../../../../../Library/Bluetooth_LE/library/libbluenrg1_stack.a(mem_buff.o)
                0x0000000010053532                Mem_Buff_Block_Write
 i.Mem_Buff_Clone
                0x0000000010053588       0x32 ../../../../../../Library/Bluetooth_LE/library/libbluenrg1_stack.a(mem_buff.o)
                0x0000000010053588                Mem_Buff_Clone
 i.Mem_Buff_Cmp
                0x00000000100535ba       0x78 ../../../../../../Library/Bluetooth_LE/library/libbluenrg1_stack.a(mem_buff.o)
                0x00000000100535ba                Mem_Buff_Cmp
 i.Mem_Buff_Compact
                0x0000000010053632       0xba ../../../../../../Library/Bluetooth_LE/library/libbluenrg1_stack.a(mem_buff.o)
                0x0000000010053632                Mem_Buff_Compact
 i.Mem_Buff_Get
                0x00000000100536ec       0x2e ../../../../../../Library/Bluetooth_LE/library/libbluenrg1_stack.a(mem_buff.o)
                0x00000000100536ec                Mem_Buff_Get
 i.Mem_Buff_Get_Chain_Count
                0x000000001005371a       0x14 ../../../../../../Library/Bluetooth_LE/library/libbluenrg1_stack.a(mem_buff.o)
                0x000000001005371a                Mem_Buff_Get_Chain_Count
 i.Mem_Buff_Get_Chain_Size
                0x000000001005372e       0x14 ../../../../../../Library/Bluetooth_LE/library/libbluenrg1_stack.a(mem_buff.o)
                0x000000001005372e                Mem_Buff_Get_Chain_Size
 i.Mem_Buff_Init
                0x0000000010053742       0x6a ../../../../../../Library/Bluetooth_LE/library/libbluenrg1_stack.a(mem_buff.o)
                0x0000000010053742                Mem_Buff_Init
 i.Mem_Buff_Read
                0x00000000100537ac       0x62 ../../../../../../Library/Bluetooth_LE/library/libbluenrg1_stack.a(mem_buff.o)
                0x00000000100537ac                Mem_Buff_Read
 i.Mem_Buff_Release
                0x000000001005380e       0x36 ../../../../../../Library/Bluetooth_LE/library/libbluenrg1_stack.a(mem_buff.o)
                0x000000001005380e                Mem_Buff_Release
 i.Mem_Buff_Resize
                0x0000000010053844       0x8e ../../../../../../Library/Bluetooth_LE/library/libbluenrg1_stack.a(mem_buff.o)
                0x0000000010053844                Mem_Buff_Resize
 i.Mem_Buff_Write
                0x00000000100538d2       0x68 ../../../../../../Library/Bluetooth_LE/library/libbluenrg1_stack.a(mem_buff.o)
                0x00000000100538d2                Mem_Buff_Write
 *fill*         0x000000001005393a        0x2 
 i.LL_Get_Anchor_Interval
                0x000000001005393c       0x58 ../../../../../../Library/Bluetooth_LE/library/libbluenrg1_stack.a(multi_master_time.o)
                0x000000001005393c                LL_Get_Anchor_Interval
 i.adapt_slot   0x0000000010053994      0x260 ../../../../../../Library/Bluetooth_LE/library/libbluenrg1_stack.a(multi_master_time.o)
 i.advance_slave_timing_MultiSlave
                0x0000000010053bf4      0x2cc ../../../../../../Library/Bluetooth_LE/library/libbluenrg1_stack.a(multi_master_time.o)
                0x0000000010053bf4                advance_slave_timing_MultiSlave
 i.anchor_replace
                0x0000000010053ec0       0x4c ../../../../../../Library/Bluetooth_LE/library/libbluenrg1_stack.a(multi_master_time.o)
                0x0000000010053ec0                anchor_replace
 i.cancel_current_master
                0x0000000010053f0c      0x1a8 ../../../../../../Library/Bluetooth_LE/library/libbluenrg1_stack.a(multi_master_time.o)
                0x0000000010053f0c                cancel_current_master
 i.get_advertiser
                0x00000000100540b4       0x48 ../../../../../../Library/Bluetooth_LE/library/libbluenrg1_stack.a(multi_master_time.o)
                0x00000000100540b4                get_advertiser
 i.get_connection_no
                0x00000000100540fc       0x88 ../../../../../../Library/Bluetooth_LE/library/libbluenrg1_stack.a(multi_master_time.o)
                0x00000000100540fc                get_connection_no
 i.get_next_free_slot
                0x0000000010054184       0x34 ../../../../../../Library/Bluetooth_LE/library/libbluenrg1_stack.a(multi_master_time.o)
                0x0000000010054184                get_next_free_slot
 i.get_scan_connection
                0x00000000100541b8       0x48 ../../../../../../Library/Bluetooth_LE/library/libbluenrg1_stack.a(multi_master_time.o)
                0x00000000100541b8                get_scan_connection
 i.is_slave     0x0000000010054200       0x34 ../../../../../../Library/Bluetooth_LE/library/libbluenrg1_stack.a(multi_master_time.o)
                0x0000000010054200                is_slave
 i.nsar_init    0x0000000010054234       0x18 ../../../../../../Library/Bluetooth_LE/library/libbluenrg1_stack.a(multi_master_time.o)
                0x0000000010054234                nsar_init
 i.nsar_insertSlotListEntry
                0x000000001005424c       0x1c ../../../../../../Library/Bluetooth_LE/library/libbluenrg1_stack.a(multi_master_time.o)
 i.nsar_searchBestFreeSlot
                0x0000000010054268       0xc0 ../../../../../../Library/Bluetooth_LE/library/libbluenrg1_stack.a(multi_master_time.o)
 i.nsar_searchMaxFreeSlot
                0x0000000010054328       0x7c ../../../../../../Library/Bluetooth_LE/library/libbluenrg1_stack.a(multi_master_time.o)
 i.nsar_updateBestFreeSlot
                0x00000000100543a4       0x22 ../../../../../../Library/Bluetooth_LE/library/libbluenrg1_stack.a(multi_master_time.o)
 *fill*         0x00000000100543c6        0x2 
 i.nsar_updateSlotListEntry
                0x00000000100543c8       0x6c ../../../../../../Library/Bluetooth_LE/library/libbluenrg1_stack.a(multi_master_time.o)
 i.request_connect_slot
                0x0000000010054434       0x74 ../../../../../../Library/Bluetooth_LE/library/libbluenrg1_stack.a(multi_master_time.o)
                0x0000000010054434                request_connect_slot
 i.request_scan_slot
                0x00000000100544a8       0x94 ../../../../../../Library/Bluetooth_LE/library/libbluenrg1_stack.a(multi_master_time.o)
                0x00000000100544a8                request_scan_slot
 i.reschedule_wakeup_slot
                0x000000001005453c       0xc8 ../../../../../../Library/Bluetooth_LE/library/libbluenrg1_stack.a(multi_master_time.o)
                0x000000001005453c                reschedule_wakeup_slot
 i.schedule_advertise_slot
                0x0000000010054604       0xb0 ../../../../../../Library/Bluetooth_LE/library/libbluenrg1_stack.a(multi_master_time.o)
                0x0000000010054604                schedule_advertise_slot
 i.start_timebase
                0x00000000100546b4       0xd0 ../../../../../../Library/Bluetooth_LE/library/libbluenrg1_stack.a(multi_master_time.o)
                0x00000000100546b4                start_timebase
 i.swap_u16     0x0000000010054784        0xa ../../../../../../Library/Bluetooth_LE/library/libbluenrg1_stack.a(multi_master_time.o)
 *fill*         0x000000001005478e        0x2 
 i.timebase_start_connect
                0x0000000010054790       0x38 ../../../../../../Library/Bluetooth_LE/library/libbluenrg1_stack.a(multi_master_time.o)
                0x0000000010054790                timebase_start_connect
 i.Flash_Write_Flagged
                0x00000000100547c8       0x3c ../../../../../../Library/Bluetooth_LE/library/libbluenrg1_stack.a(nvm.o)
                0x00000000100547c8                Flash_Write_Flagged
 i.Is_Flash_Write_On_Going
                0x0000000010054804       0x10 ../../../../../../Library/Bluetooth_LE/library/libbluenrg1_stack.a(nvm.o)
                0x0000000010054804                Is_Flash_Write_On_Going
 i.BLEPLAT_PKA_Get_Current_Operation
                0x0000000010054814       0x14 ../../../../../../Library/Bluetooth_LE/library/libbluenrg1_stack.a(pka.o)
                0x0000000010054814                BLEPLAT_PKA_Get_Current_Operation
 i.BLEPLAT_PKA_Start_P256_DHKey_Generation
                0x0000000010054828       0x50 ../../../../../../Library/Bluetooth_LE/library/libbluenrg1_stack.a(pka.o)
                0x0000000010054828                BLEPLAT_PKA_Start_P256_DHKey_Generation
 i.BLEPLAT_PKA_Start_P256_Public_Key_Generation
                0x0000000010054878       0x6c ../../../../../../Library/Bluetooth_LE/library/libbluenrg1_stack.a(pka.o)
                0x0000000010054878                BLEPLAT_PKA_Start_P256_Public_Key_Generation
 i.PM_Check_And_Set
                0x00000000100548e4       0x50 ../../../../../../Library/Bluetooth_LE/library/libbluenrg1_stack.a(pm.o)
 i.PM_Clone_Pckt
                0x0000000010054934       0x22 ../../../../../../Library/Bluetooth_LE/library/libbluenrg1_stack.a(pm.o)
                0x0000000010054934                PM_Clone_Pckt
 *fill*         0x0000000010054956        0x2 
 i.PM_Compact   0x0000000010054958       0x54 ../../../../../../Library/Bluetooth_LE/library/libbluenrg1_stack.a(pm.o)
                0x0000000010054958                PM_Compact
 i.PM_Copy_Pckt_Data
                0x00000000100549ac       0x12 ../../../../../../Library/Bluetooth_LE/library/libbluenrg1_stack.a(pm.o)
                0x00000000100549ac                PM_Copy_Pckt_Data
 *fill*         0x00000000100549be        0x2 
 i.PM_Eng_Config
                0x00000000100549c0       0x18 ../../../../../../Library/Bluetooth_LE/library/libbluenrg1_stack.a(pm.o)
                0x00000000100549c0                PM_Eng_Config
 i.PM_Extract_Pdu_MBuff
                0x00000000100549d8        0xc ../../../../../../Library/Bluetooth_LE/library/libbluenrg1_stack.a(pm.o)
                0x00000000100549d8                PM_Extract_Pdu_MBuff
 i.PM_Get_Available_Buffer
                0x00000000100549e4       0x3c ../../../../../../Library/Bluetooth_LE/library/libbluenrg1_stack.a(pm.o)
                0x00000000100549e4                PM_Get_Available_Buffer
 i.PM_Get_Mem_Buff_Count
                0x0000000010054a20        0xa ../../../../../../Library/Bluetooth_LE/library/libbluenrg1_stack.a(pm.o)
                0x0000000010054a20                PM_Get_Mem_Buff_Count
 *fill*         0x0000000010054a2a        0x2 
 i.PM_Get_Pckt  0x0000000010054a2c       0x44 ../../../../../../Library/Bluetooth_LE/library/libbluenrg1_stack.a(pm.o)
                0x0000000010054a2c                PM_Get_Pckt
 i.PM_Init      0x0000000010054a70       0x68 ../../../../../../Library/Bluetooth_LE/library/libbluenrg1_stack.a(pm.o)
                0x0000000010054a70                PM_Init
 i.PM_Pckt_Cmp  0x0000000010054ad8        0xa ../../../../../../Library/Bluetooth_LE/library/libbluenrg1_stack.a(pm.o)
                0x0000000010054ad8                PM_Pckt_Cmp
 *fill*         0x0000000010054ae2        0x2 
 i.PM_Release_Acl_Pckt
                0x0000000010054ae4       0x3c ../../../../../../Library/Bluetooth_LE/library/libbluenrg1_stack.a(pm.o)
                0x0000000010054ae4                PM_Release_Acl_Pckt
 i.PM_Resize_Pckt_Pdu_Size
                0x0000000010054b20       0x6c ../../../../../../Library/Bluetooth_LE/library/libbluenrg1_stack.a(pm.o)
                0x0000000010054b20                PM_Resize_Pckt_Pdu_Size
 i.PM_Write_Pckt_Data
                0x0000000010054b8c       0x12 ../../../../../../Library/Bluetooth_LE/library/libbluenrg1_stack.a(pm.o)
                0x0000000010054b8c                PM_Write_Pckt_Data
 *fill*         0x0000000010054b9e        0x2 
 i.ATT_fill_exchg_mtu_req
                0x0000000010054ba0       0x2c ../../../../../../Library/Bluetooth_LE/library/libbluenrg1_stack.a(rom_att.o)
                0x0000000010054ba0                ATT_fill_exchg_mtu_req
 i.Accu_Handles_Requiring_Auth
                0x0000000010054bcc       0x6e ../../../../../../Library/Bluetooth_LE/library/libbluenrg1_stack.a(rom_att.o)
                0x0000000010054bcc                Accu_Handles_Requiring_Auth
 i.Accu_UuidTypes_Requiring_Auth
                0x0000000010054c3a       0xea ../../../../../../Library/Bluetooth_LE/library/libbluenrg1_stack.a(rom_att.o)
                0x0000000010054c3a                Accu_UuidTypes_Requiring_Auth
 i.Att_Send_Confirmation_Pdu
                0x0000000010054d24        0xe ../../../../../../Library/Bluetooth_LE/library/libbluenrg1_stack.a(rom_att.o)
                0x0000000010054d24                Att_Send_Confirmation_Pdu
 i.Att_Send_Exec_Write_Req_Pdu
                0x0000000010054d32       0x22 ../../../../../../Library/Bluetooth_LE/library/libbluenrg1_stack.a(rom_att.o)
                0x0000000010054d32                Att_Send_Exec_Write_Req_Pdu
 i.Att_Send_Find_By_Typ_Val_Req_Pdu
                0x0000000010054d54       0x86 ../../../../../../Library/Bluetooth_LE/library/libbluenrg1_stack.a(rom_att.o)
                0x0000000010054d54                Att_Send_Find_By_Typ_Val_Req_Pdu
 i.Att_Send_Find_Info_Req_Pdu
                0x0000000010054dda       0x50 ../../../../../../Library/Bluetooth_LE/library/libbluenrg1_stack.a(rom_att.o)
                0x0000000010054dda                Att_Send_Find_Info_Req_Pdu
 i.Att_Send_Prp_Write_Req_Pdu
                0x0000000010054e2a       0x72 ../../../../../../Library/Bluetooth_LE/library/libbluenrg1_stack.a(rom_att.o)
                0x0000000010054e2a                Att_Send_Prp_Write_Req_Pdu
 i.Att_Send_Read_Blob_Req_Pdu
                0x0000000010054e9c       0x48 ../../../../../../Library/Bluetooth_LE/library/libbluenrg1_stack.a(rom_att.o)
                0x0000000010054e9c                Att_Send_Read_Blob_Req_Pdu
 i.Att_Send_Read_By_Grp_Typ_Req_Pdu
                0x0000000010054ee4       0x76 ../../../../../../Library/Bluetooth_LE/library/libbluenrg1_stack.a(rom_att.o)
                0x0000000010054ee4                Att_Send_Read_By_Grp_Typ_Req_Pdu
 i.Att_Send_Read_By_Typ_Req_Pdu
                0x0000000010054f5a       0x76 ../../../../../../Library/Bluetooth_LE/library/libbluenrg1_stack.a(rom_att.o)
                0x0000000010054f5a                Att_Send_Read_By_Typ_Req_Pdu
 i.Att_Send_Read_Multi_Req_Pdu
                0x0000000010054fd0       0x58 ../../../../../../Library/Bluetooth_LE/library/libbluenrg1_stack.a(rom_att.o)
                0x0000000010054fd0                Att_Send_Read_Multi_Req_Pdu
 i.Att_Send_Read_Req_Pdu
                0x0000000010055028       0x3a ../../../../../../Library/Bluetooth_LE/library/libbluenrg1_stack.a(rom_att.o)
                0x0000000010055028                Att_Send_Read_Req_Pdu
 i.Att_Send_Signd_Write_Cmd_Pdu
                0x0000000010055062       0x40 ../../../../../../Library/Bluetooth_LE/library/libbluenrg1_stack.a(rom_att.o)
                0x0000000010055062                Att_Send_Signd_Write_Cmd_Pdu
 i.Att_Send_Write_Cmd_Pdu
                0x00000000100550a2       0x32 ../../../../../../Library/Bluetooth_LE/library/libbluenrg1_stack.a(rom_att.o)
                0x00000000100550a2                Att_Send_Write_Cmd_Pdu
 i.Att_Send_Write_Req_Pdu
                0x00000000100550d4       0x66 ../../../../../../Library/Bluetooth_LE/library/libbluenrg1_stack.a(rom_att.o)
                0x00000000100550d4                Att_Send_Write_Req_Pdu
 i.Pm_Resize_Host_Acl_Pckt
                0x000000001005513a        0xe ../../../../../../Library/Bluetooth_LE/library/libbluenrg1_stack.a(rom_att.o)
 i.GAP_Add_To_WhiteList
                0x0000000010055148       0x3e ../../../../../../Library/Bluetooth_LE/library/libbluenrg1_stack.a(rom_gap.o)
                0x0000000010055148                GAP_Add_To_WhiteList
 *fill*         0x0000000010055186        0x2 
 i.GAP_Connection_Update
                0x0000000010055188       0x20 ../../../../../../Library/Bluetooth_LE/library/libbluenrg1_stack.a(rom_gap.o)
                0x0000000010055188                GAP_Connection_Update
 i.GAP_Privacy1v2
                0x00000000100551a8      0x1e0 ../../../../../../Library/Bluetooth_LE/library/libbluenrg1_stack.a(rom_gap.o)
                0x00000000100551a8                GAP_Privacy1v2
 i.GAP_PrivateAddrTimercb
                0x0000000010055388       0x48 ../../../../../../Library/Bluetooth_LE/library/libbluenrg1_stack.a(rom_gap.o)
                0x0000000010055388                GAP_PrivateAddrTimercb
 i.GAP_Resolve_Private_Addr
                0x00000000100553d0       0x32 ../../../../../../Library/Bluetooth_LE/library/libbluenrg1_stack.a(rom_gap.o)
                0x00000000100553d0                GAP_Resolve_Private_Addr
 *fill*         0x0000000010055402        0x2 
 i.GAP_Start_Discovery_Procedure
                0x0000000010055404       0x5c ../../../../../../Library/Bluetooth_LE/library/libbluenrg1_stack.a(rom_gap.o)
                0x0000000010055404                GAP_Start_Discovery_Procedure
 i.GapIsPrivacySupported
                0x0000000010055460       0x14 ../../../../../../Library/Bluetooth_LE/library/libbluenrg1_stack.a(rom_gap.o)
                0x0000000010055460                GapIsPrivacySupported
 i.Generate_Non_Resolvable_Private_Address
                0x0000000010055474       0x88 ../../../../../../Library/Bluetooth_LE/library/libbluenrg1_stack.a(rom_gap.o)
                0x0000000010055474                Generate_Non_Resolvable_Private_Address
 i.aci_gap_add_devices_to_resolving_list_api
                0x00000000100554fc       0x7a ../../../../../../Library/Bluetooth_LE/library/libbluenrg1_stack.a(rom_gap.o)
                0x00000000100554fc                aci_gap_add_devices_to_resolving_list_api
 i.isIdentityAddress
                0x0000000010055576       0x10 ../../../../../../Library/Bluetooth_LE/library/libbluenrg1_stack.a(rom_gap.o)
                0x0000000010055576                isIdentityAddress
 *fill*         0x0000000010055586        0x2 
 i.GAP_Delete_ADType
                0x0000000010055588       0xb0 ../../../../../../Library/Bluetooth_LE/library/libbluenrg1_stack.a(rom_gap_rom.o)
                0x0000000010055588                GAP_Delete_ADType
 i.GAP_Notify_Add_Charac
                0x0000000010055638       0x70 ../../../../../../Library/Bluetooth_LE/library/libbluenrg1_stack.a(rom_gap_rom.o)
                0x0000000010055638                GAP_Notify_Add_Charac
 i.GAP_Terminate_Link
                0x00000000100556a8        0x8 ../../../../../../Library/Bluetooth_LE/library/libbluenrg1_stack.a(rom_gap_rom.o)
                0x00000000100556a8                GAP_Terminate_Link
 i.GAP_Update_Adv_Data
                0x00000000100556b0       0xce ../../../../../../Library/Bluetooth_LE/library/libbluenrg1_stack.a(rom_gap_rom.o)
                0x00000000100556b0                GAP_Update_Adv_Data
 *fill*         0x000000001005577e        0x2 
 i.Get_GAP_Handle
                0x0000000010055780       0x10 ../../../../../../Library/Bluetooth_LE/library/libbluenrg1_stack.a(rom_gap_rom.o)
                0x0000000010055780                Get_GAP_Handle
 i.Get_StaticRandAddr
                0x0000000010055790       0x14 ../../../../../../Library/Bluetooth_LE/library/libbluenrg1_stack.a(rom_gap_rom.o)
                0x0000000010055790                Get_StaticRandAddr
 i.Check_Encry_Key_Size
                0x00000000100557a4       0x18 ../../../../../../Library/Bluetooth_LE/library/libbluenrg1_stack.a(rom_gatt_server.o)
                0x00000000100557a4                Check_Encry_Key_Size
 i.GATT_Num_Charac_Present
                0x00000000100557bc       0x3a ../../../../../../Library/Bluetooth_LE/library/libbluenrg1_stack.a(rom_gatt_server.o)
                0x00000000100557bc                GATT_Num_Charac_Present
 *fill*         0x00000000100557f6        0x2 
 i.Gatt_Change_Attribute_Permission
                0x00000000100557f8       0x48 ../../../../../../Library/Bluetooth_LE/library/libbluenrg1_stack.a(rom_gatt_server.o)
                0x00000000100557f8                Gatt_Change_Attribute_Permission
 i.Start_Gatt_Timer
                0x0000000010055840       0x24 ../../../../../../Library/Bluetooth_LE/library/libbluenrg1_stack.a(rom_gatt_server.o)
                0x0000000010055840                Start_Gatt_Timer
 i.Stop_Gatt_Timer
                0x0000000010055864       0x1c ../../../../../../Library/Bluetooth_LE/library/libbluenrg1_stack.a(rom_gatt_server.o)
                0x0000000010055864                Stop_Gatt_Timer
 i.List_Circular_Get_Size
                0x0000000010055880       0x14 ../../../../../../Library/Bluetooth_LE/library/libbluenrg1_stack.a(rom_list.o)
                0x0000000010055880                List_Circular_Get_Size
 i.List_Circular_Insert_Tail
                0x0000000010055894        0xe ../../../../../../Library/Bluetooth_LE/library/libbluenrg1_stack.a(rom_list.o)
                0x0000000010055894                List_Circular_Insert_Tail
 i.List_Circular_Node_Present
                0x00000000100558a2       0x16 ../../../../../../Library/Bluetooth_LE/library/libbluenrg1_stack.a(rom_list.o)
                0x00000000100558a2                List_Circular_Node_Present
 i.List_Circular_Remove_Head
                0x00000000100558b8       0x1a ../../../../../../Library/Bluetooth_LE/library/libbluenrg1_stack.a(rom_list.o)
                0x00000000100558b8                List_Circular_Remove_Head
 i.List_Circular_Remove_Node
                0x00000000100558d2       0x20 ../../../../../../Library/Bluetooth_LE/library/libbluenrg1_stack.a(rom_list.o)
                0x00000000100558d2                List_Circular_Remove_Node
 *fill*         0x00000000100558f2        0x2 
 i.isr_postproc1
                0x00000000100558f4      0x110 ../../../../../../Library/Bluetooth_LE/library/libbluenrg1_stack.a(rom_ll_isr_postproc.o)
                0x00000000100558f4                isr_postproc1
 i.isr_postproc_encrypt_data
                0x0000000010055a04       0x16 ../../../../../../Library/Bluetooth_LE/library/libbluenrg1_stack.a(rom_ll_isr_postproc.o)
                0x0000000010055a04                isr_postproc_encrypt_data
 i.wait_for_aes_ready
                0x0000000010055a1a       0x24 ../../../../../../Library/Bluetooth_LE/library/libbluenrg1_stack.a(rom_ll_isr_postproc.o)
 *fill*         0x0000000010055a3e        0x2 
 i.LL_update_proc
                0x0000000010055a40       0x98 ../../../../../../Library/Bluetooth_LE/library/libbluenrg1_stack.a(rom_ll_isr_routines.o)
                0x0000000010055a40                LL_update_proc
 i.addr_u32_from_u8
                0x0000000010055ad8       0x1e ../../../../../../Library/Bluetooth_LE/library/libbluenrg1_stack.a(rom_ll_isr_routines.o)
 *fill*         0x0000000010055af6        0x2 
 i.cancel_connect_master
                0x0000000010055af8       0xf0 ../../../../../../Library/Bluetooth_LE/library/libbluenrg1_stack.a(rom_ll_isr_routines.o)
                0x0000000010055af8                cancel_connect_master
 i.cancel_master
                0x0000000010055be8       0x7c ../../../../../../Library/Bluetooth_LE/library/libbluenrg1_stack.a(rom_ll_isr_routines.o)
                0x0000000010055be8                cancel_master
 i.get_adv_addr
                0x0000000010055c64       0x14 ../../../../../../Library/Bluetooth_LE/library/libbluenrg1_stack.a(rom_ll_isr_routines.o)
                0x0000000010055c64                get_adv_addr
 i.get_scan_addr
                0x0000000010055c78       0x14 ../../../../../../Library/Bluetooth_LE/library/libbluenrg1_stack.a(rom_ll_isr_routines.o)
                0x0000000010055c78                get_scan_addr
 i.go_to_connect
                0x0000000010055c8c      0x298 ../../../../../../Library/Bluetooth_LE/library/libbluenrg1_stack.a(rom_ll_isr_routines.o)
                0x0000000010055c8c                go_to_connect
 i.le2ByteToInt16
                0x0000000010055f24        0xa ../../../../../../Library/Bluetooth_LE/library/libbluenrg1_stack.a(rom_ll_isr_routines.o)
 i.le4ByteToInt32
                0x0000000010055f2e       0x16 ../../../../../../Library/Bluetooth_LE/library/libbluenrg1_stack.a(rom_ll_isr_routines.o)
 i.unpack_channel_map
                0x0000000010055f44       0x2e ../../../../../../Library/Bluetooth_LE/library/libbluenrg1_stack.a(rom_ll_isr_routines.o)
                0x0000000010055f44                unpack_channel_map
 i.unpack_update_request
                0x0000000010055f72       0x48 ../../../../../../Library/Bluetooth_LE/library/libbluenrg1_stack.a(rom_ll_isr_routines.o)
                0x0000000010055f72                unpack_update_request
 i.Is_Address_Initialized
                0x0000000010055fba       0x18 ../../../../../../Library/Bluetooth_LE/library/libbluenrg1_stack.a(rom_ll_ll_routines.o)
                0x0000000010055fba                Is_Address_Initialized
 i.LL_Allow_Address_Setting
                0x0000000010055fd2       0x42 ../../../../../../Library/Bluetooth_LE/library/libbluenrg1_stack.a(rom_ll_ll_routines.o)
                0x0000000010055fd2                LL_Allow_Address_Setting
 i.LL_Check_And_Set_Addresses
                0x0000000010056014      0x1fc ../../../../../../Library/Bluetooth_LE/library/libbluenrg1_stack.a(rom_ll_ll_routines.o)
                0x0000000010056014                LL_Check_And_Set_Addresses
 i.LL_Enable_Disable_Adv
                0x0000000010056210      0x21c ../../../../../../Library/Bluetooth_LE/library/libbluenrg1_stack.a(rom_ll_ll_routines.o)
                0x0000000010056210                LL_Enable_Disable_Adv
 i.LL_Get_Address
                0x000000001005642c       0x2c ../../../../../../Library/Bluetooth_LE/library/libbluenrg1_stack.a(rom_ll_ll_routines.o)
                0x000000001005642c                LL_Get_Address
 i.LL_Get_AdvAddress
                0x0000000010056458       0x40 ../../../../../../Library/Bluetooth_LE/library/libbluenrg1_stack.a(rom_ll_ll_routines.o)
                0x0000000010056458                LL_Get_AdvAddress
 i.LL_Get_Adv_Data
                0x0000000010056498       0x38 ../../../../../../Library/Bluetooth_LE/library/libbluenrg1_stack.a(rom_ll_ll_routines.o)
                0x0000000010056498                LL_Get_Adv_Data
 i.LL_Get_Channel_Map
                0x00000000100564d0       0x34 ../../../../../../Library/Bluetooth_LE/library/libbluenrg1_stack.a(rom_ll_ll_routines.o)
                0x00000000100564d0                LL_Get_Channel_Map
 i.LL_Get_ScanAddress
                0x0000000010056504       0x40 ../../../../../../Library/Bluetooth_LE/library/libbluenrg1_stack.a(rom_ll_ll_routines.o)
                0x0000000010056504                LL_Get_ScanAddress
 i.LL_Init      0x0000000010056544      0x18c ../../../../../../Library/Bluetooth_LE/library/libbluenrg1_stack.a(rom_ll_ll_routines.o)
                0x0000000010056544                LL_Init
 i.LL_Send_ACL_Data
                0x00000000100566d0       0x50 ../../../../../../Library/Bluetooth_LE/library/libbluenrg1_stack.a(rom_ll_ll_routines.o)
                0x00000000100566d0                LL_Send_ACL_Data
 i.LL_Set_Adv_Data
                0x0000000010056720       0x78 ../../../../../../Library/Bluetooth_LE/library/libbluenrg1_stack.a(rom_ll_ll_routines.o)
                0x0000000010056720                LL_Set_Adv_Data
 i.LL_Set_Adv_PDU_Format
                0x0000000010056798       0xcc ../../../../../../Library/Bluetooth_LE/library/libbluenrg1_stack.a(rom_ll_ll_routines.o)
                0x0000000010056798                LL_Set_Adv_PDU_Format
 i.LL_Set_Adv_Params
                0x0000000010056864      0x14c ../../../../../../Library/Bluetooth_LE/library/libbluenrg1_stack.a(rom_ll_ll_routines.o)
                0x0000000010056864                LL_Set_Adv_Params
 i.LL_Set_Advertising_Buffers
                0x00000000100569b0       0x88 ../../../../../../Library/Bluetooth_LE/library/libbluenrg1_stack.a(rom_ll_ll_routines.o)
                0x00000000100569b0                LL_Set_Advertising_Buffers
 i.LL_Set_DirectAddress
                0x0000000010056a38       0x38 ../../../../../../Library/Bluetooth_LE/library/libbluenrg1_stack.a(rom_ll_ll_routines.o)
 i.LL_Set_OwnAddress
                0x0000000010056a70       0x24 ../../../../../../Library/Bluetooth_LE/library/libbluenrg1_stack.a(rom_ll_ll_routines.o)
                0x0000000010056a70                LL_Set_OwnAddress
 i.LL_Set_Scan_Resp_Data
                0x0000000010056a94       0x5c ../../../../../../Library/Bluetooth_LE/library/libbluenrg1_stack.a(rom_ll_ll_routines.o)
                0x0000000010056a94                LL_Set_Scan_Resp_Data
 i.LL_Update_Advertising_Buffers
                0x0000000010056af0       0x48 ../../../../../../Library/Bluetooth_LE/library/libbluenrg1_stack.a(rom_ll_ll_routines.o)
                0x0000000010056af0                LL_Update_Advertising_Buffers
 i.LL_Update_Scanning_Initiating_Buffers
                0x0000000010056b38       0x48 ../../../../../../Library/Bluetooth_LE/library/libbluenrg1_stack.a(rom_ll_ll_routines.o)
                0x0000000010056b38                LL_Update_Scanning_Initiating_Buffers
 i.LL_busy      0x0000000010056b80       0x24 ../../../../../../Library/Bluetooth_LE/library/libbluenrg1_stack.a(rom_ll_ll_routines.o)
                0x0000000010056b80                LL_busy
 i.addr_u32_from_u8
                0x0000000010056ba4       0x20 ../../../../../../Library/Bluetooth_LE/library/libbluenrg1_stack.a(rom_ll_ll_routines.o)
 i.int32ToLe4Byte
                0x0000000010056bc4       0x10 ../../../../../../Library/Bluetooth_LE/library/libbluenrg1_stack.a(rom_ll_ll_routines.o)
 i.is_connected
                0x0000000010056bd4       0x4c ../../../../../../Library/Bluetooth_LE/library/libbluenrg1_stack.a(rom_ll_ll_routines.o)
                0x0000000010056bd4                is_connected
 i.le4ByteToInt32
                0x0000000010056c20       0x16 ../../../../../../Library/Bluetooth_LE/library/libbluenrg1_stack.a(rom_ll_ll_routines.o)
 *fill*         0x0000000010056c36        0x2 
 i.wait_for_prescheduled_slot_cancellation
                0x0000000010056c38       0x7c ../../../../../../Library/Bluetooth_LE/library/libbluenrg1_stack.a(rom_ll_ll_routines.o)
 i.write_radio_config
                0x0000000010056cb4       0x2c ../../../../../../Library/Bluetooth_LE/library/libbluenrg1_stack.a(rom_ll_ll_routines.o)
                0x0000000010056cb4                write_radio_config
 i.LL_Cancel_Connection_Req
                0x0000000010056ce0       0x5c ../../../../../../Library/Bluetooth_LE/library/libbluenrg1_stack.a(rom_ll_ll_routines_master.o)
                0x0000000010056ce0                LL_Cancel_Connection_Req
 i.LL_Read_Remote_Used_Features
                0x0000000010056d3c       0xb0 ../../../../../../Library/Bluetooth_LE/library/libbluenrg1_stack.a(rom_ll_ll_routines_master.o)
                0x0000000010056d3c                LL_Read_Remote_Used_Features
 i.LL_Set_Channel_Classification
                0x0000000010056dec       0x38 ../../../../../../Library/Bluetooth_LE/library/libbluenrg1_stack.a(rom_ll_ll_routines_master.o)
                0x0000000010056dec                LL_Set_Channel_Classification
 i.LL_Set_Scan_Params
                0x0000000010056e24       0x54 ../../../../../../Library/Bluetooth_LE/library/libbluenrg1_stack.a(rom_ll_ll_routines_master.o)
                0x0000000010056e24                LL_Set_Scan_Params
 i.LL_Start_Encryption
                0x0000000010056e78       0xdc ../../../../../../Library/Bluetooth_LE/library/libbluenrg1_stack.a(rom_ll_ll_routines_master.o)
                0x0000000010056e78                LL_Start_Encryption
 i.le4ByteToInt32
                0x0000000010056f54       0x16 ../../../../../../Library/Bluetooth_LE/library/libbluenrg1_stack.a(rom_ll_ll_routines_master.o)
 *fill*         0x0000000010056f6a        0x2 
 i.wait_for_prescheduled_slot_cancellation
                0x0000000010056f6c       0x7c ../../../../../../Library/Bluetooth_LE/library/libbluenrg1_stack.a(rom_ll_ll_routines_master.o)
 i.Blue_Set_Radio_Config_Data
                0x0000000010056fe8       0x24 ../../../../../../Library/Bluetooth_LE/library/libbluenrg1_stack.a(rom_ll_routines_support.o)
                0x0000000010056fe8                Blue_Set_Radio_Config_Data
 i.LL_Get_Adv_Tx_Power_Level
                0x000000001005700c       0x18 ../../../../../../Library/Bluetooth_LE/library/libbluenrg1_stack.a(rom_ll_routines_support.o)
                0x000000001005700c                LL_Get_Adv_Tx_Power_Level
 i.LL_Get_Link_Tx_Power_Level
                0x0000000010057024       0x18 ../../../../../../Library/Bluetooth_LE/library/libbluenrg1_stack.a(rom_ll_routines_support.o)
                0x0000000010057024                LL_Get_Link_Tx_Power_Level
 i.LL_Get_Random_data
                0x000000001005703c       0x1c ../../../../../../Library/Bluetooth_LE/library/libbluenrg1_stack.a(rom_ll_routines_support.o)
                0x000000001005703c                LL_Get_Random_data
 i.LL_Get_Supported_States
                0x0000000010057058       0x18 ../../../../../../Library/Bluetooth_LE/library/libbluenrg1_stack.a(rom_ll_routines_support.o)
                0x0000000010057058                LL_Get_Supported_States
 i.LL_Read_RSSI
                0x0000000010057070       0x34 ../../../../../../Library/Bluetooth_LE/library/libbluenrg1_stack.a(rom_ll_routines_support.o)
                0x0000000010057070                LL_Read_RSSI
 i.LL_Test_Receiver
                0x00000000100570a4      0x144 ../../../../../../Library/Bluetooth_LE/library/libbluenrg1_stack.a(rom_ll_routines_support.o)
                0x00000000100570a4                LL_Test_Receiver
 i.LL_Test_Stop
                0x00000000100571e8       0x5c ../../../../../../Library/Bluetooth_LE/library/libbluenrg1_stack.a(rom_ll_routines_support.o)
                0x00000000100571e8                LL_Test_Stop
 i.LL_Test_Transmitter
                0x0000000010057244      0x274 ../../../../../../Library/Bluetooth_LE/library/libbluenrg1_stack.a(rom_ll_routines_support.o)
                0x0000000010057244                LL_Test_Transmitter
 i.chan_remap   0x00000000100574b8       0x22 ../../../../../../Library/Bluetooth_LE/library/libbluenrg1_stack.a(rom_ll_routines_support.o)
 *fill*         0x00000000100574da        0x2 
 i.convert_power
                0x00000000100574dc       0x24 ../../../../../../Library/Bluetooth_LE/library/libbluenrg1_stack.a(rom_ll_routines_support.o)
 i.modulo_37    0x0000000010057500       0x1c ../../../../../../Library/Bluetooth_LE/library/libbluenrg1_stack.a(rom_ll_routines_support.o)
                0x0000000010057500                modulo_37
 i.wait_for_RadioConfig_ready
                0x000000001005751c       0x24 ../../../../../../Library/Bluetooth_LE/library/libbluenrg1_stack.a(rom_ll_routines_support.o)
 i.WindowWiden1
                0x0000000010057540        0xa ../../../../../../Library/Bluetooth_LE/library/libbluenrg1_stack.a(rom_ll_timehandling.o)
                0x0000000010057540                WindowWiden1
 i.WindowWiden2
                0x000000001005754a       0x10 ../../../../../../Library/Bluetooth_LE/library/libbluenrg1_stack.a(rom_ll_timehandling.o)
                0x000000001005754a                WindowWiden2
 *fill*         0x000000001005755a        0x2 
 i.machine_time_trans
                0x000000001005755c       0x20 ../../../../../../Library/Bluetooth_LE/library/libbluenrg1_stack.a(rom_ll_timehandling.o)
                0x000000001005755c                machine_time_trans
 i.set_freq     0x000000001005757c       0x88 ../../../../../../Library/Bluetooth_LE/library/libbluenrg1_stack.a(rom_ll_timehandling.o)
                0x000000001005757c                set_freq
 i.set_sca      0x0000000010057604       0x1c ../../../../../../Library/Bluetooth_LE/library/libbluenrg1_stack.a(rom_ll_timehandling.o)
                0x0000000010057604                set_sca
 i.system_time_trans
                0x0000000010057620       0x10 ../../../../../../Library/Bluetooth_LE/library/libbluenrg1_stack.a(rom_ll_timehandling.o)
                0x0000000010057620                system_time_trans
 i.system_time_trans_ext
                0x0000000010057630       0x30 ../../../../../../Library/Bluetooth_LE/library/libbluenrg1_stack.a(rom_ll_timehandling.o)
                0x0000000010057630                system_time_trans_ext
 i.time_offset1
                0x0000000010057660        0xe ../../../../../../Library/Bluetooth_LE/library/libbluenrg1_stack.a(rom_ll_timehandling.o)
                0x0000000010057660                time_offset1
 *fill*         0x000000001005766e        0x2 
 i.time_offset2
                0x0000000010057670       0x10 ../../../../../../Library/Bluetooth_LE/library/libbluenrg1_stack.a(rom_ll_timehandling.o)
                0x0000000010057670                time_offset2
 i.Blue_Init_Global
                0x0000000010057680       0x98 ../../../../../../Library/Bluetooth_LE/library/libbluenrg1_stack.a(routines_support.o)
                0x0000000010057680                Blue_Init_Global
 i.LL_SetAddressResolutionEnable
                0x0000000010057718        0x8 ../../../../../../Library/Bluetooth_LE/library/libbluenrg1_stack.a(routines_support.o)
                0x0000000010057718                LL_SetAddressResolutionEnable
 i.advance_transmit
                0x0000000010057720      0x158 ../../../../../../Library/Bluetooth_LE/library/libbluenrg1_stack.a(routines_support.o)
                0x0000000010057720                advance_transmit
 i.microseconds_to_machine_time
                0x0000000010057878        0x8 ../../../../../../Library/Bluetooth_LE/library/libbluenrg1_stack.a(routines_support.o)
                0x0000000010057878                microseconds_to_machine_time
 i.slave_advance
                0x0000000010057880      0x200 ../../../../../../Library/Bluetooth_LE/library/libbluenrg1_stack.a(routines_support.o)
                0x0000000010057880                slave_advance
 i.swap_slaves  0x0000000010057a80      0x13c ../../../../../../Library/Bluetooth_LE/library/libbluenrg1_stack.a(routines_support.o)
                0x0000000010057a80                swap_slaves
 i.swap_u16     0x0000000010057bbc        0xa ../../../../../../Library/Bluetooth_LE/library/libbluenrg1_stack.a(routines_support.o)
 i.swap_u32     0x0000000010057bc6        0xa ../../../../../../Library/Bluetooth_LE/library/libbluenrg1_stack.a(routines_support.o)
 i.swap_u8      0x0000000010057bd0        0xa ../../../../../../Library/Bluetooth_LE/library/libbluenrg1_stack.a(routines_support.o)
 i.Erase_Sector
                0x0000000010057bda        0xe ../../../../../../Library/Bluetooth_LE/library/libbluenrg1_stack.a(sdb.o)
 i.GAP_configure_whitelist
                0x0000000010057be8       0x8c ../../../../../../Library/Bluetooth_LE/library/libbluenrg1_stack.a(sdb.o)
                0x0000000010057be8                GAP_configure_whitelist
 i.SDB_Add_Record
                0x0000000010057c74      0x184 ../../../../../../Library/Bluetooth_LE/library/libbluenrg1_stack.a(sdb.o)
                0x0000000010057c74                SDB_Add_Record
 i.SDB_Clear    0x0000000010057df8       0x20 ../../../../../../Library/Bluetooth_LE/library/libbluenrg1_stack.a(sdb.o)
                0x0000000010057df8                SDB_Clear
 i.SDB_Find_Matching_LTK
                0x0000000010057e18       0xa0 ../../../../../../Library/Bluetooth_LE/library/libbluenrg1_stack.a(sdb.o)
                0x0000000010057e18                SDB_Find_Matching_LTK
 i.SDB_Find_Record
                0x0000000010057eb8       0xc4 ../../../../../../Library/Bluetooth_LE/library/libbluenrg1_stack.a(sdb.o)
                0x0000000010057eb8                SDB_Find_Record
 i.SDB_Get_Irk_From_Identity_Addr
                0x0000000010057f7c       0x28 ../../../../../../Library/Bluetooth_LE/library/libbluenrg1_stack.a(sdb.o)
                0x0000000010057f7c                SDB_Get_Irk_From_Identity_Addr
 i.SDB_Get_Number_Of_Valid_Records
                0x0000000010057fa4       0x44 ../../../../../../Library/Bluetooth_LE/library/libbluenrg1_stack.a(sdb.o)
                0x0000000010057fa4                SDB_Get_Number_Of_Valid_Records
 i.SDB_flash_write_client_data
                0x0000000010057fe8       0xb8 ../../../../../../Library/Bluetooth_LE/library/libbluenrg1_stack.a(sdb.o)
                0x0000000010057fe8                SDB_flash_write_client_data
 i.SDB_get_security_data_record
                0x00000000100580a0       0xd8 ../../../../../../Library/Bluetooth_LE/library/libbluenrg1_stack.a(sdb.o)
                0x00000000100580a0                SDB_get_security_data_record
 i.SDB_read_peer_bonded_data
                0x0000000010058178       0x3c ../../../../../../Library/Bluetooth_LE/library/libbluenrg1_stack.a(sdb.o)
                0x0000000010058178                SDB_read_peer_bonded_data
 i.SDB_remove_bonding_record
                0x00000000100581b4       0x74 ../../../../../../Library/Bluetooth_LE/library/libbluenrg1_stack.a(sdb.o)
                0x00000000100581b4                SDB_remove_bonding_record
 i.Write_Client_Data
                0x0000000010058228      0x1b0 ../../../../../../Library/Bluetooth_LE/library/libbluenrg1_stack.a(sdb.o)
 i._SDB_Get_All_Bonded_Devices
                0x00000000100583d8       0x94 ../../../../../../Library/Bluetooth_LE/library/libbluenrg1_stack.a(sdb.o)
                0x00000000100583d8                _SDB_Get_All_Bonded_Devices
 i.int32ToLe4Byte
                0x000000001005846c       0x10 ../../../../../../Library/Bluetooth_LE/library/libbluenrg1_stack.a(sdb.o)
 i.sdb_delete   0x000000001005847c      0x164 ../../../../../../Library/Bluetooth_LE/library/libbluenrg1_stack.a(sdb.o)
 i.sdb_find_client_data
                0x00000000100585e0       0xc8 ../../../../../../Library/Bluetooth_LE/library/libbluenrg1_stack.a(sdb.o)
 i.sdb_get_gatt_db_start_address
                0x00000000100586a8       0x18 ../../../../../../Library/Bluetooth_LE/library/libbluenrg1_stack.a(sdb.o)
 i.sdb_invalidate_record
                0x00000000100586c0       0x20 ../../../../../../Library/Bluetooth_LE/library/libbluenrg1_stack.a(sdb.o)
 i.sdb_read_record
                0x00000000100586e0       0x24 ../../../../../../Library/Bluetooth_LE/library/libbluenrg1_stack.a(sdb.o)
 i.sdb_read_record_validity
                0x0000000010058704       0x10 ../../../../../../Library/Bluetooth_LE/library/libbluenrg1_stack.a(sdb.o)
 i.sdb_write_record
                0x0000000010058714       0x7c ../../../../../../Library/Bluetooth_LE/library/libbluenrg1_stack.a(sdb.o)
 i.SMP_MI_PairingRequest_Send
                0x0000000010058790      0x14c ../../../../../../Library/Bluetooth_LE/library/libbluenrg1_stack.a(securitymgr.o)
                0x0000000010058790                SMP_MI_PairingRequest_Send
 i.SMP_Process_Q
                0x00000000100588dc      0x19c ../../../../../../Library/Bluetooth_LE/library/libbluenrg1_stack.a(securitymgr.o)
                0x00000000100588dc                SMP_Process_Q
 i.SMP_SR_SecurityRequest_Send
                0x0000000010058a78       0x9c ../../../../../../Library/Bluetooth_LE/library/libbluenrg1_stack.a(securitymgr.o)
                0x0000000010058a78                SMP_SR_SecurityRequest_Send
 i.aci_gap_numeric_comparison_value_event_push
                0x0000000010058b14       0x58 ../../../../../../Library/Bluetooth_LE/library/libbluenrg1_stack.a(securitymgr.o)
 i.int32ToLe4Byte
                0x0000000010058b6c       0x10 ../../../../../../Library/Bluetooth_LE/library/libbluenrg1_stack.a(securitymgr.o)
 i.le4ByteToInt32
                0x0000000010058b7c       0x16 ../../../../../../Library/Bluetooth_LE/library/libbluenrg1_stack.a(securitymgr.o)
 i.smp_Build_AuthReq_Field
                0x0000000010058b92       0x18 ../../../../../../Library/Bluetooth_LE/library/libbluenrg1_stack.a(securitymgr.o)
 *fill*         0x0000000010058baa        0x2 
 i.smp_Build_Pairing_ReqResp_Packet
                0x0000000010058bac       0x38 ../../../../../../Library/Bluetooth_LE/library/libbluenrg1_stack.a(securitymgr.o)
 i.smp_Check_Incoming_Pairing_Parameters
                0x0000000010058be4       0x34 ../../../../../../Library/Bluetooth_LE/library/libbluenrg1_stack.a(securitymgr.o)
 i.smp_Determine_Key_Association_Method
                0x0000000010058c18       0x9c ../../../../../../Library/Bluetooth_LE/library/libbluenrg1_stack.a(securitymgr.o)
 i.smp_Execute_Actions_wrt_Current_State
                0x0000000010058cb4      0x18c ../../../../../../Library/Bluetooth_LE/library/libbluenrg1_stack.a(securitymgr.o)
 i.smp_Execute_Actions_wrt_Current_State_MI_excerpt
                0x0000000010058e40       0x4e ../../../../../../Library/Bluetooth_LE/library/libbluenrg1_stack.a(securitymgr.o)
                0x0000000010058e40                smp_Execute_Actions_wrt_Current_State_MI_excerpt
 i.smp_Execute_Actions_wrt_Current_State_sc_MI_excerpt_phase2as2
                0x0000000010058e8e       0x12 ../../../../../../Library/Bluetooth_LE/library/libbluenrg1_stack.a(securitymgr.o)
                0x0000000010058e8e                smp_Execute_Actions_wrt_Current_State_sc_MI_excerpt_phase2as2
 i.smp_Execute_Actions_wrt_Current_State_sc_excerpt_phase2as2
                0x0000000010058ea0       0x58 ../../../../../../Library/Bluetooth_LE/library/libbluenrg1_stack.a(securitymgr.o)
                0x0000000010058ea0                smp_Execute_Actions_wrt_Current_State_sc_excerpt_phase2as2
 i.smp_Execute_Actions_wrt_Current_State_sc_excerpt_phase_1_to_2
                0x0000000010058ef8       0x6c ../../../../../../Library/Bluetooth_LE/library/libbluenrg1_stack.a(securitymgr.o)
                0x0000000010058ef8                smp_Execute_Actions_wrt_Current_State_sc_excerpt_phase_1_to_2
 i.smp_Get_Long_Term_Key
                0x0000000010058f64       0x80 ../../../../../../Library/Bluetooth_LE/library/libbluenrg1_stack.a(securitymgr.o)
 i.smp_Get_Pairing_Parameters_From_Peer_Packet
                0x0000000010058fe4       0x88 ../../../../../../Library/Bluetooth_LE/library/libbluenrg1_stack.a(securitymgr.o)
 i.smp_Keys_Distribution_Send
                0x000000001005906c      0x11c ../../../../../../Library/Bluetooth_LE/library/libbluenrg1_stack.a(securitymgr.o)
 i.smp_LP_MI_Compute_c1_Confirm_Value
                0x0000000010059188      0x140 ../../../../../../Library/Bluetooth_LE/library/libbluenrg1_stack.a(securitymgr.o)
 i.smp_LP_SR_Compute_c1_Confirm_Value
                0x00000000100592c8      0x150 ../../../../../../Library/Bluetooth_LE/library/libbluenrg1_stack.a(securitymgr.o)
 i.smp_MI_Start_Encryption
                0x0000000010059418       0x88 ../../../../../../Library/Bluetooth_LE/library/libbluenrg1_stack.a(securitymgr.o)
                0x0000000010059418                smp_MI_Start_Encryption
 i.smp_Process_Rx_Packet_Exception_Cases_sc_excerpt
                0x00000000100594a0       0x88 ../../../../../../Library/Bluetooth_LE/library/libbluenrg1_stack.a(securitymgr.o)
                0x00000000100594a0                smp_Process_Rx_Packet_Exception_Cases_sc_excerpt
 i.smp_Process_Rx_Packet_wrt_Current_State
                0x0000000010059528      0x130 ../../../../../../Library/Bluetooth_LE/library/libbluenrg1_stack.a(securitymgr.o)
 i.smp_Process_Rx_Packet_wrt_Current_State_MI_excerpt
                0x0000000010059658       0x52 ../../../../../../Library/Bluetooth_LE/library/libbluenrg1_stack.a(securitymgr.o)
                0x0000000010059658                smp_Process_Rx_Packet_wrt_Current_State_MI_excerpt
 i.smp_Process_Rx_Packet_wrt_Current_State_sc_excerpt
                0x00000000100596aa       0x4a ../../../../../../Library/Bluetooth_LE/library/libbluenrg1_stack.a(securitymgr.o)
                0x00000000100596aa                smp_Process_Rx_Packet_wrt_Current_State_sc_excerpt
 i.smp_Set_Key_Association_Method
                0x00000000100596f4       0x78 ../../../../../../Library/Bluetooth_LE/library/libbluenrg1_stack.a(securitymgr.o)
 i.smp____MI_PairingConfirm_Receive
                0x000000001005976c       0x58 ../../../../../../Library/Bluetooth_LE/library/libbluenrg1_stack.a(securitymgr.o)
 i.smp____MI_PairingConfirm_Send
                0x00000000100597c4       0x66 ../../../../../../Library/Bluetooth_LE/library/libbluenrg1_stack.a(securitymgr.o)
 *fill*         0x000000001005982a        0x2 
 i.smp____MI_PairingRandom_Receive
                0x000000001005982c       0xe4 ../../../../../../Library/Bluetooth_LE/library/libbluenrg1_stack.a(securitymgr.o)
 i.smp____MI_PairingResponse_Receive
                0x0000000010059910       0x6c ../../../../../../Library/Bluetooth_LE/library/libbluenrg1_stack.a(securitymgr.o)
 i.smp____MI_SecurityRequest_Receive
                0x000000001005997c       0x84 ../../../../../../Library/Bluetooth_LE/library/libbluenrg1_stack.a(securitymgr.o)
 i.smp____SR_PairingConfirm_Receive
                0x0000000010059a00       0x7a ../../../../../../Library/Bluetooth_LE/library/libbluenrg1_stack.a(securitymgr.o)
 *fill*         0x0000000010059a7a        0x2 
 i.smp____SR_PairingRandom_Receive
                0x0000000010059a7c      0x120 ../../../../../../Library/Bluetooth_LE/library/libbluenrg1_stack.a(securitymgr.o)
 i.smp____SR_PairingRequest_Receive
                0x0000000010059b9c      0x17c ../../../../../../Library/Bluetooth_LE/library/libbluenrg1_stack.a(securitymgr.o)
 i.smp_sc_MI_PairingConfirm_Send_sc_excerpt
                0x0000000010059d18       0x30 ../../../../../../Library/Bluetooth_LE/library/libbluenrg1_stack.a(securitymgr.o)
                0x0000000010059d18                smp_sc_MI_PairingConfirm_Send_sc_excerpt
 i.smp_sc_MI_PairingRandom_Receive_sc_excerpt1
                0x0000000010059d48       0x44 ../../../../../../Library/Bluetooth_LE/library/libbluenrg1_stack.a(securitymgr.o)
                0x0000000010059d48                smp_sc_MI_PairingRandom_Receive_sc_excerpt1
 i.smp_sc_MI_PairingRandom_Receive_sc_excerpt2
                0x0000000010059d8c       0x68 ../../../../../../Library/Bluetooth_LE/library/libbluenrg1_stack.a(securitymgr.o)
                0x0000000010059d8c                smp_sc_MI_PairingRandom_Receive_sc_excerpt2
 i.smp_sc_MI_PairingResponse_Receive_sc_excerpt
                0x0000000010059df4       0x34 ../../../../../../Library/Bluetooth_LE/library/libbluenrg1_stack.a(securitymgr.o)
                0x0000000010059df4                smp_sc_MI_PairingResponse_Receive_sc_excerpt
 i.smp_sc_MI_Pairing_Phase_2AS1_Start_sc_excerpt
                0x0000000010059e28       0x2c ../../../../../../Library/Bluetooth_LE/library/libbluenrg1_stack.a(securitymgr.o)
                0x0000000010059e28                smp_sc_MI_Pairing_Phase_2AS1_Start_sc_excerpt
 i.smp_sc_SR_PairingConfirm_Receive_sc_excerpt
                0x0000000010059e54       0x34 ../../../../../../Library/Bluetooth_LE/library/libbluenrg1_stack.a(securitymgr.o)
                0x0000000010059e54                smp_sc_SR_PairingConfirm_Receive_sc_excerpt
 i.smp_sc_SR_PairingRandom_Receive_sc_excerpt
                0x0000000010059e88       0x9c ../../../../../../Library/Bluetooth_LE/library/libbluenrg1_stack.a(securitymgr.o)
                0x0000000010059e88                smp_sc_SR_PairingRandom_Receive_sc_excerpt
 i.smp_sc_SR_Pairing_Phase_2AS1_Start_sc_excerpt
                0x0000000010059f24       0x30 ../../../../../../Library/Bluetooth_LE/library/libbluenrg1_stack.a(securitymgr.o)
                0x0000000010059f24                smp_sc_SR_Pairing_Phase_2AS1_Start_sc_excerpt
 i.smp_send_packet
                0x0000000010059f54       0x38 ../../../../../../Library/Bluetooth_LE/library/libbluenrg1_stack.a(securitymgr.o)
                0x0000000010059f54                smp_send_packet
 i.SMA_Diversify
                0x0000000010059f8c       0x28 ../../../../../../Library/Bluetooth_LE/library/libbluenrg1_stack.a(smp_algo_sap.o)
                0x0000000010059f8c                SMA_Diversify
 i.SMA_Generate_CSRK
                0x0000000010059fb4       0x28 ../../../../../../Library/Bluetooth_LE/library/libbluenrg1_stack.a(smp_algo_sap.o)
                0x0000000010059fb4                SMA_Generate_CSRK
 i.SMA_Generate_IRK
                0x0000000010059fdc       0x28 ../../../../../../Library/Bluetooth_LE/library/libbluenrg1_stack.a(smp_algo_sap.o)
                0x0000000010059fdc                SMA_Generate_IRK
 i.SMA_LP_s1_Generate_STK
                0x000000001005a004       0x26 ../../../../../../Library/Bluetooth_LE/library/libbluenrg1_stack.a(smp_algo_sap.o)
                0x000000001005a004                SMA_LP_s1_Generate_STK
 i.SMA_SC_Gen_f4_Confirm
                0x000000001005a02a       0x50 ../../../../../../Library/Bluetooth_LE/library/libbluenrg1_stack.a(smp_algo_sap.o)
                0x000000001005a02a                SMA_SC_Gen_f4_Confirm
 *fill*         0x000000001005a07a        0x2 
 i.SMA_SC_Gen_f5_Keys
                0x000000001005a07c       0xe0 ../../../../../../Library/Bluetooth_LE/library/libbluenrg1_stack.a(smp_algo_sap.o)
                0x000000001005a07c                SMA_SC_Gen_f5_Keys
 i.SMA_SC_Gen_f6_Check_Val
                0x000000001005a15c       0x84 ../../../../../../Library/Bluetooth_LE/library/libbluenrg1_stack.a(smp_algo_sap.o)
                0x000000001005a15c                SMA_SC_Gen_f6_Check_Val
 i.SMA_SC_Gen_g2_NumComp_Val
                0x000000001005a1e0       0x58 ../../../../../../Library/Bluetooth_LE/library/libbluenrg1_stack.a(smp_algo_sap.o)
                0x000000001005a1e0                SMA_SC_Gen_g2_NumComp_Val
 i.SMA_generate_EDIV_recovery_DIV
                0x000000001005a238       0x74 ../../../../../../Library/Bluetooth_LE/library/libbluenrg1_stack.a(smp_algo_sap.o)
                0x000000001005a238                SMA_generate_EDIV_recovery_DIV
 i.SM_Generate_Resolvable_Private_Address
                0x000000001005a2ac       0x4e ../../../../../../Library/Bluetooth_LE/library/libbluenrg1_stack.a(smp_algo_sap.o)
                0x000000001005a2ac                SM_Generate_Resolvable_Private_Address
 i.SM_Resolve_Private_Address
                0x000000001005a2fa       0x22 ../../../../../../Library/Bluetooth_LE/library/libbluenrg1_stack.a(smp_algo_sap.o)
                0x000000001005a2fa                SM_Resolve_Private_Address
 i.sma_CMAC_generate_tag
                0x000000001005a31c       0xc6 ../../../../../../Library/Bluetooth_LE/library/libbluenrg1_stack.a(smp_algo_sap.o)
                0x000000001005a31c                sma_CMAC_generate_tag
 i.sma_Calculate_Hash
                0x000000001005a3e2       0x36 ../../../../../../Library/Bluetooth_LE/library/libbluenrg1_stack.a(smp_algo_sap.o)
 i.sma_generate_subkeys
                0x000000001005a418       0x7e ../../../../../../Library/Bluetooth_LE/library/libbluenrg1_stack.a(smp_algo_sap.o)
 i.sma_left_shift
                0x000000001005a496       0x2c ../../../../../../Library/Bluetooth_LE/library/libbluenrg1_stack.a(smp_algo_sap.o)
 *fill*         0x000000001005a4c2        0x2 
 i.SMP_Init     0x000000001005a4c4       0x3c ../../../../../../Library/Bluetooth_LE/library/libbluenrg1_stack.a(smp_common.o)
                0x000000001005a4c4                SMP_Init
 i.SMP_Protocol_Timer_cb
                0x000000001005a500       0x44 ../../../../../../Library/Bluetooth_LE/library/libbluenrg1_stack.a(smp_common.o)
                0x000000001005a500                SMP_Protocol_Timer_cb
 i.SMP_aci_get_oob_data
                0x000000001005a544       0x44 ../../../../../../Library/Bluetooth_LE/library/libbluenrg1_stack.a(smp_common.o)
                0x000000001005a544                SMP_aci_get_oob_data
 i.SMP_aci_passkey_response
                0x000000001005a588       0x30 ../../../../../../Library/Bluetooth_LE/library/libbluenrg1_stack.a(smp_common.o)
                0x000000001005a588                SMP_aci_passkey_response
 i.SMP_aci_set_oob_data
                0x000000001005a5b8       0xa8 ../../../../../../Library/Bluetooth_LE/library/libbluenrg1_stack.a(smp_common.o)
                0x000000001005a5b8                SMP_aci_set_oob_data
 i.SMP_acl_data_hndl
                0x000000001005a660       0xf8 ../../../../../../Library/Bluetooth_LE/library/libbluenrg1_stack.a(smp_common.o)
                0x000000001005a660                SMP_acl_data_hndl
 i.SMP_allow_rebond
                0x000000001005a758       0x2a ../../../../../../Library/Bluetooth_LE/library/libbluenrg1_stack.a(smp_common.o)
                0x000000001005a758                SMP_allow_rebond
 i.SMP_authorization_response
                0x000000001005a782       0x2a ../../../../../../Library/Bluetooth_LE/library/libbluenrg1_stack.a(smp_common.o)
                0x000000001005a782                SMP_authorization_response
 i.SMP_check_encryption_key_size
                0x000000001005a7ac       0x20 ../../../../../../Library/Bluetooth_LE/library/libbluenrg1_stack.a(smp_common.o)
                0x000000001005a7ac                SMP_check_encryption_key_size
 i.SMP_check_is_device_bonded
                0x000000001005a7cc       0x48 ../../../../../../Library/Bluetooth_LE/library/libbluenrg1_stack.a(smp_common.o)
                0x000000001005a7cc                SMP_check_is_device_bonded
 i.SMP_connection_complete_handler
                0x000000001005a814       0x94 ../../../../../../Library/Bluetooth_LE/library/libbluenrg1_stack.a(smp_common.o)
 i.SMP_forget_device_by_conn_handle
                0x000000001005a8a8       0x1c ../../../../../../Library/Bluetooth_LE/library/libbluenrg1_stack.a(smp_common.o)
                0x000000001005a8a8                SMP_forget_device_by_conn_handle
 i.SMP_get_link_status
                0x000000001005a8c4       0x2e ../../../../../../Library/Bluetooth_LE/library/libbluenrg1_stack.a(smp_common.o)
                0x000000001005a8c4                SMP_get_link_status
 *fill*         0x000000001005a8f2        0x2 
 i.SMP_get_remote_device_list_item
                0x000000001005a8f4       0x4c ../../../../../../Library/Bluetooth_LE/library/libbluenrg1_stack.a(smp_common.o)
                0x000000001005a8f4                SMP_get_remote_device_list_item
 i.SMP_get_security_level
                0x000000001005a940       0x44 ../../../../../../Library/Bluetooth_LE/library/libbluenrg1_stack.a(smp_common.o)
                0x000000001005a940                SMP_get_security_level
 i.SMP_hci_disconnection_complete_evt_hndl
                0x000000001005a984       0x40 ../../../../../../Library/Bluetooth_LE/library/libbluenrg1_stack.a(smp_common.o)
                0x000000001005a984                SMP_hci_disconnection_complete_evt_hndl
 i.SMP_hci_encryption_change_evt_hndl
                0x000000001005a9c4      0x120 ../../../../../../Library/Bluetooth_LE/library/libbluenrg1_stack.a(smp_common.o)
                0x000000001005a9c4                SMP_hci_encryption_change_evt_hndl
 i.SMP_hci_le_connection_complete_evt_hndl
                0x000000001005aae4       0x2e ../../../../../../Library/Bluetooth_LE/library/libbluenrg1_stack.a(smp_common.o)
                0x000000001005aae4                SMP_hci_le_connection_complete_evt_hndl
 i.SMP_hci_le_enhanced_connection_complete_evt_hndl
                0x000000001005ab12       0x52 ../../../../../../Library/Bluetooth_LE/library/libbluenrg1_stack.a(smp_common.o)
                0x000000001005ab12                SMP_hci_le_enhanced_connection_complete_evt_hndl
 i.SMP_hci_le_long_term_key_request_evt_hndl
                0x000000001005ab64       0x38 ../../../../../../Library/Bluetooth_LE/library/libbluenrg1_stack.a(smp_common.o)
                0x000000001005ab64                SMP_hci_le_long_term_key_request_evt_hndl
 i.SMP_repeated_attacks_timer_cb
                0x000000001005ab9c       0x78 ../../../../../../Library/Bluetooth_LE/library/libbluenrg1_stack.a(smp_common.o)
                0x000000001005ab9c                SMP_repeated_attacks_timer_cb
 i.SMP_reset_timer
                0x000000001005ac14       0x40 ../../../../../../Library/Bluetooth_LE/library/libbluenrg1_stack.a(smp_common.o)
                0x000000001005ac14                SMP_reset_timer
 i.SMP_set_authentication_req
                0x000000001005ac54       0x28 ../../../../../../Library/Bluetooth_LE/library/libbluenrg1_stack.a(smp_common.o)
                0x000000001005ac54                SMP_set_authentication_req
 i.SMP_set_authorization_request
                0x000000001005ac7c       0x3a ../../../../../../Library/Bluetooth_LE/library/libbluenrg1_stack.a(smp_common.o)
                0x000000001005ac7c                SMP_set_authorization_request
 *fill*         0x000000001005acb6        0x2 
 i.SMP_set_io_capabilities
                0x000000001005acb8       0x3c ../../../../../../Library/Bluetooth_LE/library/libbluenrg1_stack.a(smp_common.o)
                0x000000001005acb8                SMP_set_io_capabilities
 i.SMP_sign_packet
                0x000000001005acf4       0x5c ../../../../../../Library/Bluetooth_LE/library/libbluenrg1_stack.a(smp_common.o)
                0x000000001005acf4                SMP_sign_packet
 i.SMP_validate_signed_packet
                0x000000001005ad50       0x7a ../../../../../../Library/Bluetooth_LE/library/libbluenrg1_stack.a(smp_common.o)
                0x000000001005ad50                SMP_validate_signed_packet
 *fill*         0x000000001005adca        0x2 
 i.aci_gap_authorization_req_event_push
                0x000000001005adcc       0x54 ../../../../../../Library/Bluetooth_LE/library/libbluenrg1_stack.a(smp_common.o)
 i.aci_gap_pairing_complete_event_push
                0x000000001005ae20       0x5c ../../../../../../Library/Bluetooth_LE/library/libbluenrg1_stack.a(smp_common.o)
 i.smp_Keys_Distribution_Complete
                0x000000001005ae7c       0x32 ../../../../../../Library/Bluetooth_LE/library/libbluenrg1_stack.a(smp_common.o)
 *fill*         0x000000001005aeae        0x2 
 i.smp_add_pairing_record_to_bonding_database
                0x000000001005aeb0      0x148 ../../../../../../Library/Bluetooth_LE/library/libbluenrg1_stack.a(smp_common.o)
                0x000000001005aeb0                smp_add_pairing_record_to_bonding_database
 i.smp_find_remote_device_index
                0x000000001005aff8       0x44 ../../../../../../Library/Bluetooth_LE/library/libbluenrg1_stack.a(smp_common.o)
                0x000000001005aff8                smp_find_remote_device_index
 i.smp_flush_rx_queues
                0x000000001005b03c       0x38 ../../../../../../Library/Bluetooth_LE/library/libbluenrg1_stack.a(smp_common.o)
 i.smp_get_CSRK
                0x000000001005b074       0x1e ../../../../../../Library/Bluetooth_LE/library/libbluenrg1_stack.a(smp_common.o)
                0x000000001005b074                smp_get_CSRK
 *fill*         0x000000001005b092        0x2 
 i.smp_get_local_identity_address
                0x000000001005b094       0x3c ../../../../../../Library/Bluetooth_LE/library/libbluenrg1_stack.a(smp_common.o)
                0x000000001005b094                smp_get_local_identity_address
 i.smp_is_any_pairing_ongoing
                0x000000001005b0d0       0x4c ../../../../../../Library/Bluetooth_LE/library/libbluenrg1_stack.a(smp_common.o)
                0x000000001005b0d0                smp_is_any_pairing_ongoing
 i.smp_keys_distribution_start
                0x000000001005b11c       0x38 ../../../../../../Library/Bluetooth_LE/library/libbluenrg1_stack.a(smp_common.o)
                0x000000001005b11c                smp_keys_distribution_start
 i.smp_keys_receiving
                0x000000001005b154       0xd6 ../../../../../../Library/Bluetooth_LE/library/libbluenrg1_stack.a(smp_common.o)
                0x000000001005b154                smp_keys_receiving
 *fill*         0x000000001005b22a        0x2 
 i.smp_oob_check_is_remote_data_present
                0x000000001005b22c       0x3c ../../../../../../Library/Bluetooth_LE/library/libbluenrg1_stack.a(smp_common.o)
                0x000000001005b22c                smp_oob_check_is_remote_data_present
 i.smp_oob_get_remote_data_reference
                0x000000001005b268       0x48 ../../../../../../Library/Bluetooth_LE/library/libbluenrg1_stack.a(smp_common.o)
                0x000000001005b268                smp_oob_get_remote_data_reference
 i.smp_pairing_2octets_packet_send
                0x000000001005b2b0       0x34 ../../../../../../Library/Bluetooth_LE/library/libbluenrg1_stack.a(smp_common.o)
                0x000000001005b2b0                smp_pairing_2octets_packet_send
 i.smp_pairing_completed
                0x000000001005b2e4       0x78 ../../../../../../Library/Bluetooth_LE/library/libbluenrg1_stack.a(smp_common.o)
                0x000000001005b2e4                smp_pairing_completed
 i.smp_pairing_failed_receive
                0x000000001005b35c       0x10 ../../../../../../Library/Bluetooth_LE/library/libbluenrg1_stack.a(smp_common.o)
                0x000000001005b35c                smp_pairing_failed_receive
 i.smp_pairing_failed_send
                0x000000001005b36c       0x2a ../../../../../../Library/Bluetooth_LE/library/libbluenrg1_stack.a(smp_common.o)
                0x000000001005b36c                smp_pairing_failed_send
 *fill*         0x000000001005b396        0x2 
 i.smp_pairing_process_abort
                0x000000001005b398       0x64 ../../../../../../Library/Bluetooth_LE/library/libbluenrg1_stack.a(smp_common.o)
 i.smp_repeated_attacks_protection
                0x000000001005b3fc       0xf0 ../../../../../../Library/Bluetooth_LE/library/libbluenrg1_stack.a(smp_common.o)
                0x000000001005b3fc                smp_repeated_attacks_protection
 i.smp_search_blacklist
                0x000000001005b4ec       0x44 ../../../../../../Library/Bluetooth_LE/library/libbluenrg1_stack.a(smp_common.o)
                0x000000001005b4ec                smp_search_blacklist
 i.smp_update_statistics_on_pairing_complete
                0x000000001005b530       0x38 ../../../../../../Library/Bluetooth_LE/library/libbluenrg1_stack.a(smp_common.o)
 i.SMP_ACI_sc_numeric_comparison_response
                0x000000001005b568       0x34 ../../../../../../Library/Bluetooth_LE/library/libbluenrg1_stack.a(smp_scv42_api.o)
                0x000000001005b568                SMP_ACI_sc_numeric_comparison_response
 i.SMP_ACI_sc_passkey_input_type_to_notify
                0x000000001005b59c       0x3c ../../../../../../Library/Bluetooth_LE/library/libbluenrg1_stack.a(smp_scv42_api.o)
                0x000000001005b59c                SMP_ACI_sc_passkey_input_type_to_notify
 i.smp____SC_Phase_2AS2_DHKeyCheck_Send
                0x000000001005b5d8       0x5c ../../../../../../Library/Bluetooth_LE/library/libbluenrg1_stack.a(smp_scv42_caf.o)
 i.smp____SC_Phase_2AS2_Generate_DHKeyCheck
                0x000000001005b634      0x134 ../../../../../../Library/Bluetooth_LE/library/libbluenrg1_stack.a(smp_scv42_caf.o)
 i.smp____SC_Phase_2AS2__Set_Addresses
                0x000000001005b768       0x30 ../../../../../../Library/Bluetooth_LE/library/libbluenrg1_stack.a(smp_scv42_caf.o)
 i.smp_sc_check_for_ecc_pk_generation_request
                0x000000001005b798       0x30 ../../../../../../Library/Bluetooth_LE/library/libbluenrg1_stack.a(smp_scv42_caf.o)
                0x000000001005b798                smp_sc_check_for_ecc_pk_generation_request
 i.smp_sc_continue_on_exclusive_sc_pairing
                0x000000001005b7c8       0x38 ../../../../../../Library/Bluetooth_LE/library/libbluenrg1_stack.a(smp_scv42_caf.o)
                0x000000001005b7c8                smp_sc_continue_on_exclusive_sc_pairing
 i.smp_sc_force_debug_private_key
                0x000000001005b800       0x20 ../../../../../../Library/Bluetooth_LE/library/libbluenrg1_stack.a(smp_scv42_caf.o)
                0x000000001005b800                smp_sc_force_debug_private_key
 i.smp_sc_generate_new_local_oob_data
                0x000000001005b820       0x5c ../../../../../../Library/Bluetooth_LE/library/libbluenrg1_stack.a(smp_scv42_caf.o)
                0x000000001005b820                smp_sc_generate_new_local_oob_data
 i.smp_sc_init  0x000000001005b87c       0x38 ../../../../../../Library/Bluetooth_LE/library/libbluenrg1_stack.a(smp_scv42_caf.o)
                0x000000001005b87c                smp_sc_init
 i.smp_sc_is_another_sc_pairing_ongoing
                0x000000001005b8b4       0x40 ../../../../../../Library/Bluetooth_LE/library/libbluenrg1_stack.a(smp_scv42_caf.o)
                0x000000001005b8b4                smp_sc_is_another_sc_pairing_ongoing
 i.smp_sc_is_debug_key_usage_forced
                0x000000001005b8f4       0x10 ../../../../../../Library/Bluetooth_LE/library/libbluenrg1_stack.a(smp_scv42_caf.o)
                0x000000001005b8f4                smp_sc_is_debug_key_usage_forced
 i.smp_sc_pairing_oob_confirm_receive_verify
                0x000000001005b904       0x8c ../../../../../../Library/Bluetooth_LE/library/libbluenrg1_stack.a(smp_scv42_caf.o)
                0x000000001005b904                smp_sc_pairing_oob_confirm_receive_verify
 i.smp_sc_pairing_public_key_receive
                0x000000001005b990       0xa8 ../../../../../../Library/Bluetooth_LE/library/libbluenrg1_stack.a(smp_scv42_caf.o)
                0x000000001005b990                smp_sc_pairing_public_key_receive
 i.smp_sc_pairing_public_key_send
                0x000000001005ba38       0x6c ../../../../../../Library/Bluetooth_LE/library/libbluenrg1_stack.a(smp_scv42_caf.o)
                0x000000001005ba38                smp_sc_pairing_public_key_send
 i.smp_sc_phase_2as2_dhkey_check_receive
                0x000000001005baa4       0x72 ../../../../../../Library/Bluetooth_LE/library/libbluenrg1_stack.a(smp_scv42_caf.o)
                0x000000001005baa4                smp_sc_phase_2as2_dhkey_check_receive
 *fill*         0x000000001005bb16        0x2 
 i.smp_sc_phase_2as2_start
                0x000000001005bb18       0xa4 ../../../../../../Library/Bluetooth_LE/library/libbluenrg1_stack.a(smp_scv42_caf.o)
                0x000000001005bb18                smp_sc_phase_2as2_start
 i.smp_sc_submit_ecc_pk_generation_request
                0x000000001005bbbc       0x18 ../../../../../../Library/Bluetooth_LE/library/libbluenrg1_stack.a(smp_scv42_caf.o)
                0x000000001005bbbc                smp_sc_submit_ecc_pk_generation_request
 i.smp_sc_update_statistics_on_pairing_complete
                0x000000001005bbd4       0x74 ../../../../../../Library/Bluetooth_LE/library/libbluenrg1_stack.a(smp_scv42_caf.o)
                0x000000001005bbd4                smp_sc_update_statistics_on_pairing_complete
 i.SMP_sc_force_debug_key_usage
                0x000000001005bc48       0x22 ../../../../../../Library/Bluetooth_LE/library/libbluenrg1_stack.a(smp_scv42_sap.o)
                0x000000001005bc48                SMP_sc_force_debug_key_usage
 *fill*         0x000000001005bc6a        0x2 
 i.smp_sc_hci_le_generate_dhkey_complete_evt_hndl
                0x000000001005bc6c       0x74 ../../../../../../Library/Bluetooth_LE/library/libbluenrg1_stack.a(smp_scv42_sap.o)
                0x000000001005bc6c                smp_sc_hci_le_generate_dhkey_complete_evt_hndl
 i.smp_sc_hci_le_read_local_p256_public_key_complete_evt_hndl
                0x000000001005bce0       0x3c ../../../../../../Library/Bluetooth_LE/library/libbluenrg1_stack.a(smp_scv42_sap.o)
                0x000000001005bce0                smp_sc_hci_le_read_local_p256_public_key_complete_evt_hndl
 i.Delay_With_NOP_Cycles
                0x000000001005bd1c        0xe ../../../../../../Library/Bluetooth_LE/library/libbluenrg1_stack.a(utils.o)
                0x000000001005bd1c                Delay_With_NOP_Cycles
 i.copy_swap_buffer
                0x000000001005bd2a       0x20 ../../../../../../Library/Bluetooth_LE/library/libbluenrg1_stack.a(utils.o)
                0x000000001005bd2a                copy_swap_buffer
 i.is_Buffer_All_Set_To
                0x000000001005bd4a       0x1e ../../../../../../Library/Bluetooth_LE/library/libbluenrg1_stack.a(utils.o)
                0x000000001005bd4a                is_Buffer_All_Set_To
 i.Events_Process_Q
                0x000000001005bd68      0x10c ../../../../../../Library/Bluetooth_LE/library/libbluenrg1_stack.a(aci_events.o)
                0x000000001005bd68                Events_Process_Q
 i.Events_Process_init
                0x000000001005be74       0x4c ../../../../../../Library/Bluetooth_LE/library/libbluenrg1_stack.a(aci_events.o)
                0x000000001005be74                Events_Process_init
 i.aci_att_write_resp_event
                0x000000001005bec0        0x2 ../../../../../../Library/Bluetooth_LE/library/libbluenrg1_stack.a(aci_events.o)
                0x000000001005bec0                aci_att_write_resp_event
 *fill*         0x000000001005bec2        0x2 
 i.aci_event_fifo_push
                0x000000001005bec4       0x28 ../../../../../../Library/Bluetooth_LE/library/libbluenrg1_stack.a(aci_events.o)
                0x000000001005bec4                aci_event_fifo_push
 i.aci_event_fifo_push_header
                0x000000001005beec       0xbc ../../../../../../Library/Bluetooth_LE/library/libbluenrg1_stack.a(aci_events.o)
                0x000000001005beec                aci_event_fifo_push_header
 i.aci_gap_device_found_event
                0x000000001005bfa8        0x2 ../../../../../../Library/Bluetooth_LE/library/libbluenrg1_stack.a(aci_events.o)
                0x000000001005bfa8                aci_gap_device_found_event
 *fill*         0x000000001005bfaa        0x2 
 i.cb_aci_att_exchange_mtu_resp_event
                0x000000001005bfac       0x24 ../../../../../../Library/Bluetooth_LE/library/libbluenrg1_stack.a(aci_events.o)
                0x000000001005bfac                cb_aci_att_exchange_mtu_resp_event
 i.cb_aci_att_exec_write_resp_event
                0x000000001005bfd0       0x20 ../../../../../../Library/Bluetooth_LE/library/libbluenrg1_stack.a(aci_events.o)
                0x000000001005bfd0                cb_aci_att_exec_write_resp_event
 i.cb_aci_att_find_by_type_value_resp_event
                0x000000001005bff0       0x24 ../../../../../../Library/Bluetooth_LE/library/libbluenrg1_stack.a(aci_events.o)
                0x000000001005bff0                cb_aci_att_find_by_type_value_resp_event
 i.cb_aci_att_find_info_resp_event
                0x000000001005c014       0x28 ../../../../../../Library/Bluetooth_LE/library/libbluenrg1_stack.a(aci_events.o)
                0x000000001005c014                cb_aci_att_find_info_resp_event
 i.cb_aci_att_prepare_write_resp_event
                0x000000001005c03c       0x2c ../../../../../../Library/Bluetooth_LE/library/libbluenrg1_stack.a(aci_events.o)
                0x000000001005c03c                cb_aci_att_prepare_write_resp_event
 i.cb_aci_att_read_blob_resp_event
                0x000000001005c068       0x24 ../../../../../../Library/Bluetooth_LE/library/libbluenrg1_stack.a(aci_events.o)
                0x000000001005c068                cb_aci_att_read_blob_resp_event
 i.cb_aci_att_read_by_group_type_resp_event
                0x000000001005c08c       0x28 ../../../../../../Library/Bluetooth_LE/library/libbluenrg1_stack.a(aci_events.o)
                0x000000001005c08c                cb_aci_att_read_by_group_type_resp_event
 i.cb_aci_att_read_by_type_resp_event
                0x000000001005c0b4       0x28 ../../../../../../Library/Bluetooth_LE/library/libbluenrg1_stack.a(aci_events.o)
                0x000000001005c0b4                cb_aci_att_read_by_type_resp_event
 i.cb_aci_att_read_multiple_resp_event
                0x000000001005c0dc       0x24 ../../../../../../Library/Bluetooth_LE/library/libbluenrg1_stack.a(aci_events.o)
                0x000000001005c0dc                cb_aci_att_read_multiple_resp_event
 i.cb_aci_att_read_resp_event
                0x000000001005c100       0x24 ../../../../../../Library/Bluetooth_LE/library/libbluenrg1_stack.a(aci_events.o)
                0x000000001005c100                cb_aci_att_read_resp_event
 i.cb_aci_att_write_resp_event
                0x000000001005c124       0x24 ../../../../../../Library/Bluetooth_LE/library/libbluenrg1_stack.a(aci_events.o)
                0x000000001005c124                cb_aci_att_write_resp_event
 i.cb_aci_gap_addr_not_resolved_event
                0x000000001005c148       0x20 ../../../../../../Library/Bluetooth_LE/library/libbluenrg1_stack.a(aci_events.o)
                0x000000001005c148                cb_aci_gap_addr_not_resolved_event
 i.cb_aci_gap_authorization_req_event
                0x000000001005c168       0x20 ../../../../../../Library/Bluetooth_LE/library/libbluenrg1_stack.a(aci_events.o)
                0x000000001005c168                cb_aci_gap_authorization_req_event
 i.cb_aci_gap_bond_lost_event
                0x000000001005c188       0x1c ../../../../../../Library/Bluetooth_LE/library/libbluenrg1_stack.a(aci_events.o)
                0x000000001005c188                cb_aci_gap_bond_lost_event
 i.cb_aci_gap_device_found_event
                0x000000001005c1a4       0x20 ../../../../../../Library/Bluetooth_LE/library/libbluenrg1_stack.a(aci_events.o)
                0x000000001005c1a4                cb_aci_gap_device_found_event
 i.cb_aci_gap_keypress_notification_event
                0x000000001005c1c4       0x24 ../../../../../../Library/Bluetooth_LE/library/libbluenrg1_stack.a(aci_events.o)
                0x000000001005c1c4                cb_aci_gap_keypress_notification_event
 i.cb_aci_gap_limited_discoverable_event
                0x000000001005c1e8       0x1c ../../../../../../Library/Bluetooth_LE/library/libbluenrg1_stack.a(aci_events.o)
                0x000000001005c1e8                cb_aci_gap_limited_discoverable_event
 i.cb_aci_gap_numeric_comparison_value_event
                0x000000001005c204       0x24 ../../../../../../Library/Bluetooth_LE/library/libbluenrg1_stack.a(aci_events.o)
                0x000000001005c204                cb_aci_gap_numeric_comparison_value_event
 i.cb_aci_gap_pairing_complete_event
                0x000000001005c228       0x24 ../../../../../../Library/Bluetooth_LE/library/libbluenrg1_stack.a(aci_events.o)
                0x000000001005c228                cb_aci_gap_pairing_complete_event
 i.cb_aci_gap_pass_key_req_event
                0x000000001005c24c       0x20 ../../../../../../Library/Bluetooth_LE/library/libbluenrg1_stack.a(aci_events.o)
                0x000000001005c24c                cb_aci_gap_pass_key_req_event
 i.cb_aci_gap_proc_complete_event
                0x000000001005c26c       0x28 ../../../../../../Library/Bluetooth_LE/library/libbluenrg1_stack.a(aci_events.o)
                0x000000001005c26c                cb_aci_gap_proc_complete_event
 i.cb_aci_gap_slave_security_initiated_event
                0x000000001005c294       0x1c ../../../../../../Library/Bluetooth_LE/library/libbluenrg1_stack.a(aci_events.o)
                0x000000001005c294                cb_aci_gap_slave_security_initiated_event
 i.cb_aci_gatt_attribute_modified_event
                0x000000001005c2b0       0x2c ../../../../../../Library/Bluetooth_LE/library/libbluenrg1_stack.a(aci_events.o)
                0x000000001005c2b0                cb_aci_gatt_attribute_modified_event
 i.cb_aci_gatt_disc_read_char_by_uuid_resp_event
                0x000000001005c2dc       0x28 ../../../../../../Library/Bluetooth_LE/library/libbluenrg1_stack.a(aci_events.o)
                0x000000001005c2dc                cb_aci_gatt_disc_read_char_by_uuid_resp_event
 i.cb_aci_gatt_error_resp_event
                0x000000001005c304       0x28 ../../../../../../Library/Bluetooth_LE/library/libbluenrg1_stack.a(aci_events.o)
                0x000000001005c304                cb_aci_gatt_error_resp_event
 i.cb_aci_gatt_indication_event
                0x000000001005c32c       0x28 ../../../../../../Library/Bluetooth_LE/library/libbluenrg1_stack.a(aci_events.o)
                0x000000001005c32c                cb_aci_gatt_indication_event
 i.cb_aci_gatt_notification_event
                0x000000001005c354       0x28 ../../../../../../Library/Bluetooth_LE/library/libbluenrg1_stack.a(aci_events.o)
                0x000000001005c354                cb_aci_gatt_notification_event
 i.cb_aci_gatt_prepare_write_permit_req_event
                0x000000001005c37c       0x16 ../../../../../../Library/Bluetooth_LE/library/libbluenrg1_stack.a(aci_events.o)
                0x000000001005c37c                cb_aci_gatt_prepare_write_permit_req_event
 *fill*         0x000000001005c392        0x2 
 i.cb_aci_gatt_proc_complete_event
                0x000000001005c394       0x24 ../../../../../../Library/Bluetooth_LE/library/libbluenrg1_stack.a(aci_events.o)
                0x000000001005c394                cb_aci_gatt_proc_complete_event
 i.cb_aci_gatt_proc_timeout_event
                0x000000001005c3b8       0x20 ../../../../../../Library/Bluetooth_LE/library/libbluenrg1_stack.a(aci_events.o)
                0x000000001005c3b8                cb_aci_gatt_proc_timeout_event
 i.cb_aci_gatt_read_multi_permit_req_event
                0x000000001005c3d8       0x10 ../../../../../../Library/Bluetooth_LE/library/libbluenrg1_stack.a(aci_events.o)
                0x000000001005c3d8                cb_aci_gatt_read_multi_permit_req_event
 i.cb_aci_gatt_read_permit_req_event
                0x000000001005c3e8       0x10 ../../../../../../Library/Bluetooth_LE/library/libbluenrg1_stack.a(aci_events.o)
                0x000000001005c3e8                cb_aci_gatt_read_permit_req_event
 i.cb_aci_gatt_server_confirmation_event
                0x000000001005c3f8        0xa ../../../../../../Library/Bluetooth_LE/library/libbluenrg1_stack.a(aci_events.o)
                0x000000001005c3f8                cb_aci_gatt_server_confirmation_event
 i.cb_aci_gatt_tx_pool_available_event
                0x000000001005c402        0xe ../../../../../../Library/Bluetooth_LE/library/libbluenrg1_stack.a(aci_events.o)
                0x000000001005c402                cb_aci_gatt_tx_pool_available_event
 i.cb_aci_gatt_write_permit_req_event
                0x000000001005c410       0x12 ../../../../../../Library/Bluetooth_LE/library/libbluenrg1_stack.a(aci_events.o)
                0x000000001005c410                cb_aci_gatt_write_permit_req_event
 i.cb_aci_hal_fw_error_event
                0x000000001005c422       0x10 ../../../../../../Library/Bluetooth_LE/library/libbluenrg1_stack.a(aci_events.o)
                0x000000001005c422                cb_aci_hal_fw_error_event
 *fill*         0x000000001005c432        0x2 
 i.cb_aci_hal_scan_req_report_event
                0x000000001005c434       0x28 ../../../../../../Library/Bluetooth_LE/library/libbluenrg1_stack.a(aci_events.o)
                0x000000001005c434                cb_aci_hal_scan_req_report_event
 i.cb_aci_l2cap_command_reject_event
                0x000000001005c45c       0x16 ../../../../../../Library/Bluetooth_LE/library/libbluenrg1_stack.a(aci_events.o)
                0x000000001005c45c                cb_aci_l2cap_command_reject_event
 *fill*         0x000000001005c472        0x2 
 i.cb_aci_l2cap_connection_update_req_event
                0x000000001005c474       0x34 ../../../../../../Library/Bluetooth_LE/library/libbluenrg1_stack.a(aci_events.o)
                0x000000001005c474                cb_aci_l2cap_connection_update_req_event
 i.cb_aci_l2cap_connection_update_resp_event
                0x000000001005c4a8       0x24 ../../../../../../Library/Bluetooth_LE/library/libbluenrg1_stack.a(aci_events.o)
                0x000000001005c4a8                cb_aci_l2cap_connection_update_resp_event
 i.cb_aci_l2cap_proc_timeout_event
                0x000000001005c4cc       0x24 ../../../../../../Library/Bluetooth_LE/library/libbluenrg1_stack.a(aci_events.o)
                0x000000001005c4cc                cb_aci_l2cap_proc_timeout_event
 i.cb_hci_data_buffer_overflow_event
                0x000000001005c4f0        0x2 ../../../../../../Library/Bluetooth_LE/library/libbluenrg1_stack.a(aci_events.o)
                0x000000001005c4f0                cb_hci_data_buffer_overflow_event
 *fill*         0x000000001005c4f2        0x2 
 i.cb_hci_disconnection_complete_event
                0x000000001005c4f4       0x24 ../../../../../../Library/Bluetooth_LE/library/libbluenrg1_stack.a(aci_events.o)
                0x000000001005c4f4                cb_hci_disconnection_complete_event
 i.cb_hci_encryption_change_event
                0x000000001005c518       0x24 ../../../../../../Library/Bluetooth_LE/library/libbluenrg1_stack.a(aci_events.o)
                0x000000001005c518                cb_hci_encryption_change_event
 i.cb_hci_encryption_key_refresh_complete_event
                0x000000001005c53c       0x24 ../../../../../../Library/Bluetooth_LE/library/libbluenrg1_stack.a(aci_events.o)
                0x000000001005c53c                cb_hci_encryption_key_refresh_complete_event
 i.cb_hci_le_advertising_report_event
                0x000000001005c560       0x24 ../../../../../../Library/Bluetooth_LE/library/libbluenrg1_stack.a(aci_events.o)
                0x000000001005c560                cb_hci_le_advertising_report_event
 i.cb_hci_le_connection_complete_event
                0x000000001005c584       0x44 ../../../../../../Library/Bluetooth_LE/library/libbluenrg1_stack.a(aci_events.o)
                0x000000001005c584                cb_hci_le_connection_complete_event
 i.cb_hci_le_connection_update_complete_event
                0x000000001005c5c8       0x30 ../../../../../../Library/Bluetooth_LE/library/libbluenrg1_stack.a(aci_events.o)
                0x000000001005c5c8                cb_hci_le_connection_update_complete_event
 i.cb_hci_le_data_length_change_event
                0x000000001005c5f8       0x30 ../../../../../../Library/Bluetooth_LE/library/libbluenrg1_stack.a(aci_events.o)
                0x000000001005c5f8                cb_hci_le_data_length_change_event
 i.cb_hci_le_direct_advertising_report_event
                0x000000001005c628       0x24 ../../../../../../Library/Bluetooth_LE/library/libbluenrg1_stack.a(aci_events.o)
                0x000000001005c628                cb_hci_le_direct_advertising_report_event
 i.cb_hci_le_enhanced_connection_complete_event
                0x000000001005c64c       0x4c ../../../../../../Library/Bluetooth_LE/library/libbluenrg1_stack.a(aci_events.o)
                0x000000001005c64c                cb_hci_le_enhanced_connection_complete_event
 i.cb_hci_le_generate_dhkey_complete_event
                0x000000001005c698       0x28 ../../../../../../Library/Bluetooth_LE/library/libbluenrg1_stack.a(aci_events.o)
                0x000000001005c698                cb_hci_le_generate_dhkey_complete_event
 i.cb_hci_le_long_term_key_request_event
                0x000000001005c6c0       0x28 ../../../../../../Library/Bluetooth_LE/library/libbluenrg1_stack.a(aci_events.o)
                0x000000001005c6c0                cb_hci_le_long_term_key_request_event
 i.cb_hci_le_read_local_p256_public_key_complete_event
                0x000000001005c6e8       0x28 ../../../../../../Library/Bluetooth_LE/library/libbluenrg1_stack.a(aci_events.o)
                0x000000001005c6e8                cb_hci_le_read_local_p256_public_key_complete_event
 i.cb_hci_le_read_remote_used_features_complete_event
                0x000000001005c710       0x2c ../../../../../../Library/Bluetooth_LE/library/libbluenrg1_stack.a(aci_events.o)
                0x000000001005c710                cb_hci_le_read_remote_used_features_complete_event
 i.cb_hci_number_of_completed_packets_event
                0x000000001005c73c        0xa ../../../../../../Library/Bluetooth_LE/library/libbluenrg1_stack.a(aci_events.o)
                0x000000001005c73c                cb_hci_number_of_completed_packets_event
 *fill*         0x000000001005c746        0x2 
 i.cb_hci_read_remote_version_information_complete_event
                0x000000001005c748       0x28 ../../../../../../Library/Bluetooth_LE/library/libbluenrg1_stack.a(aci_events.o)
                0x000000001005c748                cb_hci_read_remote_version_information_complete_event
 i.cb_hci_rx_acl_data_event
                0x000000001005c770       0x16 ../../../../../../Library/Bluetooth_LE/library/libbluenrg1_stack.a(aci_events.o)
                0x000000001005c770                cb_hci_rx_acl_data_event
 i.fifoBuf_getFreeHeader
                0x000000001005c786       0x6c ../../../../../../Library/Bluetooth_LE/library/libbluenrg1_stack.a(aci_events.o)
 i.fifoCtrl_init
                0x000000001005c7f2        0xa ../../../../../../Library/Bluetooth_LE/library/libbluenrg1_stack.a(aci_events.o)
 i.hci_rx_acl_data_event
                0x000000001005c7fc        0x4 ../../../../../../Library/Bluetooth_LE/library/libbluenrg1_stack.a(aci_events.o)
                0x000000001005c7fc                hci_rx_acl_data_event
 i.int_cb_hci_disconnection_complete_event
                0x000000001005c800       0x26 ../../../../../../Library/Bluetooth_LE/library/libbluenrg1_stack.a(aci_events.o)
                0x000000001005c800                int_cb_hci_disconnection_complete_event
 i.int_cb_hci_encryption_change_event
                0x000000001005c826       0x1a ../../../../../../Library/Bluetooth_LE/library/libbluenrg1_stack.a(aci_events.o)
                0x000000001005c826                int_cb_hci_encryption_change_event
 i.int_cb_hci_encryption_key_refresh_complete_event
                0x000000001005c840       0x1a ../../../../../../Library/Bluetooth_LE/library/libbluenrg1_stack.a(aci_events.o)
                0x000000001005c840                int_cb_hci_encryption_key_refresh_complete_event
 i.int_cb_hci_le_advertising_report_event
                0x000000001005c85a       0x1e ../../../../../../Library/Bluetooth_LE/library/libbluenrg1_stack.a(aci_events.o)
                0x000000001005c85a                int_cb_hci_le_advertising_report_event
 i.int_cb_hci_le_connection_complete_event
                0x000000001005c878       0x26 ../../../../../../Library/Bluetooth_LE/library/libbluenrg1_stack.a(aci_events.o)
                0x000000001005c878                int_cb_hci_le_connection_complete_event
 i.int_cb_hci_le_data_length_change_event
                0x000000001005c89e       0x10 ../../../../../../Library/Bluetooth_LE/library/libbluenrg1_stack.a(aci_events.o)
                0x000000001005c89e                int_cb_hci_le_data_length_change_event
 i.int_cb_hci_le_direct_advertising_report_event
                0x000000001005c8ae       0x1e ../../../../../../Library/Bluetooth_LE/library/libbluenrg1_stack.a(aci_events.o)
                0x000000001005c8ae                int_cb_hci_le_direct_advertising_report_event
 i.int_cb_hci_le_enhanced_connection_complete_event
                0x000000001005c8cc       0x26 ../../../../../../Library/Bluetooth_LE/library/libbluenrg1_stack.a(aci_events.o)
                0x000000001005c8cc                int_cb_hci_le_enhanced_connection_complete_event
 i.int_cb_hci_le_generate_dhkey_complete_event
                0x000000001005c8f2       0x1a ../../../../../../Library/Bluetooth_LE/library/libbluenrg1_stack.a(aci_events.o)
                0x000000001005c8f2                int_cb_hci_le_generate_dhkey_complete_event
 i.int_cb_hci_le_long_term_key_request_event
                0x000000001005c90c        0xc ../../../../../../Library/Bluetooth_LE/library/libbluenrg1_stack.a(aci_events.o)
                0x000000001005c90c                int_cb_hci_le_long_term_key_request_event
 i.int_cb_hci_le_read_local_p256_public_key_complete_event
                0x000000001005c918       0x1a ../../../../../../Library/Bluetooth_LE/library/libbluenrg1_stack.a(aci_events.o)
                0x000000001005c918                int_cb_hci_le_read_local_p256_public_key_complete_event
 *fill*         0x000000001005c932        0x2 
 i.Acl_Init     0x000000001005c934       0x20 ../../../../../../Library/Bluetooth_LE/library/libbluenrg1_stack.a(acl.o)
                0x000000001005c934                Acl_Init
 i.Acl_Rcv_Pkt_Handler
                0x000000001005c954       0x3c ../../../../../../Library/Bluetooth_LE/library/libbluenrg1_stack.a(acl.o)
                0x000000001005c954                Acl_Rcv_Pkt_Handler
 i.Acl_Transmit_Data
                0x000000001005c990       0x64 ../../../../../../Library/Bluetooth_LE/library/libbluenrg1_stack.a(acl.o)
                0x000000001005c990                Acl_Transmit_Data
 i.Acl_Tx_Cmpl_Pkt_Handler
                0x000000001005c9f4       0x44 ../../../../../../Library/Bluetooth_LE/library/libbluenrg1_stack.a(acl.o)
                0x000000001005c9f4                Acl_Tx_Cmpl_Pkt_Handler
 i.int_cb_hci_acl_data_ind_event
                0x000000001005ca38       0x40 ../../../../../../Library/Bluetooth_LE/library/libbluenrg1_stack.a(acl.o)
                0x000000001005ca38                int_cb_hci_acl_data_ind_event
 i.int_cb_hci_acl_data_tx_cmpl_event
                0x000000001005ca78       0x54 ../../../../../../Library/Bluetooth_LE/library/libbluenrg1_stack.a(acl.o)
                0x000000001005ca78                int_cb_hci_acl_data_tx_cmpl_event
 i.isr_Acl_Data_Indication_Queue_Full
                0x000000001005cacc       0x20 ../../../../../../Library/Bluetooth_LE/library/libbluenrg1_stack.a(acl.o)
                0x000000001005cacc                isr_Acl_Data_Indication_Queue_Full
 i.isr_Acl_Data_TX_Cmpl_Queue_Full
                0x000000001005caec       0x20 ../../../../../../Library/Bluetooth_LE/library/libbluenrg1_stack.a(acl.o)
                0x000000001005caec                isr_Acl_Data_TX_Cmpl_Queue_Full
 i.acl_list_first
                0x000000001005cb0c        0x4 ../../../../../../Library/Bluetooth_LE/library/libbluenrg1_stack.a(acl_list.o)
                0x000000001005cb0c                acl_list_first
 i.acl_list_full_on_packt
                0x000000001005cb10       0x26 ../../../../../../Library/Bluetooth_LE/library/libbluenrg1_stack.a(acl_list.o)
                0x000000001005cb10                acl_list_full_on_packt
 i.acl_list_init
                0x000000001005cb36       0x10 ../../../../../../Library/Bluetooth_LE/library/libbluenrg1_stack.a(acl_list.o)
                0x000000001005cb36                acl_list_init
 i.acl_list_insert_head
                0x000000001005cb46       0x26 ../../../../../../Library/Bluetooth_LE/library/libbluenrg1_stack.a(acl_list.o)
                0x000000001005cb46                acl_list_insert_head
 i.acl_list_insert_tail
                0x000000001005cb6c       0x2c ../../../../../../Library/Bluetooth_LE/library/libbluenrg1_stack.a(acl_list.o)
                0x000000001005cb6c                acl_list_insert_tail
 i.acl_list_is_empty
                0x000000001005cb98        0xe ../../../../../../Library/Bluetooth_LE/library/libbluenrg1_stack.a(acl_list.o)
                0x000000001005cb98                acl_list_is_empty
 i.acl_list_remove
                0x000000001005cba6       0x44 ../../../../../../Library/Bluetooth_LE/library/libbluenrg1_stack.a(acl_list.o)
                0x000000001005cba6                acl_list_remove
 i.acl_list_remove_head
                0x000000001005cbea       0x2e ../../../../../../Library/Bluetooth_LE/library/libbluenrg1_stack.a(acl_list.o)
                0x000000001005cbea                acl_list_remove_head
 i.advance_wakeup_timer
                0x000000001005cc18      0x68c ../../../../../../Library/Bluetooth_LE/library/libbluenrg1_stack.a(advance_wakeup_time.o)
                0x000000001005cc18                advance_wakeup_timer
 i.AES128ECB_Wrapper
                0x000000001005d2a4       0x7e ../../../../../../Library/Bluetooth_LE/library/libbluenrg1_stack.a(aes128cmac.o)
                0x000000001005d2a4                AES128ECB_Wrapper
 i.AES_CMAC_Encrypt
                0x000000001005d322       0x3a ../../../../../../Library/Bluetooth_LE/library/libbluenrg1_stack.a(aes128cmac.o)
                0x000000001005d322                AES_CMAC_Encrypt
 i.ATT_fill_error_resp
                0x000000001005d35c       0x26 ../../../../../../Library/Bluetooth_LE/library/libbluenrg1_stack.a(att.o)
                0x000000001005d35c                ATT_fill_error_resp
 i.ATT_fill_type_val_entry
                0x000000001005d382       0x34 ../../../../../../Library/Bluetooth_LE/library/libbluenrg1_stack.a(att.o)
 i.ATT_validate_prepare_req
                0x000000001005d3b6       0xa2 ../../../../../../Library/Bluetooth_LE/library/libbluenrg1_stack.a(att.o)
 i.Att_Check_Perms
                0x000000001005d458       0x50 ../../../../../../Library/Bluetooth_LE/library/libbluenrg1_stack.a(att.o)
                0x000000001005d458                Att_Check_Perms
 i.CheckSecForSignedWrite
                0x000000001005d4a8       0x2c ../../../../../../Library/Bluetooth_LE/library/libbluenrg1_stack.a(att.o)
                0x000000001005d4a8                CheckSecForSignedWrite
 i.Check_Permission
                0x000000001005d4d4       0xa0 ../../../../../../Library/Bluetooth_LE/library/libbluenrg1_stack.a(att.o)
                0x000000001005d4d4                Check_Permission
 i.Exchg_Mtu_Resp
                0x000000001005d574       0xb4 ../../../../../../Library/Bluetooth_LE/library/libbluenrg1_stack.a(att.o)
                0x000000001005d574                Exchg_Mtu_Resp
 i.Exec_Write_Resp
                0x000000001005d628      0x1c0 ../../../../../../Library/Bluetooth_LE/library/libbluenrg1_stack.a(att.o)
                0x000000001005d628                Exec_Write_Resp
 i.Find_By_Type_Val_Resp
                0x000000001005d7e8      0x1f0 ../../../../../../Library/Bluetooth_LE/library/libbluenrg1_stack.a(att.o)
                0x000000001005d7e8                Find_By_Type_Val_Resp
 i.Find_Info_Resp
                0x000000001005d9d8      0x1e8 ../../../../../../Library/Bluetooth_LE/library/libbluenrg1_stack.a(att.o)
                0x000000001005d9d8                Find_Info_Resp
 i.Pm_Resize_Host_Acl_Pckt
                0x000000001005dbc0        0xe ../../../../../../Library/Bluetooth_LE/library/libbluenrg1_stack.a(att.o)
 *fill*         0x000000001005dbce        0x2 
 i.Prepare_Write_Resp
                0x000000001005dbd0      0x178 ../../../../../../Library/Bluetooth_LE/library/libbluenrg1_stack.a(att.o)
                0x000000001005dbd0                Prepare_Write_Resp
 i.Read_Blob_Resp
                0x000000001005dd48      0x140 ../../../../../../Library/Bluetooth_LE/library/libbluenrg1_stack.a(att.o)
                0x000000001005dd48                Read_Blob_Resp
 i.Read_By_Grp_Type_Resp
                0x000000001005de88      0x1e4 ../../../../../../Library/Bluetooth_LE/library/libbluenrg1_stack.a(att.o)
                0x000000001005de88                Read_By_Grp_Type_Resp
 i.Read_By_Type_Resp
                0x000000001005e06c      0x2d4 ../../../../../../Library/Bluetooth_LE/library/libbluenrg1_stack.a(att.o)
                0x000000001005e06c                Read_By_Type_Resp
 i.Read_Multi_Resp
                0x000000001005e340      0x194 ../../../../../../Library/Bluetooth_LE/library/libbluenrg1_stack.a(att.o)
                0x000000001005e340                Read_Multi_Resp
 i.Read_Resp    0x000000001005e4d4      0x12a ../../../../../../Library/Bluetooth_LE/library/libbluenrg1_stack.a(att.o)
                0x000000001005e4d4                Read_Resp
 i.Write_Cmd    0x000000001005e5fe      0x12c ../../../../../../Library/Bluetooth_LE/library/libbluenrg1_stack.a(att.o)
                0x000000001005e5fe                Write_Cmd
 i.Write_Resp   0x000000001005e72a      0x13c ../../../../../../Library/Bluetooth_LE/library/libbluenrg1_stack.a(att.o)
                0x000000001005e72a                Write_Resp
 *fill*         0x000000001005e866        0x2 
 i.aci_gatt_attribute_modified_event_push
                0x000000001005e868       0x78 ../../../../../../Library/Bluetooth_LE/library/libbluenrg1_stack.a(att.o)
 i.aci_gatt_read_multi_permit_req_event_push
                0x000000001005e8e0       0x68 ../../../../../../Library/Bluetooth_LE/library/libbluenrg1_stack.a(att.o)
 i.aci_gatt_read_permit_req_event_push
                0x000000001005e948       0x50 ../../../../../../Library/Bluetooth_LE/library/libbluenrg1_stack.a(att.o)
 i.aci_gatt_write_permit_req_event_push
                0x000000001005e998       0x6c ../../../../../../Library/Bluetooth_LE/library/libbluenrg1_stack.a(att.o)
 i.BlueNRG_Stack_Perform_Deep_Sleep_Check
                0x000000001005ea04       0xb4 ../../../../../../Library/Bluetooth_LE/library/libbluenrg1_stack.a(bluenrg_main_func_speed.o)
                0x000000001005ea04                BlueNRG_Stack_Perform_Deep_Sleep_Check
 i.LL_Sleep_Req
                0x000000001005eab8       0x58 ../../../../../../Library/Bluetooth_LE/library/libbluenrg1_stack.a(bluenrg_main_func_speed.o)
                0x000000001005eab8                LL_Sleep_Req
 i.IDD_Initialize_Device_IDs
                0x000000001005eb10      0x128 ../../../../../../Library/Bluetooth_LE/library/libbluenrg1_stack.a(device_id_data.o)
                0x000000001005eb10                IDD_Initialize_Device_IDs
 i.isr_postproc
                0x000000001005ec38      0x1f4 ../../../../../../Library/Bluetooth_LE/library/libbluenrg1_stack.a(isr_postproc.o)
                0x000000001005ec38                isr_postproc
 i.LL_receive_data
                0x000000001005ee2c       0x94 ../../../../../../Library/Bluetooth_LE/library/libbluenrg1_stack.a(isr_routines.o)
                0x000000001005ee2c                LL_receive_data
 i.cancel_slave
                0x000000001005eec0       0xc4 ../../../../../../Library/Bluetooth_LE/library/libbluenrg1_stack.a(isr_routines.o)
                0x000000001005eec0                cancel_slave
 i.go_to_connect_master
                0x000000001005ef84      0x1c0 ../../../../../../Library/Bluetooth_LE/library/libbluenrg1_stack.a(isr_routines.o)
                0x000000001005ef84                go_to_connect_master
 i.AES_CMAC_Encrypt_Append
                0x000000001005f144      0x284 ../../../../../../Library/cryptolib/libcrypto.a(crypto.o)
                0x000000001005f144                AES_CMAC_Encrypt_Append
 i.AES_CMAC_Encrypt_Finish
                0x000000001005f3c8       0x6c ../../../../../../Library/cryptolib/libcrypto.a(crypto.o)
                0x000000001005f3c8                AES_CMAC_Encrypt_Finish
 i.AES_CMAC_Encrypt_Init
                0x000000001005f434       0x34 ../../../../../../Library/cryptolib/libcrypto.a(crypto.o)
                0x000000001005f434                AES_CMAC_Encrypt_Init
 i.AES_general_SW_enc
                0x000000001005f468      0x264 ../../../../../../Library/cryptolib/libcrypto.a(crypto.o)
                0x000000001005f468                AES_general_SW_enc
 i.AES_general_enc
                0x000000001005f6cc        0x8 ../../../../../../Library/cryptolib/libcrypto.a(crypto.o)
 i.AES_keyschedule_enc
                0x000000001005f6d4       0x36 ../../../../../../Library/cryptolib/libcrypto.a(crypto.o)
                0x000000001005f6d4                AES_keyschedule_enc
 *fill*         0x000000001005f70a        0x2 
 i.AES_keyschedule_enc_LL
                0x000000001005f70c      0x150 ../../../../../../Library/cryptolib/libcrypto.a(crypto.o)
 i.AESstdInit   0x000000001005f85c       0xb8 ../../../../../../Library/cryptolib/libcrypto.a(crypto.o)
 *(.rodata)
 .rodata        0x000000001005f914       0x40 Library/BlueNRG1_pka.o
 .rodata        0x000000001005f954       0x19 Startup/system_bluenrg1.o
 *(.rodata*)
 *fill*         0x000000001005f96d        0x3 
 .rodata.hci_command_table
                0x000000001005f970      0x4e8 User/DTM_cmd_db.o
                0x000000001005f970                hci_command_table
 *(.constdata)
 .constdata     0x000000001005fe58       0x1a ../../../../../../Library/Bluetooth_LE/library/libbluenrg1_stack.a(ll_isr.o)
 *fill*         0x000000001005fe72        0x2 
 .constdata     0x000000001005fe74       0x40 ../../../../../../Library/Bluetooth_LE/library/libbluenrg1_stack.a(pka.o)
 .constdata     0x000000001005feb4       0x10 ../../../../../../Library/Bluetooth_LE/library/libbluenrg1_stack.a(rom_ll_timehandling.o)
 .constdata     0x000000001005fec4       0x19 ../../../../../../Library/Bluetooth_LE/library/libbluenrg1_stack.a(securitymgr.o)
 .constdata     0x000000001005fedd       0x10 ../../../../../../Library/Bluetooth_LE/library/libbluenrg1_stack.a(smp_algo_sap.o)
 .constdata     0x000000001005feed       0x60 ../../../../../../Library/Bluetooth_LE/library/libbluenrg1_stack.a(smp_scv42_caf.o)
 *fill*         0x000000001005ff4d        0x3 
 .constdata     0x000000001005ff50      0x11c ../../../../../../Library/Bluetooth_LE/library/libbluenrg1_stack.a(aci_events.o)
                0x000000001005ff50                evnt_callback_pfunc
                0x0000000010060038                int_evnt_callback_pfunc
 .constdata     0x000000001006006c       0x10 ../../../../../../Library/Bluetooth_LE/library/libbluenrg1_stack.a(att.o)
                0x000000001006006c                bleBaseUuid
 .constdata     0x000000001006007c      0x128 ../../../../../../Library/cryptolib/libcrypto.a(crypto.o)
                0x000000001006007c                Sbox
                0x000000001006017c                rcon
 *(.glue_7)
 .glue_7        0x00000000100601a4        0x0 linker stubs
 *(.glue_7t)
 .glue_7t       0x00000000100601a4        0x0 linker stubs
                0x00000000100601a4                . = ALIGN (0x4)
                0x00000000100601a4                _etext = .
                0x00000000100601d0                _sidata = LOADADDR (.data)
                0x00000000100601a4                _sidata2 = LOADADDR (.ram_preamble)

.vfp11_veneer   0x00000000100601a4        0x0
 .vfp11_veneer  0x00000000100601a4        0x0 linker stubs

.v4_bx          0x00000000100601a4        0x0
 .v4_bx         0x00000000100601a4        0x0 linker stubs

.iplt           0x00000000100601a4        0x0
 .iplt          0x00000000100601a4        0x0 Hal/context_switch.o

.rel.dyn        0x00000000100601a4        0x0
 .rel.iplt      0x00000000100601a4        0x0 Hal/context_switch.o

.ram_preamble_noinit
                0x0000000020000000        0x8
                0x0000000020000000                . = ALIGN (0x4)
                0x0000000000000004                . = 0x4
 *fill*         0x0000000020000000        0x4 
 *(.ota_sw_activation)
 .ota_sw_activation
                0x0000000020000004        0x4 Startup/system_bluenrg1.o
                0x0000000020000004                ota_sw_activation

.ram_preamble   0x0000000020000008       0x2c load address 0x00000000100601a4
                0x0000000020000008                _sdata2 = .
 *(.savedMSP)
 .savedMSP      0x0000000020000008        0x4 Startup/system_bluenrg1.o
                0x0000000020000008                savedMSP
                0x0000000000000004                . = 0x4
 *(.wakeupFromSleepFlag)
 .wakeupFromSleepFlag
                0x000000002000000c        0x1 Startup/system_bluenrg1.o
                0x000000002000000c                wakeupFromSleepFlag
                0x0000000000000008                . = 0x8
 *fill*         0x000000002000000d        0x3 
 *(.app_base)
 .app_base      0x0000000020000010        0x4 Startup/system_bluenrg1.o
                0x0000000020000010                app_base
                0x000000000000000c                . = 0xc
 *(.flash_sw_lock)
 .flash_sw_lock
                0x0000000020000014        0x4 Startup/system_bluenrg1.o
                0x0000000020000014                flash_sw_lock
                0x0000000000000010                . = 0x10
 *(.rfTimeout)
 .rfTimeout     0x0000000020000018        0x4 Startup/system_bluenrg1.o
                0x0000000020000018                rfTimeout
                0x0000000000000014                . = 0x14
 *(.BOR_config)
 .BOR_config    0x000000002000001c        0x7 Startup/system_bluenrg1.o
                0x000000002000001c                BOR_config
                0x0000000000000028                . = 0x28
 *fill*         0x0000000020000023        0xd 
 *(.__blueflag_RAM)
 .__blueflag_RAM
                0x0000000020000030        0x4 Startup/system_bluenrg1.o
                0x0000000020000030                __blueflag_RAM
                0x0000000020000034                _edata2 = .

.ram_preamble_noinit2
                0x0000000020000034       0x28
 *(.__crash_RAM)
 .__crash_RAM   0x0000000020000034       0x28 Hal/miscutil.o
                0x0000000020000034                crash_info_ram

.bss.blueRAM    0x00000000200000c0      0x20c
                0x00000000200000c0                . = ALIGN (0x4)
                0x00000000200000c0                _sbssblue = .
 *(.bss.__blue_RAM)
 .bss.__blue_RAM
                0x00000000200000c0      0x20c Startup/system_bluenrg1.o
                0x00000000200000c0                __blue_RAM
                0x00000000200002cc                . = ALIGN (0x4)
                0x00000000200002cc                _ebssblue = .
                0x000000000000020c                . = ((0x20c + MEMORY_RAM_APP_OFFSET) - 0x2cc)

.bss            0x00000000200002cc      0xa4c
                0x00000000200002cc                . = ALIGN (0x4)
                0x00000000200002cc                _sbss = .
 *(.bss)
 .bss           0x00000000200002cc       0x10 ../../../../../../Library/Bluetooth_LE/library/libbluenrg1_stack.a(ll_privacy.o)
 .bss           0x00000000200002dc       0x34 ../../../../../../Library/Bluetooth_LE/library/libbluenrg1_stack.a(mem_alloc.o)
                0x00000000200002dc                _BlueNRG_Stack_Init_params
 *(.bss*)
 .bss.sleepMode_selected
                0x0000000020000310       0x10 Hal/sleep.o
                0x0000000020000310                sleepMode_selected
 .bss.PKA_SetDataError
                0x0000000020000320        0x1 Library/BlueNRG1_pka.o
 .bss.hot_table_radio_config
                0x0000000020000321       0x20 Startup/system_bluenrg1.o
                0x0000000020000321                hot_table_radio_config
 *fill*         0x0000000020000341        0x3 
 .bss.irq_count
                0x0000000020000344        0x4 User/BlueNRG1_it.o
                0x0000000020000344                irq_count
 .bss.buffer_out_len
                0x0000000020000348        0x2 User/hci_parser.o
                0x0000000020000348                buffer_out_len
 .bss.collected_payload_len.7615
                0x000000002000034a        0x2 User/hci_parser.o
 .bss.hci_buffer
                0x000000002000034c      0x103 User/hci_parser.o
 *fill*         0x000000002000044f        0x1 
 .bss.hci_pckt_len
                0x0000000020000450        0x2 User/hci_parser.o
 .bss.payload_len.7616
                0x0000000020000452        0x2 User/hci_parser.o
 .bss.state.7614
                0x0000000020000454        0x1 User/hci_parser.o
 .bss.dma_state
                0x0000000020000455        0x1 User/transport_layer.o
                0x0000000020000455                dma_state
 .bss.event_lost_register
                0x0000000020000456        0xe User/transport_layer.o
 .bss.reset_pending
                0x0000000020000464        0x1 User/transport_layer.o
                0x0000000020000464                reset_pending
 *fill*         0x0000000020000465        0x3 
 .bss.systick_counter
                0x0000000020000468        0x4 User/transport_layer.o
                0x0000000020000468                systick_counter
 *(COMMON)
 COMMON         0x000000002000046c       0x54 Hal/sleep.o
                0x000000002000046c                ptr
                0x0000000020000470                cStackPreamble
 COMMON         0x00000000200004c0        0xc Startup/system_bluenrg1.o
                0x00000000200004c0                savedSHCSR
                0x00000000200004c4                savedICSR
                0x00000000200004c8                savedNVIC_ISPR
 COMMON         0x00000000200004cc        0xe User/DTM_boot.o
                0x00000000200004cc                deviceConfig
 COMMON         0x00000000200004da      0x103 User/hci_parser.o
                0x00000000200004da                buffer_out
 *fill*         0x00000000200005dd        0x3 
 COMMON         0x00000000200005e0      0x738 User/transport_layer.o
                0x00000000200005e0                command_fifo_dma_len
                0x00000000200005e2                command_fifo_buffer_tmp
                0x00000000200006ec                event_fifo
                0x00000000200006fc                event_buffer
                0x0000000020000c00                command_fifo
                0x0000000020000c10                command_buffer
                0x0000000020000d18                . = ALIGN (0x4)
                0x0000000020000d18                _ebss = .

.data           0x0000000020000d18       0xa8 load address 0x00000000100601d0
                0x0000000020000d18                . = ALIGN (0x4)
                0x0000000020000d18                _sdata = .
 *(.data)
 .data          0x0000000020000d18       0x48 ../../../../../../Library/Bluetooth_LE/library/libbluenrg1_stack.a(ll_isr.o)
                0x0000000020000d18                g_var_close_connect_event_now
                0x0000000020000d19                g_var_close_connect_now
                0x0000000020000d1a                g_var_linkslaveno
                0x0000000020000d1b                g_var_state2
                0x0000000020000d1c                g_var_index
                0x0000000020000d1d                g_var_sending_scan_response
                0x0000000020000d1e                g_var_scan_response_sent
                0x0000000020000d20                g_var_int_value
                0x0000000020000d24                g_var_LinkPerp
                0x0000000020000d28                g_var_bluedata1
                0x0000000020000d2c                g_var_txdata
                0x0000000020000d30                g_var_sent_event
                0x0000000020000d34                g_var_RcvData
 .data          0x0000000020000d60        0x2 ../../../../../../Library/Bluetooth_LE/library/libbluenrg1_stack.a(ll_routines_master.o)
 *fill*         0x0000000020000d62        0x2 
 .data          0x0000000020000d64        0x4 ../../../../../../Library/Bluetooth_LE/library/libbluenrg1_stack.a(mem_alloc.o)
                0x0000000020000d64                mem_alloc_ctx_p
 .data          0x0000000020000d68        0x2 ../../../../../../Library/Bluetooth_LE/library/libbluenrg1_stack.a(pka.o)
 *fill*         0x0000000020000d6a        0x2 
 .data          0x0000000020000d6c        0x4 ../../../../../../Library/Bluetooth_LE/library/libbluenrg1_stack.a(smp_common.o)
                0x0000000020000d6c                csmem_sm_ctx_p
 *(.data*)
 .data.BlueNRG_Stack_Init_params
                0x0000000020000d70       0x34 User/DTM_boot.o
                0x0000000020000d70                BlueNRG_Stack_Init_params
 .data.cold_start_config
                0x0000000020000da4       0x19 User/DTM_boot.o
                0x0000000020000da4                cold_start_config
                0x0000000020000dc0                . = ALIGN (0x4)
 *fill*         0x0000000020000dbd        0x3 
                0x0000000020000dc0                _edata = .

.igot.plt       0x0000000020000dc0        0x0 load address 0x0000000010060278
 .igot.plt      0x0000000020000dc0        0x0 Hal/context_switch.o

.noinit         0x0000000020000dc0     0x465c load address 0x0000000010060278
                0x0000000020000dc0                . = ALIGN (0x4)
 *(.noinit)
 .noinit        0x0000000020000dc0     0x465c User/DTM_boot.o
                0x0000000020000dc0                dyn_alloc_a
                0x000000002000541c                . = ALIGN (0x4)

BLOCK_STACKLIB_FLASH_DATA
                0x000000001007f000      0x838
                0x000000001007f000                . = ALIGN (0x800)
 *(.noinit.stacklib_flash_data)
 .noinit.stacklib_flash_data
                0x000000001007f000      0x800 User/DTM_boot.o
                0x000000001007f000                stacklib_flash_data
 *(.noinit.stacklib_stored_device_id_data)
 .noinit.stacklib_stored_device_id_data
                0x000000001007f800       0x38 User/DTM_boot.o
                0x000000001007f800                stacklib_stored_device_id_data

CSTACK          0x0000000020005400        0x0
                0x0000000020005400                . = ALIGN (0x4)
                0x0000000020006000                _estack = (. + _Min_Stack_Size)
                0x0000000020005400                . = ALIGN (0x4)

.rom_info       0x0000000010000000        0x0
                0x0000000010000000                . = ALIGN (0x4)
 *(.rom_info)
                0x0000000010000000                . = ALIGN (0x4)

/DISCARD/
 libc.a(*)
 libm.a(*)
 libgcc.a(*)

.ARM.attributes
                0x0000000000000000       0x2f
 *(.ARM.attributes)
 .ARM.attributes
                0x0000000000000000       0x21 Hal/context_switch.o
 .ARM.attributes
                0x0000000000000021       0x31 Hal/fifo.o
 .ARM.attributes
                0x0000000000000052       0x31 Hal/miscutil.o
 .ARM.attributes
                0x0000000000000083       0x31 Hal/osal.o
 .ARM.attributes
                0x00000000000000b4       0x31 Hal/sleep.o
 .ARM.attributes
                0x00000000000000e5       0x31 Library/BlueNRG1_dma.o
 .ARM.attributes
                0x0000000000000116       0x31 Library/BlueNRG1_flash.o
 .ARM.attributes
                0x0000000000000147       0x31 Library/BlueNRG1_gpio.o
 .ARM.attributes
                0x0000000000000178       0x31 Library/BlueNRG1_pka.o
 .ARM.attributes
                0x00000000000001a9       0x31 Library/BlueNRG1_sysCtrl.o
 .ARM.attributes
                0x00000000000001da       0x31 Library/BlueNRG1_uart.o
 .ARM.attributes
                0x000000000000020b       0x31 Library/BlueNRG1_wdg.o
 .ARM.attributes
                0x000000000000023c       0x31 Library/misc.o
 .ARM.attributes
                0x000000000000026d       0x31 Stack/stack_user_cfg.o
 .ARM.attributes
                0x000000000000029e       0x31 Startup/system_bluenrg1.o
 .ARM.attributes
                0x00000000000002cf       0x31 User/BlueNRG1_it.o
 .ARM.attributes
                0x0000000000000300       0x31 User/DTM_boot.o
 .ARM.attributes
                0x0000000000000331       0x31 User/DTM_cmd_db.o
 .ARM.attributes
                0x0000000000000362       0x31 User/DTM_cmds.o
 .ARM.attributes
                0x0000000000000393       0x31 User/DTM_main.o
 .ARM.attributes
                0x00000000000003c4       0x31 User/cmd.o
 .ARM.attributes
                0x00000000000003f5       0x31 User/hci_parser.o
 .ARM.attributes
                0x0000000000000426       0x31 User/hw_config.o
 .ARM.attributes
                0x0000000000000457       0x31 User/transport_layer.o
 .ARM.attributes
                0x0000000000000488       0x8a ../../../../../../Library/Bluetooth_LE/library/libbluenrg1_stack.a(bluenrg_gap_aci.o)
 .ARM.attributes
                0x0000000000000512       0x8c ../../../../../../Library/Bluetooth_LE/library/libbluenrg1_stack.a(bluenrg_gatt_aci.o)
 .ARM.attributes
                0x000000000000059e       0x67 ../../../../../../Library/Bluetooth_LE/library/libbluenrg1_stack.a(bluenrg_hal_aci.o)
 .ARM.attributes
                0x0000000000000605       0x60 ../../../../../../Library/Bluetooth_LE/library/libbluenrg1_stack.a(bluenrg_l2cap_aci.o)
 .ARM.attributes
                0x0000000000000665       0x66 ../../../../../../Library/Bluetooth_LE/library/libbluenrg1_stack.a(bluenrg_main_func.o)
 .ARM.attributes
                0x00000000000006cb       0x86 ../../../../../../Library/Bluetooth_LE/library/libbluenrg1_stack.a(gap.o)
 .ARM.attributes
                0x0000000000000751       0xa4 ../../../../../../Library/Bluetooth_LE/library/libbluenrg1_stack.a(gatt_client.o)
 .ARM.attributes
                0x00000000000007f5       0x8e ../../../../../../Library/Bluetooth_LE/library/libbluenrg1_stack.a(gatt_server.o)
 .ARM.attributes
                0x0000000000000883       0x6e ../../../../../../Library/Bluetooth_LE/library/libbluenrg1_stack.a(hal.o)
 .ARM.attributes
                0x00000000000008f1       0x9b ../../../../../../Library/Bluetooth_LE/library/libbluenrg1_stack.a(hci.o)
 .ARM.attributes
                0x000000000000098c       0x67 ../../../../../../Library/Bluetooth_LE/library/libbluenrg1_stack.a(hci_privacy.o)
 .ARM.attributes
                0x00000000000009f3       0x71 ../../../../../../Library/Bluetooth_LE/library/libbluenrg1_stack.a(host_timer.o)
 .ARM.attributes
                0x0000000000000a64       0x73 ../../../../../../Library/Bluetooth_LE/library/libbluenrg1_stack.a(l2cap.o)
 .ARM.attributes
                0x0000000000000ad7       0x70 ../../../../../../Library/Bluetooth_LE/library/libbluenrg1_stack.a(ll_isr.o)
 .ARM.attributes
                0x0000000000000b47       0x83 ../../../../../../Library/Bluetooth_LE/library/libbluenrg1_stack.a(ll_privacy.o)
 .ARM.attributes
                0x0000000000000bca       0x73 ../../../../../../Library/Bluetooth_LE/library/libbluenrg1_stack.a(ll_routines.o)
 .ARM.attributes
                0x0000000000000c3d       0x71 ../../../../../../Library/Bluetooth_LE/library/libbluenrg1_stack.a(ll_routines_master.o)
 .ARM.attributes
                0x0000000000000cae       0x62 ../../../../../../Library/Bluetooth_LE/library/libbluenrg1_stack.a(ll_routines_support.o)
 .ARM.attributes
                0x0000000000000d10       0x64 ../../../../../../Library/Bluetooth_LE/library/libbluenrg1_stack.a(mem_alloc.o)
 .ARM.attributes
                0x0000000000000d74       0x6c ../../../../../../Library/Bluetooth_LE/library/libbluenrg1_stack.a(mem_buff.o)
 .ARM.attributes
                0x0000000000000de0       0x77 ../../../../../../Library/Bluetooth_LE/library/libbluenrg1_stack.a(multi_master_time.o)
 .ARM.attributes
                0x0000000000000e57       0x60 ../../../../../../Library/Bluetooth_LE/library/libbluenrg1_stack.a(nvm.o)
 .ARM.attributes
                0x0000000000000eb7       0x63 ../../../../../../Library/Bluetooth_LE/library/libbluenrg1_stack.a(pka.o)
 .ARM.attributes
                0x0000000000000f1a       0x6e ../../../../../../Library/Bluetooth_LE/library/libbluenrg1_stack.a(pm.o)
 .ARM.attributes
                0x0000000000000f88       0x6f ../../../../../../Library/Bluetooth_LE/library/libbluenrg1_stack.a(rom_att.o)
 .ARM.attributes
                0x0000000000000ff7       0x68 ../../../../../../Library/Bluetooth_LE/library/libbluenrg1_stack.a(rom_gap.o)
 .ARM.attributes
                0x000000000000105f       0x66 ../../../../../../Library/Bluetooth_LE/library/libbluenrg1_stack.a(rom_gap_rom.o)
 .ARM.attributes
                0x00000000000010c5       0x66 ../../../../../../Library/Bluetooth_LE/library/libbluenrg1_stack.a(rom_gatt_server.o)
 .ARM.attributes
                0x000000000000112b       0x65 ../../../../../../Library/Bluetooth_LE/library/libbluenrg1_stack.a(rom_list.o)
 .ARM.attributes
                0x0000000000001190       0x61 ../../../../../../Library/Bluetooth_LE/library/libbluenrg1_stack.a(rom_ll_isr_postproc.o)
 .ARM.attributes
                0x00000000000011f1       0x6a ../../../../../../Library/Bluetooth_LE/library/libbluenrg1_stack.a(rom_ll_isr_routines.o)
 .ARM.attributes
                0x000000000000125b       0x7c ../../../../../../Library/Bluetooth_LE/library/libbluenrg1_stack.a(rom_ll_ll_routines.o)
 .ARM.attributes
                0x00000000000012d7       0x66 ../../../../../../Library/Bluetooth_LE/library/libbluenrg1_stack.a(rom_ll_ll_routines_master.o)
 .ARM.attributes
                0x000000000000133d       0x6c ../../../../../../Library/Bluetooth_LE/library/libbluenrg1_stack.a(rom_ll_routines_support.o)
 .ARM.attributes
                0x00000000000013a9       0x68 ../../../../../../Library/Bluetooth_LE/library/libbluenrg1_stack.a(rom_ll_timehandling.o)
 .ARM.attributes
                0x0000000000001411       0x69 ../../../../../../Library/Bluetooth_LE/library/libbluenrg1_stack.a(routines_support.o)
 .ARM.attributes
                0x000000000000147a       0x74 ../../../../../../Library/Bluetooth_LE/library/libbluenrg1_stack.a(sdb.o)
 .ARM.attributes
                0x00000000000014ee       0x9a ../../../../../../Library/Bluetooth_LE/library/libbluenrg1_stack.a(securitymgr.o)
 .ARM.attributes
                0x0000000000001588       0x6e ../../../../../../Library/Bluetooth_LE/library/libbluenrg1_stack.a(smp_algo_sap.o)
 .ARM.attributes
                0x00000000000015f6       0x8f ../../../../../../Library/Bluetooth_LE/library/libbluenrg1_stack.a(smp_common.o)
 .ARM.attributes
                0x0000000000001685       0x60 ../../../../../../Library/Bluetooth_LE/library/libbluenrg1_stack.a(smp_scv42_api.o)
 .ARM.attributes
                0x00000000000016e5       0x75 ../../../../../../Library/Bluetooth_LE/library/libbluenrg1_stack.a(smp_scv42_caf.o)
 .ARM.attributes
                0x000000000000175a       0x64 ../../../../../../Library/Bluetooth_LE/library/libbluenrg1_stack.a(smp_scv42_sap.o)
 .ARM.attributes
                0x00000000000017be       0x61 ../../../../../../Library/Bluetooth_LE/library/libbluenrg1_stack.a(utils.o)
 .ARM.attributes
                0x000000000000181f       0xef ../../../../../../Library/Bluetooth_LE/library/libbluenrg1_stack.a(aci_events.o)
 .ARM.attributes
                0x000000000000190e       0x68 ../../../../../../Library/Bluetooth_LE/library/libbluenrg1_stack.a(acl.o)
 .ARM.attributes
                0x0000000000001976       0x69 ../../../../../../Library/Bluetooth_LE/library/libbluenrg1_stack.a(acl_list.o)
 .ARM.attributes
                0x00000000000019df       0x5f ../../../../../../Library/Bluetooth_LE/library/libbluenrg1_stack.a(advance_wakeup_time.o)
 .ARM.attributes
                0x0000000000001a3e       0x42 ../../../../../../Library/Bluetooth_LE/library/libbluenrg1_stack.a(aes128cmac.o)
 .ARM.attributes
                0x0000000000001a80       0x76 ../../../../../../Library/Bluetooth_LE/library/libbluenrg1_stack.a(att.o)
 .ARM.attributes
                0x0000000000001af6       0x60 ../../../../../../Library/Bluetooth_LE/library/libbluenrg1_stack.a(bluenrg_main_func_speed.o)
 .ARM.attributes
                0x0000000000001b56       0x5f ../../../../../../Library/Bluetooth_LE/library/libbluenrg1_stack.a(device_id_data.o)
 .ARM.attributes
                0x0000000000001bb5       0x5f ../../../../../../Library/Bluetooth_LE/library/libbluenrg1_stack.a(isr_postproc.o)
 .ARM.attributes
                0x0000000000001c14       0x61 ../../../../../../Library/Bluetooth_LE/library/libbluenrg1_stack.a(isr_routines.o)
 .ARM.attributes
                0x0000000000001c75       0x42 ../../../../../../Library/cryptolib/libcrypto.a(crypto.o)
 .ARM.attributes
                0x0000000000001cb7       0x2c /opt/Atollic_TrueSTUDIO_for_STM32_x86_64_9.3.0/ARMTools/bin/../lib/gcc/arm-atollic-eabi/6.3.1/../../../../arm-atollic-eabi/lib/armv6-m/libc_nano.a(lib_a-aeabi_memclr.o)
 .ARM.attributes
                0x0000000000001ce3       0x2c /opt/Atollic_TrueSTUDIO_for_STM32_x86_64_9.3.0/ARMTools/bin/../lib/gcc/arm-atollic-eabi/6.3.1/../../../../arm-atollic-eabi/lib/armv6-m/libc_nano.a(lib_a-aeabi_memcpy.o)
 .ARM.attributes
                0x0000000000001d0f       0x2c /opt/Atollic_TrueSTUDIO_for_STM32_x86_64_9.3.0/ARMTools/bin/../lib/gcc/arm-atollic-eabi/6.3.1/../../../../arm-atollic-eabi/lib/armv6-m/libc_nano.a(lib_a-aeabi_memmove.o)
 .ARM.attributes
                0x0000000000001d3b       0x2c /opt/Atollic_TrueSTUDIO_for_STM32_x86_64_9.3.0/ARMTools/bin/../lib/gcc/arm-atollic-eabi/6.3.1/../../../../arm-atollic-eabi/lib/armv6-m/libc_nano.a(lib_a-aeabi_memset.o)
 .ARM.attributes
                0x0000000000001d67       0x2c /opt/Atollic_TrueSTUDIO_for_STM32_x86_64_9.3.0/ARMTools/bin/../lib/gcc/arm-atollic-eabi/6.3.1/../../../../arm-atollic-eabi/lib/armv6-m/libc_nano.a(lib_a-memcmp.o)
 .ARM.attributes
                0x0000000000001d93       0x2c /opt/Atollic_TrueSTUDIO_for_STM32_x86_64_9.3.0/ARMTools/bin/../lib/gcc/arm-atollic-eabi/6.3.1/../../../../arm-atollic-eabi/lib/armv6-m/libc_nano.a(lib_a-memcpy-stub.o)
 .ARM.attributes
                0x0000000000001dbf       0x2c /opt/Atollic_TrueSTUDIO_for_STM32_x86_64_9.3.0/ARMTools/bin/../lib/gcc/arm-atollic-eabi/6.3.1/../../../../arm-atollic-eabi/lib/armv6-m/libc_nano.a(lib_a-memmove.o)
 .ARM.attributes
                0x0000000000001deb       0x2c /opt/Atollic_TrueSTUDIO_for_STM32_x86_64_9.3.0/ARMTools/bin/../lib/gcc/arm-atollic-eabi/6.3.1/../../../../arm-atollic-eabi/lib/armv6-m/libc_nano.a(lib_a-memset.o)
OUTPUT(DTM_UART.elf elf32-littlearm)

.debug_line     0x0000000000000000     0x7562
 .debug_line    0x0000000000000000       0x9f Hal/context_switch.o
 .debug_line    0x000000000000009f      0x2fa Hal/fifo.o
 .debug_line    0x0000000000000399      0x31e Hal/miscutil.o
 .debug_line    0x00000000000006b7      0x1ba Hal/osal.o
 .debug_line    0x0000000000000871      0x64e Hal/sleep.o
 .debug_line    0x0000000000000ebf      0x313 Library/BlueNRG1_dma.o
 .debug_line    0x00000000000011d2      0x2ef Library/BlueNRG1_flash.o
 .debug_line    0x00000000000014c1      0x3be Library/BlueNRG1_gpio.o
 .debug_line    0x000000000000187f      0x358 Library/BlueNRG1_pka.o
 .debug_line    0x0000000000001bd7      0x273 Library/BlueNRG1_sysCtrl.o
 .debug_line    0x0000000000001e4a      0x496 Library/BlueNRG1_uart.o
 .debug_line    0x00000000000022e0      0x278 Library/BlueNRG1_wdg.o
 .debug_line    0x0000000000002558      0x293 Library/misc.o
 .debug_line    0x00000000000027eb      0x7b0 Stack/stack_user_cfg.o
 .debug_line    0x0000000000002f9b      0x529 Startup/system_bluenrg1.o
 .debug_line    0x00000000000034c4      0x3fd User/BlueNRG1_it.o
 .debug_line    0x00000000000038c1      0x3c8 User/DTM_boot.o
 .debug_line    0x0000000000003c89     0x2365 User/DTM_cmd_db.o
 .debug_line    0x0000000000005fee      0x360 User/DTM_cmds.o
 .debug_line    0x000000000000634e      0x32f User/DTM_main.o
 .debug_line    0x000000000000667d      0x2e1 User/cmd.o
 .debug_line    0x000000000000695e      0x2d5 User/hci_parser.o
 .debug_line    0x0000000000006c33      0x429 User/hw_config.o
 .debug_line    0x000000000000705c      0x506 User/transport_layer.o

.debug_info     0x0000000000000000    0x2e15e
 .debug_info    0x0000000000000000       0xe0 Hal/context_switch.o
 .debug_info    0x00000000000000e0      0x681 Hal/fifo.o
 .debug_info    0x0000000000000761     0x1531 Hal/miscutil.o
 .debug_info    0x0000000000001c92      0x9db Hal/osal.o
 .debug_info    0x000000000000266d     0x59ef Hal/sleep.o
 .debug_info    0x000000000000805c     0x1069 Library/BlueNRG1_dma.o
 .debug_info    0x00000000000090c5      0x8a8 Library/BlueNRG1_flash.o
 .debug_info    0x000000000000996d      0xbff Library/BlueNRG1_gpio.o
 .debug_info    0x000000000000a56c      0x88b Library/BlueNRG1_pka.o
 .debug_info    0x000000000000adf7      0xb9f Library/BlueNRG1_sysCtrl.o
 .debug_info    0x000000000000b996     0x1456 Library/BlueNRG1_uart.o
 .debug_info    0x000000000000cdec      0x745 Library/BlueNRG1_wdg.o
 .debug_info    0x000000000000d531      0x712 Library/misc.o
 .debug_info    0x000000000000dc43     0x217c Stack/stack_user_cfg.o
 .debug_info    0x000000000000fdbf     0x237b Startup/system_bluenrg1.o
 .debug_info    0x000000000001213a     0x111d User/BlueNRG1_it.o
 .debug_info    0x0000000000013257     0x1b91 User/DTM_boot.o
 .debug_info    0x0000000000014de8    0x121de User/DTM_cmd_db.o
 .debug_info    0x0000000000026fc6      0xf9c User/DTM_cmds.o
 .debug_info    0x0000000000027f62      0xe96 User/DTM_main.o
 .debug_info    0x0000000000028df8      0xe3d User/cmd.o
 .debug_info    0x0000000000029c35      0xed4 User/hci_parser.o
 .debug_info    0x000000000002ab09     0x1a30 User/hw_config.o
 .debug_info    0x000000000002c539     0x1c25 User/transport_layer.o

.debug_abbrev   0x0000000000000000     0x3cad
 .debug_abbrev  0x0000000000000000       0x14 Hal/context_switch.o
 .debug_abbrev  0x0000000000000014      0x1bf Hal/fifo.o
 .debug_abbrev  0x00000000000001d3      0x2c5 Hal/miscutil.o
 .debug_abbrev  0x0000000000000498      0x1bc Hal/osal.o
 .debug_abbrev  0x0000000000000654      0x491 Hal/sleep.o
 .debug_abbrev  0x0000000000000ae5      0x21e Library/BlueNRG1_dma.o
 .debug_abbrev  0x0000000000000d03      0x276 Library/BlueNRG1_flash.o
 .debug_abbrev  0x0000000000000f79      0x24b Library/BlueNRG1_gpio.o
 .debug_abbrev  0x00000000000011c4      0x31c Library/BlueNRG1_pka.o
 .debug_abbrev  0x00000000000014e0      0x211 Library/BlueNRG1_sysCtrl.o
 .debug_abbrev  0x00000000000016f1      0x29a Library/BlueNRG1_uart.o
 .debug_abbrev  0x000000000000198b      0x228 Library/BlueNRG1_wdg.o
 .debug_abbrev  0x0000000000001bb3      0x1b7 Library/misc.o
 .debug_abbrev  0x0000000000001d6a      0x1af Stack/stack_user_cfg.o
 .debug_abbrev  0x0000000000001f19      0x467 Startup/system_bluenrg1.o
 .debug_abbrev  0x0000000000002380      0x308 User/BlueNRG1_it.o
 .debug_abbrev  0x0000000000002688      0x30b User/DTM_boot.o
 .debug_abbrev  0x0000000000002993      0x339 User/DTM_cmd_db.o
 .debug_abbrev  0x0000000000002ccc      0x256 User/DTM_cmds.o
 .debug_abbrev  0x0000000000002f22      0x204 User/DTM_main.o
 .debug_abbrev  0x0000000000003126      0x20f User/cmd.o
 .debug_abbrev  0x0000000000003335      0x26a User/hci_parser.o
 .debug_abbrev  0x000000000000359f      0x267 User/hw_config.o
 .debug_abbrev  0x0000000000003806      0x4a7 User/transport_layer.o

.debug_aranges  0x0000000000000000     0x10e8
 .debug_aranges
                0x0000000000000000       0x20 Hal/context_switch.o
 .debug_aranges
                0x0000000000000020       0x78 Hal/fifo.o
 .debug_aranges
                0x0000000000000098       0x38 Hal/miscutil.o
 .debug_aranges
                0x00000000000000d0       0x30 Hal/osal.o
 .debug_aranges
                0x0000000000000100       0x38 Hal/sleep.o
 .debug_aranges
                0x0000000000000138       0x68 Library/BlueNRG1_dma.o
 .debug_aranges
                0x00000000000001a0       0x80 Library/BlueNRG1_flash.o
 .debug_aranges
                0x0000000000000220       0xa0 Library/BlueNRG1_gpio.o
 .debug_aranges
                0x00000000000002c0       0x70 Library/BlueNRG1_pka.o
 .debug_aranges
                0x0000000000000330       0x40 Library/BlueNRG1_sysCtrl.o
 .debug_aranges
                0x0000000000000370       0xf0 Library/BlueNRG1_uart.o
 .debug_aranges
                0x0000000000000460       0x60 Library/BlueNRG1_wdg.o
 .debug_aranges
                0x00000000000004c0       0x30 Library/misc.o
 .debug_aranges
                0x00000000000004f0      0x2b8 Stack/stack_user_cfg.o
 .debug_aranges
                0x00000000000007a8       0x60 Startup/system_bluenrg1.o
 .debug_aranges
                0x0000000000000808       0x50 User/BlueNRG1_it.o
 .debug_aranges
                0x0000000000000858       0x28 User/DTM_boot.o
 .debug_aranges
                0x0000000000000880      0x6e0 User/DTM_cmd_db.o
 .debug_aranges
                0x0000000000000f60       0x30 User/DTM_cmds.o
 .debug_aranges
                0x0000000000000f90       0x20 User/DTM_main.o
 .debug_aranges
                0x0000000000000fb0       0x20 User/cmd.o
 .debug_aranges
                0x0000000000000fd0       0x28 User/hci_parser.o
 .debug_aranges
                0x0000000000000ff8       0x98 User/hw_config.o
 .debug_aranges
                0x0000000000001090       0x58 User/transport_layer.o

.debug_loc      0x0000000000000000    0x13940
 .debug_loc     0x0000000000000000      0x674 Hal/fifo.o
 .debug_loc     0x0000000000000674      0x126 Hal/miscutil.o
 .debug_loc     0x000000000000079a      0x129 Hal/osal.o
 .debug_loc     0x00000000000008c3      0xce9 Hal/sleep.o
 .debug_loc     0x00000000000015ac       0xef Library/BlueNRG1_dma.o
 .debug_loc     0x000000000000169b      0x188 Library/BlueNRG1_flash.o
 .debug_loc     0x0000000000001823      0x1d7 Library/BlueNRG1_gpio.o
 .debug_loc     0x00000000000019fa      0x1ec Library/BlueNRG1_pka.o
 .debug_loc     0x0000000000001be6      0x18a Library/BlueNRG1_sysCtrl.o
 .debug_loc     0x0000000000001d70      0x2cb Library/BlueNRG1_uart.o
 .debug_loc     0x000000000000203b       0x25 Library/BlueNRG1_wdg.o
 .debug_loc     0x0000000000002060       0x9d Library/misc.o
 .debug_loc     0x00000000000020fd     0x218a Stack/stack_user_cfg.o
 .debug_loc     0x0000000000004287      0x589 Startup/system_bluenrg1.o
 .debug_loc     0x0000000000004810       0x80 User/DTM_boot.o
 .debug_loc     0x0000000000004890     0xe83b User/DTM_cmd_db.o
 .debug_loc     0x00000000000130cb      0x178 User/DTM_cmds.o
 .debug_loc     0x0000000000013243       0x32 User/DTM_main.o
 .debug_loc     0x0000000000013275       0xcd User/cmd.o
 .debug_loc     0x0000000000013342      0x160 User/hci_parser.o
 .debug_loc     0x00000000000134a2       0x6f User/hw_config.o
 .debug_loc     0x0000000000013511      0x42f User/transport_layer.o

.debug_ranges   0x0000000000000000     0x1418
 .debug_ranges  0x0000000000000000       0xa8 Hal/fifo.o
 .debug_ranges  0x00000000000000a8       0x40 Hal/miscutil.o
 .debug_ranges  0x00000000000000e8       0x20 Hal/osal.o
 .debug_ranges  0x0000000000000108       0x80 Hal/sleep.o
 .debug_ranges  0x0000000000000188       0x58 Library/BlueNRG1_dma.o
 .debug_ranges  0x00000000000001e0       0x70 Library/BlueNRG1_flash.o
 .debug_ranges  0x0000000000000250       0xa8 Library/BlueNRG1_gpio.o
 .debug_ranges  0x00000000000002f8       0x60 Library/BlueNRG1_pka.o
 .debug_ranges  0x0000000000000358       0x30 Library/BlueNRG1_sysCtrl.o
 .debug_ranges  0x0000000000000388       0xe0 Library/BlueNRG1_uart.o
 .debug_ranges  0x0000000000000468       0x50 Library/BlueNRG1_wdg.o
 .debug_ranges  0x00000000000004b8       0x38 Library/misc.o
 .debug_ranges  0x00000000000004f0      0x2a8 Stack/stack_user_cfg.o
 .debug_ranges  0x0000000000000798      0x180 Startup/system_bluenrg1.o
 .debug_ranges  0x0000000000000918       0x40 User/BlueNRG1_it.o
 .debug_ranges  0x0000000000000958       0x30 User/DTM_boot.o
 .debug_ranges  0x0000000000000988      0x878 User/DTM_cmd_db.o
 .debug_ranges  0x0000000000001200       0x38 User/DTM_cmds.o
 .debug_ranges  0x0000000000001238       0x10 User/DTM_main.o
 .debug_ranges  0x0000000000001248       0x10 User/cmd.o
 .debug_ranges  0x0000000000001258       0x18 User/hci_parser.o
 .debug_ranges  0x0000000000001270       0x88 User/hw_config.o
 .debug_ranges  0x00000000000012f8      0x120 User/transport_layer.o

.debug_str      0x0000000000000000     0xd896
 .debug_str     0x0000000000000000      0x2e8 Hal/fifo.o
                                        0x363 (size before relaxing)
 .debug_str     0x00000000000002e8      0x968 Hal/miscutil.o
                                        0xbf9 (size before relaxing)
 .debug_str     0x0000000000000c50       0x4d Hal/osal.o
                                        0x657 (size before relaxing)
 .debug_str     0x0000000000000c9d     0x1882 Hal/sleep.o
                                       0x2484 (size before relaxing)
 .debug_str     0x000000000000251f      0x2e4 Library/BlueNRG1_dma.o
                                        0x9e9 (size before relaxing)
 .debug_str     0x0000000000002803      0x15a Library/BlueNRG1_flash.o
                                        0x6c6 (size before relaxing)
 .debug_str     0x000000000000295d      0x233 Library/BlueNRG1_gpio.o
                                        0x844 (size before relaxing)
 .debug_str     0x0000000000002b90      0x18e Library/BlueNRG1_pka.o
                                        0x696 (size before relaxing)
 .debug_str     0x0000000000002d1e       0xcf Library/BlueNRG1_sysCtrl.o
                                        0x80d (size before relaxing)
 .debug_str     0x0000000000002ded      0x37f Library/BlueNRG1_uart.o
                                        0xc1f (size before relaxing)
 .debug_str     0x000000000000316c       0xeb Library/BlueNRG1_wdg.o
                                        0x610 (size before relaxing)
 .debug_str     0x0000000000003257       0xdb Library/misc.o
                                        0x6e1 (size before relaxing)
 .debug_str     0x0000000000003332     0x1dfb Stack/stack_user_cfg.o
                                       0x20f7 (size before relaxing)
 .debug_str     0x000000000000512d      0x37a Startup/system_bluenrg1.o
                                       0x12eb (size before relaxing)
 .debug_str     0x00000000000054a7      0x1c2 User/BlueNRG1_it.o
                                        0xbca (size before relaxing)
 .debug_str     0x0000000000005669      0x2d2 User/DTM_boot.o
                                       0x10cf (size before relaxing)
 .debug_str     0x000000000000593b     0x79b8 User/DTM_cmd_db.o
                                       0x8cf4 (size before relaxing)
 .debug_str     0x000000000000d2f3       0x40 User/DTM_cmds.o
                                        0xcfd (size before relaxing)
 .debug_str     0x000000000000d333       0x5e User/DTM_main.o
                                        0xba8 (size before relaxing)
 .debug_str     0x000000000000d391       0x35 User/cmd.o
                                        0xa77 (size before relaxing)
 .debug_str     0x000000000000d3c6      0x13d User/hci_parser.o
                                        0xb98 (size before relaxing)
 .debug_str     0x000000000000d503      0x205 User/hw_config.o
                                        0xef6 (size before relaxing)
 .debug_str     0x000000000000d708      0x18e User/transport_layer.o
                                       0x1131 (size before relaxing)

.comment        0x0000000000000000    0x160d2
 .comment       0x0000000000000000       0x7c Hal/fifo.o
                                         0x7d (size before relaxing)
 .comment       0x000000000000007c       0x7d Hal/miscutil.o
 .comment       0x000000000000007c       0x7d Hal/osal.o
 .comment       0x000000000000007c       0x7d Hal/sleep.o
 .comment       0x000000000000007c       0x7d Library/BlueNRG1_dma.o
 .comment       0x000000000000007c       0x7d Library/BlueNRG1_flash.o
 .comment       0x000000000000007c       0x7d Library/BlueNRG1_gpio.o
 .comment       0x000000000000007c       0x7d Library/BlueNRG1_pka.o
 .comment       0x000000000000007c       0x7d Library/BlueNRG1_sysCtrl.o
 .comment       0x000000000000007c       0x7d Library/BlueNRG1_uart.o
 .comment       0x000000000000007c       0x7d Library/BlueNRG1_wdg.o
 .comment       0x000000000000007c       0x7d Library/misc.o
 .comment       0x000000000000007c       0x7d Stack/stack_user_cfg.o
 .comment       0x000000000000007c       0x7d Startup/system_bluenrg1.o
 .comment       0x000000000000007c       0x7d User/BlueNRG1_it.o
 .comment       0x000000000000007c       0x7d User/DTM_boot.o
 .comment       0x000000000000007c       0x7d User/DTM_cmd_db.o
 .comment       0x000000000000007c       0x7d User/DTM_cmds.o
 .comment       0x000000000000007c       0x7d User/DTM_main.o
 .comment       0x000000000000007c       0x7d User/cmd.o
 .comment       0x000000000000007c       0x7d User/hci_parser.o
 .comment       0x000000000000007c       0x7d User/hw_config.o
 .comment       0x000000000000007c       0x7d User/transport_layer.o
 .comment       0x000000000000007c      0x6ac ../../../../../../Library/Bluetooth_LE/library/libbluenrg1_stack.a(bluenrg_gap_aci.o)
 .comment       0x0000000000000728      0x6b0 ../../../../../../Library/Bluetooth_LE/library/libbluenrg1_stack.a(bluenrg_gatt_aci.o)
 .comment       0x0000000000000dd8      0x6ac ../../../../../../Library/Bluetooth_LE/library/libbluenrg1_stack.a(bluenrg_hal_aci.o)
 .comment       0x0000000000001484      0x6b8 ../../../../../../Library/Bluetooth_LE/library/libbluenrg1_stack.a(bluenrg_l2cap_aci.o)
 .comment       0x0000000000001b3c      0x6a8 ../../../../../../Library/Bluetooth_LE/library/libbluenrg1_stack.a(bluenrg_main_func.o)
 .comment       0x00000000000021e4      0x650 ../../../../../../Library/Bluetooth_LE/library/libbluenrg1_stack.a(gap.o)
 .comment       0x0000000000002834      0x680 ../../../../../../Library/Bluetooth_LE/library/libbluenrg1_stack.a(gatt_client.o)
 .comment       0x0000000000002eb4      0x680 ../../../../../../Library/Bluetooth_LE/library/libbluenrg1_stack.a(gatt_server.o)
 .comment       0x0000000000003534      0x648 ../../../../../../Library/Bluetooth_LE/library/libbluenrg1_stack.a(hal.o)
 .comment       0x0000000000003b7c      0x658 ../../../../../../Library/Bluetooth_LE/library/libbluenrg1_stack.a(hci.o)
 .comment       0x00000000000041d4      0x688 ../../../../../../Library/Bluetooth_LE/library/libbluenrg1_stack.a(hci_privacy.o)
 .comment       0x000000000000485c      0x67c ../../../../../../Library/Bluetooth_LE/library/libbluenrg1_stack.a(host_timer.o)
 .comment       0x0000000000004ed8      0x660 ../../../../../../Library/Bluetooth_LE/library/libbluenrg1_stack.a(l2cap.o)
 .comment       0x0000000000005538      0x670 ../../../../../../Library/Bluetooth_LE/library/libbluenrg1_stack.a(ll_isr.o)
 .comment       0x0000000000005ba8      0x688 ../../../../../../Library/Bluetooth_LE/library/libbluenrg1_stack.a(ll_privacy.o)
 .comment       0x0000000000006230      0x688 ../../../../../../Library/Bluetooth_LE/library/libbluenrg1_stack.a(ll_routines.o)
 .comment       0x00000000000068b8      0x6b0 ../../../../../../Library/Bluetooth_LE/library/libbluenrg1_stack.a(ll_routines_master.o)
 .comment       0x0000000000006f68      0x6b8 ../../../../../../Library/Bluetooth_LE/library/libbluenrg1_stack.a(ll_routines_support.o)
 .comment       0x0000000000007620      0x678 ../../../../../../Library/Bluetooth_LE/library/libbluenrg1_stack.a(mem_alloc.o)
 .comment       0x0000000000007c98      0x678 ../../../../../../Library/Bluetooth_LE/library/libbluenrg1_stack.a(mem_buff.o)
 .comment       0x0000000000008310      0x6ac ../../../../../../Library/Bluetooth_LE/library/libbluenrg1_stack.a(multi_master_time.o)
 .comment       0x00000000000089bc      0x648 ../../../../../../Library/Bluetooth_LE/library/libbluenrg1_stack.a(nvm.o)
 .comment       0x0000000000009004      0x648 ../../../../../../Library/Bluetooth_LE/library/libbluenrg1_stack.a(pka.o)
 .comment       0x000000000000964c      0x64c ../../../../../../Library/Bluetooth_LE/library/libbluenrg1_stack.a(pm.o)
 .comment       0x0000000000009c98      0x664 ../../../../../../Library/Bluetooth_LE/library/libbluenrg1_stack.a(rom_att.o)
 .comment       0x000000000000a2fc      0x668 ../../../../../../Library/Bluetooth_LE/library/libbluenrg1_stack.a(rom_gap.o)
 .comment       0x000000000000a964      0x67c ../../../../../../Library/Bluetooth_LE/library/libbluenrg1_stack.a(rom_gap_rom.o)
 .comment       0x000000000000afe0      0x698 ../../../../../../Library/Bluetooth_LE/library/libbluenrg1_stack.a(rom_gatt_server.o)
 .comment       0x000000000000b678      0x664 ../../../../../../Library/Bluetooth_LE/library/libbluenrg1_stack.a(rom_list.o)
 .comment       0x000000000000bcdc      0x6b0 ../../../../../../Library/Bluetooth_LE/library/libbluenrg1_stack.a(rom_ll_isr_postproc.o)
 .comment       0x000000000000c38c      0x6ac ../../../../../../Library/Bluetooth_LE/library/libbluenrg1_stack.a(rom_ll_isr_routines.o)
 .comment       0x000000000000ca38      0x6a8 ../../../../../../Library/Bluetooth_LE/library/libbluenrg1_stack.a(rom_ll_ll_routines.o)
 .comment       0x000000000000d0e0      0x6d0 ../../../../../../Library/Bluetooth_LE/library/libbluenrg1_stack.a(rom_ll_ll_routines_master.o)
 .comment       0x000000000000d7b0      0x6c8 ../../../../../../Library/Bluetooth_LE/library/libbluenrg1_stack.a(rom_ll_routines_support.o)
 .comment       0x000000000000de78      0x6b0 ../../../../../../Library/Bluetooth_LE/library/libbluenrg1_stack.a(rom_ll_timehandling.o)
 .comment       0x000000000000e528      0x6a4 ../../../../../../Library/Bluetooth_LE/library/libbluenrg1_stack.a(routines_support.o)
 .comment       0x000000000000ebcc      0x654 ../../../../../../Library/Bluetooth_LE/library/libbluenrg1_stack.a(sdb.o)
 .comment       0x000000000000f220      0x684 ../../../../../../Library/Bluetooth_LE/library/libbluenrg1_stack.a(securitymgr.o)
 .comment       0x000000000000f8a4      0x68c ../../../../../../Library/Bluetooth_LE/library/libbluenrg1_stack.a(smp_algo_sap.o)
 .comment       0x000000000000ff30      0x680 ../../../../../../Library/Bluetooth_LE/library/libbluenrg1_stack.a(smp_common.o)
 .comment       0x00000000000105b0      0x690 ../../../../../../Library/Bluetooth_LE/library/libbluenrg1_stack.a(smp_scv42_api.o)
 .comment       0x0000000000010c40      0x690 ../../../../../../Library/Bluetooth_LE/library/libbluenrg1_stack.a(smp_scv42_caf.o)
 .comment       0x00000000000112d0      0x690 ../../../../../../Library/Bluetooth_LE/library/libbluenrg1_stack.a(smp_scv42_sap.o)
 .comment       0x0000000000011960      0x654 ../../../../../../Library/Bluetooth_LE/library/libbluenrg1_stack.a(utils.o)
 .comment       0x0000000000011fb4      0x684 ../../../../../../Library/Bluetooth_LE/library/libbluenrg1_stack.a(aci_events.o)
 .comment       0x0000000000012638      0x654 ../../../../../../Library/Bluetooth_LE/library/libbluenrg1_stack.a(acl.o)
 .comment       0x0000000000012c8c      0x670 ../../../../../../Library/Bluetooth_LE/library/libbluenrg1_stack.a(acl_list.o)
 .comment       0x00000000000132fc      0x6b8 ../../../../../../Library/Bluetooth_LE/library/libbluenrg1_stack.a(advance_wakeup_time.o)
 .comment       0x00000000000139b4      0x48f ../../../../../../Library/Bluetooth_LE/library/libbluenrg1_stack.a(aes128cmac.o)
 .comment       0x0000000000013e43      0x650 ../../../../../../Library/Bluetooth_LE/library/libbluenrg1_stack.a(att.o)
 .comment       0x0000000000014493      0x6d4 ../../../../../../Library/Bluetooth_LE/library/libbluenrg1_stack.a(bluenrg_main_func_speed.o)
 .comment       0x0000000000014b67      0x694 ../../../../../../Library/Bluetooth_LE/library/libbluenrg1_stack.a(device_id_data.o)
 .comment       0x00000000000151fb      0x68c ../../../../../../Library/Bluetooth_LE/library/libbluenrg1_stack.a(isr_postproc.o)
 .comment       0x0000000000015887      0x68c ../../../../../../Library/Bluetooth_LE/library/libbluenrg1_stack.a(isr_routines.o)
 .comment       0x0000000000015f13      0x1bf ../../../../../../Library/cryptolib/libcrypto.a(crypto.o)

.arm_vfe_header
                0x0000000000000000       0xdc
 .arm_vfe_header
                0x0000000000000000        0x4 ../../../../../../Library/Bluetooth_LE/library/libbluenrg1_stack.a(bluenrg_gap_aci.o)
 .arm_vfe_header
                0x0000000000000004        0x4 ../../../../../../Library/Bluetooth_LE/library/libbluenrg1_stack.a(bluenrg_gatt_aci.o)
 .arm_vfe_header
                0x0000000000000008        0x4 ../../../../../../Library/Bluetooth_LE/library/libbluenrg1_stack.a(bluenrg_hal_aci.o)
 .arm_vfe_header
                0x000000000000000c        0x4 ../../../../../../Library/Bluetooth_LE/library/libbluenrg1_stack.a(bluenrg_l2cap_aci.o)
 .arm_vfe_header
                0x0000000000000010        0x4 ../../../../../../Library/Bluetooth_LE/library/libbluenrg1_stack.a(bluenrg_main_func.o)
 .arm_vfe_header
                0x0000000000000014        0x4 ../../../../../../Library/Bluetooth_LE/library/libbluenrg1_stack.a(gap.o)
 .arm_vfe_header
                0x0000000000000018        0x4 ../../../../../../Library/Bluetooth_LE/library/libbluenrg1_stack.a(gatt_client.o)
 .arm_vfe_header
                0x000000000000001c        0x4 ../../../../../../Library/Bluetooth_LE/library/libbluenrg1_stack.a(gatt_server.o)
 .arm_vfe_header
                0x0000000000000020        0x4 ../../../../../../Library/Bluetooth_LE/library/libbluenrg1_stack.a(hal.o)
 .arm_vfe_header
                0x0000000000000024        0x4 ../../../../../../Library/Bluetooth_LE/library/libbluenrg1_stack.a(hci.o)
 .arm_vfe_header
                0x0000000000000028        0x4 ../../../../../../Library/Bluetooth_LE/library/libbluenrg1_stack.a(hci_privacy.o)
 .arm_vfe_header
                0x000000000000002c        0x4 ../../../../../../Library/Bluetooth_LE/library/libbluenrg1_stack.a(host_timer.o)
 .arm_vfe_header
                0x0000000000000030        0x4 ../../../../../../Library/Bluetooth_LE/library/libbluenrg1_stack.a(l2cap.o)
 .arm_vfe_header
                0x0000000000000034        0x4 ../../../../../../Library/Bluetooth_LE/library/libbluenrg1_stack.a(ll_isr.o)
 .arm_vfe_header
                0x0000000000000038        0x4 ../../../../../../Library/Bluetooth_LE/library/libbluenrg1_stack.a(ll_privacy.o)
 .arm_vfe_header
                0x000000000000003c        0x4 ../../../../../../Library/Bluetooth_LE/library/libbluenrg1_stack.a(ll_routines.o)
 .arm_vfe_header
                0x0000000000000040        0x4 ../../../../../../Library/Bluetooth_LE/library/libbluenrg1_stack.a(ll_routines_master.o)
 .arm_vfe_header
                0x0000000000000044        0x4 ../../../../../../Library/Bluetooth_LE/library/libbluenrg1_stack.a(ll_routines_support.o)
 .arm_vfe_header
                0x0000000000000048        0x4 ../../../../../../Library/Bluetooth_LE/library/libbluenrg1_stack.a(mem_alloc.o)
 .arm_vfe_header
                0x000000000000004c        0x4 ../../../../../../Library/Bluetooth_LE/library/libbluenrg1_stack.a(mem_buff.o)
 .arm_vfe_header
                0x0000000000000050        0x4 ../../../../../../Library/Bluetooth_LE/library/libbluenrg1_stack.a(multi_master_time.o)
 .arm_vfe_header
                0x0000000000000054        0x4 ../../../../../../Library/Bluetooth_LE/library/libbluenrg1_stack.a(nvm.o)
 .arm_vfe_header
                0x0000000000000058        0x4 ../../../../../../Library/Bluetooth_LE/library/libbluenrg1_stack.a(pka.o)
 .arm_vfe_header
                0x000000000000005c        0x4 ../../../../../../Library/Bluetooth_LE/library/libbluenrg1_stack.a(pm.o)
 .arm_vfe_header
                0x0000000000000060        0x4 ../../../../../../Library/Bluetooth_LE/library/libbluenrg1_stack.a(rom_att.o)
 .arm_vfe_header
                0x0000000000000064        0x4 ../../../../../../Library/Bluetooth_LE/library/libbluenrg1_stack.a(rom_gap.o)
 .arm_vfe_header
                0x0000000000000068        0x4 ../../../../../../Library/Bluetooth_LE/library/libbluenrg1_stack.a(rom_gap_rom.o)
 .arm_vfe_header
                0x000000000000006c        0x4 ../../../../../../Library/Bluetooth_LE/library/libbluenrg1_stack.a(rom_gatt_server.o)
 .arm_vfe_header
                0x0000000000000070        0x4 ../../../../../../Library/Bluetooth_LE/library/libbluenrg1_stack.a(rom_list.o)
 .arm_vfe_header
                0x0000000000000074        0x4 ../../../../../../Library/Bluetooth_LE/library/libbluenrg1_stack.a(rom_ll_isr_postproc.o)
 .arm_vfe_header
                0x0000000000000078        0x4 ../../../../../../Library/Bluetooth_LE/library/libbluenrg1_stack.a(rom_ll_isr_routines.o)
 .arm_vfe_header
                0x000000000000007c        0x4 ../../../../../../Library/Bluetooth_LE/library/libbluenrg1_stack.a(rom_ll_ll_routines.o)
 .arm_vfe_header
                0x0000000000000080        0x4 ../../../../../../Library/Bluetooth_LE/library/libbluenrg1_stack.a(rom_ll_ll_routines_master.o)
 .arm_vfe_header
                0x0000000000000084        0x4 ../../../../../../Library/Bluetooth_LE/library/libbluenrg1_stack.a(rom_ll_routines_support.o)
 .arm_vfe_header
                0x0000000000000088        0x4 ../../../../../../Library/Bluetooth_LE/library/libbluenrg1_stack.a(rom_ll_timehandling.o)
 .arm_vfe_header
                0x000000000000008c        0x4 ../../../../../../Library/Bluetooth_LE/library/libbluenrg1_stack.a(routines_support.o)
 .arm_vfe_header
                0x0000000000000090        0x4 ../../../../../../Library/Bluetooth_LE/library/libbluenrg1_stack.a(sdb.o)
 .arm_vfe_header
                0x0000000000000094        0x4 ../../../../../../Library/Bluetooth_LE/library/libbluenrg1_stack.a(securitymgr.o)
 .arm_vfe_header
                0x0000000000000098        0x4 ../../../../../../Library/Bluetooth_LE/library/libbluenrg1_stack.a(smp_algo_sap.o)
 .arm_vfe_header
                0x000000000000009c        0x4 ../../../../../../Library/Bluetooth_LE/library/libbluenrg1_stack.a(smp_common.o)
 .arm_vfe_header
                0x00000000000000a0        0x4 ../../../../../../Library/Bluetooth_LE/library/libbluenrg1_stack.a(smp_scv42_api.o)
 .arm_vfe_header
                0x00000000000000a4        0x4 ../../../../../../Library/Bluetooth_LE/library/libbluenrg1_stack.a(smp_scv42_caf.o)
 .arm_vfe_header
                0x00000000000000a8        0x4 ../../../../../../Library/Bluetooth_LE/library/libbluenrg1_stack.a(smp_scv42_sap.o)
 .arm_vfe_header
                0x00000000000000ac        0x4 ../../../../../../Library/Bluetooth_LE/library/libbluenrg1_stack.a(utils.o)
 .arm_vfe_header
                0x00000000000000b0        0x4 ../../../../../../Library/Bluetooth_LE/library/libbluenrg1_stack.a(aci_events.o)
 .arm_vfe_header
                0x00000000000000b4        0x4 ../../../../../../Library/Bluetooth_LE/library/libbluenrg1_stack.a(acl.o)
 .arm_vfe_header
                0x00000000000000b8        0x4 ../../../../../../Library/Bluetooth_LE/library/libbluenrg1_stack.a(acl_list.o)
 .arm_vfe_header
                0x00000000000000bc        0x4 ../../../../../../Library/Bluetooth_LE/library/libbluenrg1_stack.a(advance_wakeup_time.o)
 .arm_vfe_header
                0x00000000000000c0        0x4 ../../../../../../Library/Bluetooth_LE/library/libbluenrg1_stack.a(aes128cmac.o)
 .arm_vfe_header
                0x00000000000000c4        0x4 ../../../../../../Library/Bluetooth_LE/library/libbluenrg1_stack.a(att.o)
 .arm_vfe_header
                0x00000000000000c8        0x4 ../../../../../../Library/Bluetooth_LE/library/libbluenrg1_stack.a(bluenrg_main_func_speed.o)
 .arm_vfe_header
                0x00000000000000cc        0x4 ../../../../../../Library/Bluetooth_LE/library/libbluenrg1_stack.a(device_id_data.o)
 .arm_vfe_header
                0x00000000000000d0        0x4 ../../../../../../Library/Bluetooth_LE/library/libbluenrg1_stack.a(isr_postproc.o)
 .arm_vfe_header
                0x00000000000000d4        0x4 ../../../../../../Library/Bluetooth_LE/library/libbluenrg1_stack.a(isr_routines.o)
 .arm_vfe_header
                0x00000000000000d8        0x4 ../../../../../../Library/cryptolib/libcrypto.a(crypto.o)

.debug_frame    0x0000000000000000     0x3658
 .debug_frame   0x0000000000000000      0x150 Hal/fifo.o
 .debug_frame   0x0000000000000150       0x74 Hal/miscutil.o
 .debug_frame   0x00000000000001c4       0x58 Hal/osal.o
 .debug_frame   0x000000000000021c       0x74 Hal/sleep.o
 .debug_frame   0x0000000000000290       0xb8 Library/BlueNRG1_dma.o
 .debug_frame   0x0000000000000348      0x110 Library/BlueNRG1_flash.o
 .debug_frame   0x0000000000000458      0x134 Library/BlueNRG1_gpio.o
 .debug_frame   0x000000000000058c       0xd8 Library/BlueNRG1_pka.o
 .debug_frame   0x0000000000000664       0x60 Library/BlueNRG1_sysCtrl.o
 .debug_frame   0x00000000000006c4      0x1e8 Library/BlueNRG1_uart.o
 .debug_frame   0x00000000000008ac       0xa0 Library/BlueNRG1_wdg.o
 .debug_frame   0x000000000000094c       0x50 Library/misc.o
 .debug_frame   0x000000000000099c      0x88c Stack/stack_user_cfg.o
 .debug_frame   0x0000000000001228      0x248 Startup/system_bluenrg1.o
 .debug_frame   0x0000000000001470       0x9c User/BlueNRG1_it.o
 .debug_frame   0x000000000000150c       0x4c User/DTM_boot.o
 .debug_frame   0x0000000000001558     0x1898 User/DTM_cmd_db.o
 .debug_frame   0x0000000000002df0       0x60 User/DTM_cmds.o
 .debug_frame   0x0000000000002e50       0x2c User/DTM_main.o
 .debug_frame   0x0000000000002e7c       0x28 User/cmd.o
 .debug_frame   0x0000000000002ea4       0x4c User/hci_parser.o
 .debug_frame   0x0000000000002ef0      0x1c8 User/hw_config.o
 .debug_frame   0x00000000000030b8       0xec User/transport_layer.o
 .debug_frame   0x00000000000031a4       0x4c ../../../../../../Library/cryptolib/libcrypto.a(crypto.o)
 .debug_frame   0x00000000000031f0       0x4c ../../../../../../Library/cryptolib/libcrypto.a(crypto.o)
 .debug_frame   0x000000000000323c       0x54 ../../../../../../Library/cryptolib/libcrypto.a(crypto.o)
 .debug_frame   0x0000000000003290       0x44 ../../../../../../Library/cryptolib/libcrypto.a(crypto.o)
 .debug_frame   0x00000000000032d4       0x54 ../../../../../../Library/cryptolib/libcrypto.a(crypto.o)
 .debug_frame   0x0000000000003328       0x4c ../../../../../../Library/cryptolib/libcrypto.a(crypto.o)
 .debug_frame   0x0000000000003374       0x44 ../../../../../../Library/cryptolib/libcrypto.a(crypto.o)
 .debug_frame   0x00000000000033b8       0x44 ../../../../../../Library/cryptolib/libcrypto.a(crypto.o)
 .debug_frame   0x00000000000033fc       0x54 ../../../../../../Library/cryptolib/libcrypto.a(crypto.o)
 .debug_frame   0x0000000000003450       0x3c ../../../../../../Library/cryptolib/libcrypto.a(crypto.o)
 .debug_frame   0x000000000000348c       0x44 ../../../../../../Library/cryptolib/libcrypto.a(crypto.o)
 .debug_frame   0x00000000000034d0       0x4c ../../../../../../Library/cryptolib/libcrypto.a(crypto.o)
 .debug_frame   0x000000000000351c       0x28 /opt/Atollic_TrueSTUDIO_for_STM32_x86_64_9.3.0/ARMTools/bin/../lib/gcc/arm-atollic-eabi/6.3.1/../../../../arm-atollic-eabi/lib/armv6-m/libc_nano.a(lib_a-aeabi_memclr.o)
 .debug_frame   0x0000000000003544       0x28 /opt/Atollic_TrueSTUDIO_for_STM32_x86_64_9.3.0/ARMTools/bin/../lib/gcc/arm-atollic-eabi/6.3.1/../../../../arm-atollic-eabi/lib/armv6-m/libc_nano.a(lib_a-aeabi_memcpy.o)
 .debug_frame   0x000000000000356c       0x28 /opt/Atollic_TrueSTUDIO_for_STM32_x86_64_9.3.0/ARMTools/bin/../lib/gcc/arm-atollic-eabi/6.3.1/../../../../arm-atollic-eabi/lib/armv6-m/libc_nano.a(lib_a-aeabi_memmove.o)
 .debug_frame   0x0000000000003594       0x28 /opt/Atollic_TrueSTUDIO_for_STM32_x86_64_9.3.0/ARMTools/bin/../lib/gcc/arm-atollic-eabi/6.3.1/../../../../arm-atollic-eabi/lib/armv6-m/libc_nano.a(lib_a-aeabi_memset.o)
 .debug_frame   0x00000000000035bc       0x2c /opt/Atollic_TrueSTUDIO_for_STM32_x86_64_9.3.0/ARMTools/bin/../lib/gcc/arm-atollic-eabi/6.3.1/../../../../arm-atollic-eabi/lib/armv6-m/libc_nano.a(lib_a-memcmp.o)
 .debug_frame   0x00000000000035e8       0x28 /opt/Atollic_TrueSTUDIO_for_STM32_x86_64_9.3.0/ARMTools/bin/../lib/gcc/arm-atollic-eabi/6.3.1/../../../../arm-atollic-eabi/lib/armv6-m/libc_nano.a(lib_a-memcpy-stub.o)
 .debug_frame   0x0000000000003610       0x28 /opt/Atollic_TrueSTUDIO_for_STM32_x86_64_9.3.0/ARMTools/bin/../lib/gcc/arm-atollic-eabi/6.3.1/../../../../arm-atollic-eabi/lib/armv6-m/libc_nano.a(lib_a-memmove.o)
 .debug_frame   0x0000000000003638       0x20 /opt/Atollic_TrueSTUDIO_for_STM32_x86_64_9.3.0/ARMTools/bin/../lib/gcc/arm-atollic-eabi/6.3.1/../../../../arm-atollic-eabi/lib/armv6-m/libc_nano.a(lib_a-memset.o)

Cross Reference Table

Symbol                                            File
ADC_AutoOffsetUpdate                              Library/BlueNRG1_adc.o
ADC_Calibration                                   Library/BlueNRG1_adc.o
ADC_Cmd                                           Library/BlueNRG1_adc.o
ADC_CompensateOutputValue                         Library/BlueNRG1_adc.o
ADC_ConversionMode                                Library/BlueNRG1_adc.o
ADC_ConvertBatterySensor                          Library/BlueNRG1_adc.o
ADC_ConvertDifferentialVoltage                    Library/BlueNRG1_adc.o
ADC_ConvertSingleEndedVoltage                     Library/BlueNRG1_adc.o
ADC_ConvertTemperatureSensor                      Library/BlueNRG1_adc.o
ADC_ConvertTemperatureSensorFarenait              Library/BlueNRG1_adc.o
ADC_DeInit                                        Library/BlueNRG1_adc.o
ADC_DmaCmd                                        Library/BlueNRG1_adc.o
ADC_Filter                                        Library/BlueNRG1_adc.o
ADC_GetConvertedData                              Library/BlueNRG1_adc.o
ADC_GetFlagStatus                                 Library/BlueNRG1_adc.o
ADC_GetFlags                                      Library/BlueNRG1_adc.o
ADC_GetITStatus                                   Library/BlueNRG1_adc.o
ADC_GetOffset                                     Library/BlueNRG1_adc.o
ADC_GetRawData                                    Library/BlueNRG1_adc.o
ADC_Handler                                       Startup/system_bluenrg1.o
ADC_ITConfig                                      Library/BlueNRG1_adc.o
ADC_Init                                          Library/BlueNRG1_adc.o
ADC_SelectFrequencyMic                            Library/BlueNRG1_adc.o
ADC_SelectInput                                   Library/BlueNRG1_adc.o
ADC_SetOffset                                     Library/BlueNRG1_adc.o
ADC_StructInit                                    Library/BlueNRG1_adc.o
ADC_SwCalibration                                 Library/BlueNRG1_adc.o
ADC_ThresholdCheck                                Library/BlueNRG1_adc.o
ADC_ThresholdConfig                               Library/BlueNRG1_adc.o
AES128ECB_Wrapper                                 ../../../../../../Library/Bluetooth_LE/library/libbluenrg1_stack.a(aes128cmac.o)
                                                  ../../../../../../Library/Bluetooth_LE/library/libbluenrg1_stack.a(ll_routines_support.o)
AES_CMAC_Decrypt_Append                           ../../../../../../Library/cryptolib/libcrypto.a(crypto.o)
AES_CMAC_Decrypt_Finish                           ../../../../../../Library/cryptolib/libcrypto.a(crypto.o)
AES_CMAC_Decrypt_Init                             ../../../../../../Library/cryptolib/libcrypto.a(crypto.o)
AES_CMAC_Encrypt                                  ../../../../../../Library/Bluetooth_LE/library/libbluenrg1_stack.a(aes128cmac.o)
                                                  ../../../../../../Library/Bluetooth_LE/library/libbluenrg1_stack.a(smp_algo_sap.o)
AES_CMAC_Encrypt_Append                           ../../../../../../Library/cryptolib/libcrypto.a(crypto.o)
                                                  ../../../../../../Library/Bluetooth_LE/library/libbluenrg1_stack.a(aes128cmac.o)
AES_CMAC_Encrypt_Finish                           ../../../../../../Library/cryptolib/libcrypto.a(crypto.o)
                                                  ../../../../../../Library/Bluetooth_LE/library/libbluenrg1_stack.a(aes128cmac.o)
AES_CMAC_Encrypt_Init                             ../../../../../../Library/cryptolib/libcrypto.a(crypto.o)
                                                  ../../../../../../Library/Bluetooth_LE/library/libbluenrg1_stack.a(aes128cmac.o)
AES_general_SW_enc                                ../../../../../../Library/cryptolib/libcrypto.a(crypto.o)
                                                  ../../../../../../Library/Bluetooth_LE/library/libbluenrg1_stack.a(aes128cmac.o)
AES_keyschedule_enc                               ../../../../../../Library/cryptolib/libcrypto.a(crypto.o)
                                                  ../../../../../../Library/Bluetooth_LE/library/libbluenrg1_stack.a(aes128cmac.o)
ATT_fill_error_resp                               ../../../../../../Library/Bluetooth_LE/library/libbluenrg1_stack.a(att.o)
                                                  ../../../../../../Library/Bluetooth_LE/library/libbluenrg1_stack.a(gatt_server.o)
ATT_fill_exchg_mtu_req                            ../../../../../../Library/Bluetooth_LE/library/libbluenrg1_stack.a(rom_att.o)
                                                  ../../../../../../Library/Bluetooth_LE/library/libbluenrg1_stack.a(gatt_client.o)
Accu_Handles_Requiring_Auth                       ../../../../../../Library/Bluetooth_LE/library/libbluenrg1_stack.a(rom_att.o)
                                                  ../../../../../../Library/Bluetooth_LE/library/libbluenrg1_stack.a(att.o)
Accu_UuidTypes_Requiring_Auth                     ../../../../../../Library/Bluetooth_LE/library/libbluenrg1_stack.a(rom_att.o)
                                                  ../../../../../../Library/Bluetooth_LE/library/libbluenrg1_stack.a(att.o)
Acl_Get_Queue_Limit                               ../../../../../../Library/Bluetooth_LE/library/libbluenrg1_stack.a(acl.o)
Acl_Init                                          ../../../../../../Library/Bluetooth_LE/library/libbluenrg1_stack.a(acl.o)
                                                  ../../../../../../Library/Bluetooth_LE/library/libbluenrg1_stack.a(bluenrg_main_func.o)
Acl_Rcv_Pkt_Handler                               ../../../../../../Library/Bluetooth_LE/library/libbluenrg1_stack.a(acl.o)
                                                  ../../../../../../Library/Bluetooth_LE/library/libbluenrg1_stack.a(ll_routines_master.o)
Acl_Set_Queue_Limit                               ../../../../../../Library/Bluetooth_LE/library/libbluenrg1_stack.a(acl.o)
Acl_Transmit_Data                                 ../../../../../../Library/Bluetooth_LE/library/libbluenrg1_stack.a(acl.o)
                                                  ../../../../../../Library/Bluetooth_LE/library/libbluenrg1_stack.a(l2cap.o)
                                                  ../../../../../../Library/Bluetooth_LE/library/libbluenrg1_stack.a(hci.o)
Acl_Tx_Cmpl_Pkt_Handler                           ../../../../../../Library/Bluetooth_LE/library/libbluenrg1_stack.a(acl.o)
                                                  ../../../../../../Library/Bluetooth_LE/library/libbluenrg1_stack.a(ll_routines_master.o)
App_SleepMode_Check                               User/transport_layer.o
                                                  Hal/sleep.o
Att_Check_Perms                                   ../../../../../../Library/Bluetooth_LE/library/libbluenrg1_stack.a(att.o)
                                                  ../../../../../../Library/Bluetooth_LE/library/libbluenrg1_stack.a(gatt_server.o)
Att_Send_Confirmation_Pdu                         ../../../../../../Library/Bluetooth_LE/library/libbluenrg1_stack.a(rom_att.o)
                                                  ../../../../../../Library/Bluetooth_LE/library/libbluenrg1_stack.a(gatt_client.o)
Att_Send_Exec_Write_Req_Pdu                       ../../../../../../Library/Bluetooth_LE/library/libbluenrg1_stack.a(rom_att.o)
                                                  ../../../../../../Library/Bluetooth_LE/library/libbluenrg1_stack.a(gatt_client.o)
Att_Send_Find_By_Typ_Val_Req_Pdu                  ../../../../../../Library/Bluetooth_LE/library/libbluenrg1_stack.a(rom_att.o)
                                                  ../../../../../../Library/Bluetooth_LE/library/libbluenrg1_stack.a(gatt_client.o)
Att_Send_Find_Info_Req_Pdu                        ../../../../../../Library/Bluetooth_LE/library/libbluenrg1_stack.a(rom_att.o)
                                                  ../../../../../../Library/Bluetooth_LE/library/libbluenrg1_stack.a(gatt_client.o)
Att_Send_Prp_Write_Req_Pdu                        ../../../../../../Library/Bluetooth_LE/library/libbluenrg1_stack.a(rom_att.o)
                                                  ../../../../../../Library/Bluetooth_LE/library/libbluenrg1_stack.a(gatt_client.o)
Att_Send_Read_Blob_Req_Pdu                        ../../../../../../Library/Bluetooth_LE/library/libbluenrg1_stack.a(rom_att.o)
                                                  ../../../../../../Library/Bluetooth_LE/library/libbluenrg1_stack.a(gatt_client.o)
Att_Send_Read_By_Grp_Typ_Req_Pdu                  ../../../../../../Library/Bluetooth_LE/library/libbluenrg1_stack.a(rom_att.o)
                                                  ../../../../../../Library/Bluetooth_LE/library/libbluenrg1_stack.a(gatt_client.o)
Att_Send_Read_By_Typ_Req_Pdu                      ../../../../../../Library/Bluetooth_LE/library/libbluenrg1_stack.a(rom_att.o)
                                                  ../../../../../../Library/Bluetooth_LE/library/libbluenrg1_stack.a(gatt_client.o)
Att_Send_Read_Multi_Req_Pdu                       ../../../../../../Library/Bluetooth_LE/library/libbluenrg1_stack.a(rom_att.o)
                                                  ../../../../../../Library/Bluetooth_LE/library/libbluenrg1_stack.a(gatt_client.o)
Att_Send_Read_Req_Pdu                             ../../../../../../Library/Bluetooth_LE/library/libbluenrg1_stack.a(rom_att.o)
                                                  ../../../../../../Library/Bluetooth_LE/library/libbluenrg1_stack.a(gatt_client.o)
Att_Send_Signd_Write_Cmd_Pdu                      ../../../../../../Library/Bluetooth_LE/library/libbluenrg1_stack.a(rom_att.o)
                                                  ../../../../../../Library/Bluetooth_LE/library/libbluenrg1_stack.a(gatt_client.o)
Att_Send_Write_Cmd_Pdu                            ../../../../../../Library/Bluetooth_LE/library/libbluenrg1_stack.a(rom_att.o)
                                                  ../../../../../../Library/Bluetooth_LE/library/libbluenrg1_stack.a(gatt_client.o)
Att_Send_Write_Req_Pdu                            ../../../../../../Library/Bluetooth_LE/library/libbluenrg1_stack.a(rom_att.o)
                                                  ../../../../../../Library/Bluetooth_LE/library/libbluenrg1_stack.a(gatt_client.o)
BLEPLAT_PKA_Get_Current_Operation                 ../../../../../../Library/Bluetooth_LE/library/libbluenrg1_stack.a(pka.o)
                                                  ../../../../../../Library/Bluetooth_LE/library/libbluenrg1_stack.a(hci.o)
BLEPLAT_PKA_Start_P256_DHKey_Generation           ../../../../../../Library/Bluetooth_LE/library/libbluenrg1_stack.a(pka.o)
                                                  ../../../../../../Library/Bluetooth_LE/library/libbluenrg1_stack.a(hci.o)
BLEPLAT_PKA_Start_P256_Public_Key_Generation      ../../../../../../Library/Bluetooth_LE/library/libbluenrg1_stack.a(pka.o)
                                                  ../../../../../../Library/Bluetooth_LE/library/libbluenrg1_stack.a(hci.o)
BLEPLAT_get_part_info                             Hal/miscutil.o
                                                  ../../../../../../Library/Bluetooth_LE/library/libbluenrg1_stack.a(bluenrg_main_func.o)
BOR_ConfigSave                                    Startup/system_bluenrg1.o
                                                  User/DTM_boot.o
BOR_config                                        Startup/system_bluenrg1.o
BTLE_StackTick                                    ../../../../../../Library/Bluetooth_LE/library/libbluenrg1_stack.a(bluenrg_main_func.o)
                                                  User/DTM_main.o
BlueNRG_Sleep                                     Hal/sleep.o
                                                  User/DTM_main.o
BlueNRG_Stack_Init_params                         User/DTM_boot.o
BlueNRG_Stack_Initialization                      ../../../../../../Library/Bluetooth_LE/library/libbluenrg1_stack.a(bluenrg_main_func.o)
                                                  User/DTM_boot.o
BlueNRG_Stack_Perform_Deep_Sleep_Check            ../../../../../../Library/Bluetooth_LE/library/libbluenrg1_stack.a(bluenrg_main_func_speed.o)
                                                  Hal/sleep.o
BlueNRG_WakeupSource                              Hal/sleep.o
Blue_Handler                                      User/BlueNRG1_it.o
                                                  Startup/system_bluenrg1.o
Blue_Init_Global                                  ../../../../../../Library/Bluetooth_LE/library/libbluenrg1_stack.a(routines_support.o)
                                                  ../../../../../../Library/Bluetooth_LE/library/libbluenrg1_stack.a(rom_ll_ll_routines.o)
Blue_Set_Radio_Config_Data                        ../../../../../../Library/Bluetooth_LE/library/libbluenrg1_stack.a(rom_ll_routines_support.o)
                                                  ../../../../../../Library/Bluetooth_LE/library/libbluenrg1_stack.a(routines_support.o)
Build_Notif_Or_Ind                                ../../../../../../Library/Bluetooth_LE/library/libbluenrg1_stack.a(gatt_server.o)
CS_contextRestore                                 Hal/context_switch.o
                                                  Startup/system_bluenrg1.o
CS_contextSave                                    Hal/context_switch.o
                                                  Hal/sleep.o
CheckSecForSignedWrite                            ../../../../../../Library/Bluetooth_LE/library/libbluenrg1_stack.a(att.o)
Check_Encry_Key_Size                              ../../../../../../Library/Bluetooth_LE/library/libbluenrg1_stack.a(rom_gatt_server.o)
                                                  ../../../../../../Library/Bluetooth_LE/library/libbluenrg1_stack.a(gatt_server.o)
Check_For_Service_Change                          ../../../../../../Library/Bluetooth_LE/library/libbluenrg1_stack.a(gatt_server.o)
Check_Permission                                  ../../../../../../Library/Bluetooth_LE/library/libbluenrg1_stack.a(att.o)
Check_Serv_Chng_Charac_Ind_Not                    ../../../../../../Library/Bluetooth_LE/library/libbluenrg1_stack.a(rom_gatt_server.o)
Check_addr_Validity                               ../../../../../../Library/Bluetooth_LE/library/libbluenrg1_stack.a(rom_gap_rom.o)
Controller_Process_Q                              ../../../../../../Library/Bluetooth_LE/library/libbluenrg1_stack.a(hci.o)
                                                  ../../../../../../Library/Bluetooth_LE/library/libbluenrg1_stack.a(bluenrg_main_func.o)
Crypto_DeInit                                     ../../../../../../Library/cryptolib/libcrypto.a(crypto.o)
DMA_ClearFlag                                     Library/BlueNRG1_dma.o
                                                  User/BlueNRG1_it.o
DMA_Cmd                                           Library/BlueNRG1_dma.o
                                                  User/hw_config.o
DMA_Configuration                                 User/hw_config.o
                                                  User/transport_layer.o
DMA_DeInit                                        Library/BlueNRG1_dma.o
DMA_FlagConfig                                    Library/BlueNRG1_dma.o
                                                  User/hw_config.o
DMA_GetCurrDataCounter                            Library/BlueNRG1_dma.o
DMA_GetFlagStatus                                 Library/BlueNRG1_dma.o
                                                  User/BlueNRG1_it.o
DMA_Handler                                       User/BlueNRG1_it.o
                                                  Startup/system_bluenrg1.o
DMA_Init                                          Library/BlueNRG1_dma.o
                                                  User/hw_config.o
DMA_Rearm                                         User/hw_config.o
                                                  User/transport_layer.o
DMA_SelectAdcChannel                              Library/BlueNRG1_dma.o
DMA_SetCurrDataCounter                            Library/BlueNRG1_dma.o
DMA_StructInit                                    Library/BlueNRG1_dma.o
                                                  User/hw_config.o
DTM_StackInit                                     User/DTM_boot.o
                                                  User/DTM_main.o
DTM_SystemInit                                    User/DTM_boot.o
                                                  User/DTM_main.o
Data_Len_Update_Offline_Processing                ../../../../../../Library/Bluetooth_LE/library/libbluenrg1_stack.a(ll_routines.o)
                                                  Stack/stack_user_cfg.o
Data_Len_Update_Offline_Processing_ucfg           Stack/stack_user_cfg.o
                                                  ../../../../../../Library/Bluetooth_LE/library/libbluenrg1_stack.a(hci.o)
Data_Length_Update_Control_ISR                    ../../../../../../Library/Bluetooth_LE/library/libbluenrg1_stack.a(ll_isr.o)
                                                  Stack/stack_user_cfg.o
Data_Length_Update_Control_ISR_ucfg               Stack/stack_user_cfg.o
Delay_With_NOP_Cycles                             ../../../../../../Library/Bluetooth_LE/library/libbluenrg1_stack.a(utils.o)
                                                  ../../../../../../Library/Bluetooth_LE/library/libbluenrg1_stack.a(sdb.o)
                                                  ../../../../../../Library/Bluetooth_LE/library/libbluenrg1_stack.a(rom_ll_routines_support.o)
DeviceConfiguration                               Startup/system_bluenrg1.o
                                                  Hal/sleep.o
Disconnection_Offline_Processing                  ../../../../../../Library/Bluetooth_LE/library/libbluenrg1_stack.a(ll_routines.o)
                                                  ../../../../../../Library/Bluetooth_LE/library/libbluenrg1_stack.a(hci.o)
Dynamic_allocator                                 ../../../../../../Library/Bluetooth_LE/library/libbluenrg1_stack.a(mem_alloc.o)
                                                  ../../../../../../Library/Bluetooth_LE/library/libbluenrg1_stack.a(bluenrg_main_func.o)
Dynamic_allocator_noRet                           ../../../../../../Library/Bluetooth_LE/library/libbluenrg1_stack.a(mem_alloc.o)
                                                  ../../../../../../Library/Bluetooth_LE/library/libbluenrg1_stack.a(bluenrg_main_func.o)
Events_Process_Q                                  ../../../../../../Library/Bluetooth_LE/library/libbluenrg1_stack.a(aci_events.o)
                                                  ../../../../../../Library/Bluetooth_LE/library/libbluenrg1_stack.a(bluenrg_main_func.o)
Events_Process_init                               ../../../../../../Library/Bluetooth_LE/library/libbluenrg1_stack.a(aci_events.o)
                                                  ../../../../../../Library/Bluetooth_LE/library/libbluenrg1_stack.a(bluenrg_main_func.o)
Exchg_Mtu_Resp                                    ../../../../../../Library/Bluetooth_LE/library/libbluenrg1_stack.a(att.o)
                                                  ../../../../../../Library/Bluetooth_LE/library/libbluenrg1_stack.a(gatt_server.o)
Exec_Write_Resp                                   ../../../../../../Library/Bluetooth_LE/library/libbluenrg1_stack.a(att.o)
                                                  ../../../../../../Library/Bluetooth_LE/library/libbluenrg1_stack.a(gatt_server.o)
FLASH_ClearCmdDone                                Library/BlueNRG1_flash.o
FLASH_ClearFlag                                   Library/BlueNRG1_flash.o
FLASH_ClearITPendingBit                           Library/BlueNRG1_flash.o
FLASH_EraseAllFlash                               Library/BlueNRG1_flash.o
FLASH_ErasePage                                   Library/BlueNRG1_flash.o
                                                  ../../../../../../Library/Bluetooth_LE/library/libbluenrg1_stack.a(sdb.o)
FLASH_GetFlagStatus                               Library/BlueNRG1_flash.o
FLASH_ITConfig                                    Library/BlueNRG1_flash.o
FLASH_Lock                                        Library/BlueNRG1_flash.o
FLASH_ProgramWord                                 Library/BlueNRG1_flash.o
                                                  ../../../../../../Library/Bluetooth_LE/library/libbluenrg1_stack.a(device_id_data.o)
                                                  ../../../../../../Library/Bluetooth_LE/library/libbluenrg1_stack.a(sdb.o)
                                                  ../../../../../../Library/Bluetooth_LE/library/libbluenrg1_stack.a(nvm.o)
                                                  ../../../../../../Library/Bluetooth_LE/library/libbluenrg1_stack.a(hal.o)
                                                  User/DTM_boot.o
FLASH_ProgramWordBurst                            Library/BlueNRG1_flash.o
FLASH_ReadByte                                    Library/BlueNRG1_flash.o
FLASH_ReadWord                                    Library/BlueNRG1_flash.o
FLASH_Unlock                                      Library/BlueNRG1_flash.o
FLASH_WaitCmdDone                                 Library/BlueNRG1_flash.o
Find_Attr_Index                                   ../../../../../../Library/Bluetooth_LE/library/libbluenrg1_stack.a(gatt_server.o)
                                                  ../../../../../../Library/Bluetooth_LE/library/libbluenrg1_stack.a(att.o)
Find_By_Type_Val_Resp                             ../../../../../../Library/Bluetooth_LE/library/libbluenrg1_stack.a(att.o)
                                                  ../../../../../../Library/Bluetooth_LE/library/libbluenrg1_stack.a(gatt_server.o)
Find_Gatt_Client                                  ../../../../../../Library/Bluetooth_LE/library/libbluenrg1_stack.a(gatt_client.o)
                                                  ../../../../../../Library/Bluetooth_LE/library/libbluenrg1_stack.a(gatt_server.o)
Find_Info_Resp                                    ../../../../../../Library/Bluetooth_LE/library/libbluenrg1_stack.a(att.o)
                                                  ../../../../../../Library/Bluetooth_LE/library/libbluenrg1_stack.a(gatt_server.o)
Find_Timed_Out_Connection                         ../../../../../../Library/Bluetooth_LE/library/libbluenrg1_stack.a(gatt_server.o)
Flash_Write_Flagged                               ../../../../../../Library/Bluetooth_LE/library/libbluenrg1_stack.a(nvm.o)
                                                  ../../../../../../Library/Bluetooth_LE/library/libbluenrg1_stack.a(sdb.o)
GAP_Add_To_WhiteList                              ../../../../../../Library/Bluetooth_LE/library/libbluenrg1_stack.a(rom_gap.o)
                                                  ../../../../../../Library/Bluetooth_LE/library/libbluenrg1_stack.a(gap.o)
GAP_Connection_Complete_Handler                   ../../../../../../Library/Bluetooth_LE/library/libbluenrg1_stack.a(gap.o)
GAP_Connection_Update                             ../../../../../../Library/Bluetooth_LE/library/libbluenrg1_stack.a(rom_gap.o)
                                                  ../../../../../../Library/Bluetooth_LE/library/libbluenrg1_stack.a(bluenrg_gap_aci.o)
GAP_Create_Connection                             ../../../../../../Library/Bluetooth_LE/library/libbluenrg1_stack.a(gap.o)
                                                  ../../../../../../Library/Bluetooth_LE/library/libbluenrg1_stack.a(bluenrg_gap_aci.o)
GAP_Delete_ADType                                 ../../../../../../Library/Bluetooth_LE/library/libbluenrg1_stack.a(rom_gap_rom.o)
                                                  ../../../../../../Library/Bluetooth_LE/library/libbluenrg1_stack.a(bluenrg_gap_aci.o)
GAP_DiscProcTimeoutcb                             ../../../../../../Library/Bluetooth_LE/library/libbluenrg1_stack.a(gap.o)
                                                  Stack/stack_user_cfg.o
GAP_DiscProcTimeoutcb_ucfg                        Stack/stack_user_cfg.o
                                                  ../../../../../../Library/Bluetooth_LE/library/libbluenrg1_stack.a(host_timer.o)
GAP_Init                                          ../../../../../../Library/Bluetooth_LE/library/libbluenrg1_stack.a(gap.o)
                                                  ../../../../../../Library/Bluetooth_LE/library/libbluenrg1_stack.a(bluenrg_gap_aci.o)
GAP_Init_Context                                  ../../../../../../Library/Bluetooth_LE/library/libbluenrg1_stack.a(gap.o)
                                                  ../../../../../../Library/Bluetooth_LE/library/libbluenrg1_stack.a(bluenrg_main_func.o)
GAP_Internal_Evt_Handler                          ../../../../../../Library/Bluetooth_LE/library/libbluenrg1_stack.a(gap.o)
                                                  ../../../../../../Library/Bluetooth_LE/library/libbluenrg1_stack.a(gatt_client.o)
GAP_LL_Event_Handler_ISR                          ../../../../../../Library/Bluetooth_LE/library/libbluenrg1_stack.a(gap.o)
                                                  ../../../../../../Library/Bluetooth_LE/library/libbluenrg1_stack.a(aci_events.o)
GAP_LimDiscTimeoutcb                              ../../../../../../Library/Bluetooth_LE/library/libbluenrg1_stack.a(gap.o)
                                                  ../../../../../../Library/Bluetooth_LE/library/libbluenrg1_stack.a(host_timer.o)
GAP_Notify_Add_Charac                             ../../../../../../Library/Bluetooth_LE/library/libbluenrg1_stack.a(rom_gap_rom.o)
                                                  ../../../../../../Library/Bluetooth_LE/library/libbluenrg1_stack.a(gatt_server.o)
GAP_Privacy1v2                                    ../../../../../../Library/Bluetooth_LE/library/libbluenrg1_stack.a(rom_gap.o)
                                                  ../../../../../../Library/Bluetooth_LE/library/libbluenrg1_stack.a(gap.o)
GAP_PrivateAddrTimercb                            ../../../../../../Library/Bluetooth_LE/library/libbluenrg1_stack.a(rom_gap.o)
                                                  ../../../../../../Library/Bluetooth_LE/library/libbluenrg1_stack.a(host_timer.o)
GAP_Process_Q                                     ../../../../../../Library/Bluetooth_LE/library/libbluenrg1_stack.a(gap.o)
                                                  ../../../../../../Library/Bluetooth_LE/library/libbluenrg1_stack.a(bluenrg_main_func.o)
GAP_Resolve_Private_Addr                          ../../../../../../Library/Bluetooth_LE/library/libbluenrg1_stack.a(rom_gap.o)
                                                  ../../../../../../Library/Bluetooth_LE/library/libbluenrg1_stack.a(bluenrg_gap_aci.o)
GAP_Set_Broadcast_Mode                            ../../../../../../Library/Bluetooth_LE/library/libbluenrg1_stack.a(gap.o)
                                                  ../../../../../../Library/Bluetooth_LE/library/libbluenrg1_stack.a(bluenrg_gap_aci.o)
GAP_Set_Direct_Connectable_Mode                   ../../../../../../Library/Bluetooth_LE/library/libbluenrg1_stack.a(gap.o)
                                                  ../../../../../../Library/Bluetooth_LE/library/libbluenrg1_stack.a(bluenrg_gap_aci.o)
GAP_Set_Discoverable_Mode                         ../../../../../../Library/Bluetooth_LE/library/libbluenrg1_stack.a(gap.o)
                                                  ../../../../../../Library/Bluetooth_LE/library/libbluenrg1_stack.a(bluenrg_gap_aci.o)
GAP_Set_Limited_Discoverable_Mode                 ../../../../../../Library/Bluetooth_LE/library/libbluenrg1_stack.a(gap.o)
                                                  ../../../../../../Library/Bluetooth_LE/library/libbluenrg1_stack.a(bluenrg_gap_aci.o)
GAP_Set_NonConnectable_Mode                       ../../../../../../Library/Bluetooth_LE/library/libbluenrg1_stack.a(gap.o)
                                                  ../../../../../../Library/Bluetooth_LE/library/libbluenrg1_stack.a(bluenrg_gap_aci.o)
GAP_Set_Non_Discoverable_Mode                     ../../../../../../Library/Bluetooth_LE/library/libbluenrg1_stack.a(gap.o)
                                                  ../../../../../../Library/Bluetooth_LE/library/libbluenrg1_stack.a(bluenrg_gap_aci.o)
GAP_Set_Undirected_Connectable_Mode               ../../../../../../Library/Bluetooth_LE/library/libbluenrg1_stack.a(gap.o)
                                                  ../../../../../../Library/Bluetooth_LE/library/libbluenrg1_stack.a(bluenrg_gap_aci.o)
GAP_Start_Auto_Conn_Establishment_Proc            ../../../../../../Library/Bluetooth_LE/library/libbluenrg1_stack.a(gap.o)
                                                  ../../../../../../Library/Bluetooth_LE/library/libbluenrg1_stack.a(bluenrg_gap_aci.o)
GAP_Start_Discovery_Procedure                     ../../../../../../Library/Bluetooth_LE/library/libbluenrg1_stack.a(rom_gap.o)
                                                  ../../../../../../Library/Bluetooth_LE/library/libbluenrg1_stack.a(gap.o)
GAP_Start_General_Conn_Establishment_Proc         ../../../../../../Library/Bluetooth_LE/library/libbluenrg1_stack.a(gap.o)
                                                  ../../../../../../Library/Bluetooth_LE/library/libbluenrg1_stack.a(bluenrg_gap_aci.o)
GAP_Start_General_Discovery_Procedure             ../../../../../../Library/Bluetooth_LE/library/libbluenrg1_stack.a(gap.o)
                                                  ../../../../../../Library/Bluetooth_LE/library/libbluenrg1_stack.a(bluenrg_gap_aci.o)
GAP_Start_Limited_Discovery_Procedure             ../../../../../../Library/Bluetooth_LE/library/libbluenrg1_stack.a(gap.o)
                                                  ../../../../../../Library/Bluetooth_LE/library/libbluenrg1_stack.a(bluenrg_gap_aci.o)
GAP_Start_Name_Discovery_Procedure                ../../../../../../Library/Bluetooth_LE/library/libbluenrg1_stack.a(gap.o)
                                                  ../../../../../../Library/Bluetooth_LE/library/libbluenrg1_stack.a(bluenrg_gap_aci.o)
GAP_Start_Observation_Procedure                   ../../../../../../Library/Bluetooth_LE/library/libbluenrg1_stack.a(gap.o)
                                                  ../../../../../../Library/Bluetooth_LE/library/libbluenrg1_stack.a(bluenrg_gap_aci.o)
GAP_Start_Selective_Conn_Establishment_Proc       ../../../../../../Library/Bluetooth_LE/library/libbluenrg1_stack.a(gap.o)
                                                  ../../../../../../Library/Bluetooth_LE/library/libbluenrg1_stack.a(bluenrg_gap_aci.o)
GAP_Started_Gatt_Proc                             ../../../../../../Library/Bluetooth_LE/library/libbluenrg1_stack.a(gap.o)
                                                  ../../../../../../Library/Bluetooth_LE/library/libbluenrg1_stack.a(gatt_client.o)
GAP_Terminate_Gap_Procedure                       ../../../../../../Library/Bluetooth_LE/library/libbluenrg1_stack.a(gap.o)
                                                  ../../../../../../Library/Bluetooth_LE/library/libbluenrg1_stack.a(bluenrg_gap_aci.o)
GAP_Terminate_Link                                ../../../../../../Library/Bluetooth_LE/library/libbluenrg1_stack.a(rom_gap_rom.o)
                                                  ../../../../../../Library/Bluetooth_LE/library/libbluenrg1_stack.a(bluenrg_gap_aci.o)
GAP_Update_Adv_Data                               ../../../../../../Library/Bluetooth_LE/library/libbluenrg1_stack.a(rom_gap_rom.o)
                                                  ../../../../../../Library/Bluetooth_LE/library/libbluenrg1_stack.a(bluenrg_gap_aci.o)
GAP_Validate_AddrType                             ../../../../../../Library/Bluetooth_LE/library/libbluenrg1_stack.a(gap.o)
GAP_check_and_set_role                            ../../../../../../Library/Bluetooth_LE/library/libbluenrg1_stack.a(gap.o)
                                                  Stack/stack_user_cfg.o
GAP_check_and_set_role_ucfg                       Stack/stack_user_cfg.o
GAP_configure_whitelist                           ../../../../../../Library/Bluetooth_LE/library/libbluenrg1_stack.a(sdb.o)
                                                  ../../../../../../Library/Bluetooth_LE/library/libbluenrg1_stack.a(bluenrg_gap_aci.o)
GAP_discover_peer_name                            ../../../../../../Library/Bluetooth_LE/library/libbluenrg1_stack.a(gap.o)
                                                  Stack/stack_user_cfg.o
GAP_discover_peer_name_ucfg                       Stack/stack_user_cfg.o
GAP_enable_controller_privacy                     ../../../../../../Library/Bluetooth_LE/library/libbluenrg1_stack.a(gap.o)
                                                  Stack/stack_user_cfg.o
GAP_enable_controller_privacy_ucfg                Stack/stack_user_cfg.o
GATT_Connection_Complete_Handler                  ../../../../../../Library/Bluetooth_LE/library/libbluenrg1_stack.a(gatt_server.o)
GATT_Num_Charac_Present                           ../../../../../../Library/Bluetooth_LE/library/libbluenrg1_stack.a(rom_gatt_server.o)
                                                  ../../../../../../Library/Bluetooth_LE/library/libbluenrg1_stack.a(rom_gap_rom.o)
GATT_Send_Packet                                  ../../../../../../Library/Bluetooth_LE/library/libbluenrg1_stack.a(gatt_server.o)
                                                  ../../../../../../Library/Bluetooth_LE/library/libbluenrg1_stack.a(gatt_client.o)
GATT_Set_Characteristic_Permission                ../../../../../../Library/Bluetooth_LE/library/libbluenrg1_stack.a(rom_gatt_server.o)
GATT_TimeOut_Handler                              ../../../../../../Library/Bluetooth_LE/library/libbluenrg1_stack.a(gatt_server.o)
                                                  ../../../../../../Library/Bluetooth_LE/library/libbluenrg1_stack.a(host_timer.o)
GPIO_CTS_Input                                    User/hw_config.o
GPIO_CTS_Irq                                      User/hw_config.o
GPIO_CTS_Uart                                     User/hw_config.o
GPIO_ClearITPendingBit                            Library/BlueNRG1_gpio.o
                                                  User/hw_config.o
GPIO_Configuration                                User/hw_config.o
                                                  User/transport_layer.o
GPIO_DeInit                                       Library/BlueNRG1_gpio.o
GPIO_EXTICmd                                      Library/BlueNRG1_gpio.o
                                                  User/hw_config.o
GPIO_EXTIConfig                                   Library/BlueNRG1_gpio.o
GPIO_EXTIStructInit                               Library/BlueNRG1_gpio.o
GPIO_GetITPendingBit                              Library/BlueNRG1_gpio.o
GPIO_GetITStatusBit                               Library/BlueNRG1_gpio.o
GPIO_Handler                                      Startup/system_bluenrg1.o
GPIO_Init                                         Library/BlueNRG1_gpio.o
                                                  User/hw_config.o
GPIO_InitLowPowerModes                            Library/BlueNRG1_gpio.o
GPIO_RTS_Output                                   User/hw_config.o
GPIO_RTS_Uart                                     User/hw_config.o
GPIO_ReadBit                                      Library/BlueNRG1_gpio.o
GPIO_ResetBits                                    Library/BlueNRG1_gpio.o
GPIO_SetBits                                      Library/BlueNRG1_gpio.o
                                                  User/hw_config.o
GPIO_StructInit                                   Library/BlueNRG1_gpio.o
                                                  User/hw_config.o
GPIO_ToggleBits                                   Library/BlueNRG1_gpio.o
GPIO_ToggleBitsLowPowerModes                      Library/BlueNRG1_gpio.o
GPIO_WriteBit                                     Library/BlueNRG1_gpio.o
GPIO_WriteBitsLowPowerModes                       Library/BlueNRG1_gpio.o
GapIsPrivacySupported                             ../../../../../../Library/Bluetooth_LE/library/libbluenrg1_stack.a(rom_gap.o)
                                                  ../../../../../../Library/Bluetooth_LE/library/libbluenrg1_stack.a(securitymgr.o)
                                                  ../../../../../../Library/Bluetooth_LE/library/libbluenrg1_stack.a(gap.o)
Gatt_Add_Charac_Desc                              ../../../../../../Library/Bluetooth_LE/library/libbluenrg1_stack.a(gatt_server.o)
                                                  ../../../../../../Library/Bluetooth_LE/library/libbluenrg1_stack.a(bluenrg_gatt_aci.o)
Gatt_Add_Characteristic                           ../../../../../../Library/Bluetooth_LE/library/libbluenrg1_stack.a(gatt_server.o)
                                                  ../../../../../../Library/Bluetooth_LE/library/libbluenrg1_stack.a(gap.o)
                                                  ../../../../../../Library/Bluetooth_LE/library/libbluenrg1_stack.a(bluenrg_gatt_aci.o)
Gatt_Add_Descriptor                               ../../../../../../Library/Bluetooth_LE/library/libbluenrg1_stack.a(gatt_server.o)
Gatt_Add_Service                                  ../../../../../../Library/Bluetooth_LE/library/libbluenrg1_stack.a(gatt_server.o)
                                                  ../../../../../../Library/Bluetooth_LE/library/libbluenrg1_stack.a(gap.o)
                                                  ../../../../../../Library/Bluetooth_LE/library/libbluenrg1_stack.a(bluenrg_gatt_aci.o)
Gatt_Appl_Auth_For_Read                           ../../../../../../Library/Bluetooth_LE/library/libbluenrg1_stack.a(gatt_server.o)
                                                  ../../../../../../Library/Bluetooth_LE/library/libbluenrg1_stack.a(bluenrg_gatt_aci.o)
Gatt_Appl_Auth_For_Write                          ../../../../../../Library/Bluetooth_LE/library/libbluenrg1_stack.a(gatt_server.o)
                                                  ../../../../../../Library/Bluetooth_LE/library/libbluenrg1_stack.a(bluenrg_gatt_aci.o)
Gatt_Change_Attribute_Permission                  ../../../../../../Library/Bluetooth_LE/library/libbluenrg1_stack.a(rom_gatt_server.o)
                                                  ../../../../../../Library/Bluetooth_LE/library/libbluenrg1_stack.a(bluenrg_gatt_aci.o)
Gatt_Confirm_Indication                           ../../../../../../Library/Bluetooth_LE/library/libbluenrg1_stack.a(gatt_client.o)
                                                  ../../../../../../Library/Bluetooth_LE/library/libbluenrg1_stack.a(bluenrg_gatt_aci.o)
Gatt_Delete_Characteristic                        ../../../../../../Library/Bluetooth_LE/library/libbluenrg1_stack.a(gatt_server.o)
                                                  ../../../../../../Library/Bluetooth_LE/library/libbluenrg1_stack.a(bluenrg_gatt_aci.o)
Gatt_Delete_Include_Service                       ../../../../../../Library/Bluetooth_LE/library/libbluenrg1_stack.a(gatt_server.o)
                                                  ../../../../../../Library/Bluetooth_LE/library/libbluenrg1_stack.a(bluenrg_gatt_aci.o)
Gatt_Delete_Service                               ../../../../../../Library/Bluetooth_LE/library/libbluenrg1_stack.a(gatt_server.o)
                                                  ../../../../../../Library/Bluetooth_LE/library/libbluenrg1_stack.a(bluenrg_gatt_aci.o)
Gatt_Disc_All_Charac_Of_Serv                      ../../../../../../Library/Bluetooth_LE/library/libbluenrg1_stack.a(gatt_client.o)
                                                  ../../../../../../Library/Bluetooth_LE/library/libbluenrg1_stack.a(bluenrg_gatt_aci.o)
Gatt_Disc_All_Prim_Services                       ../../../../../../Library/Bluetooth_LE/library/libbluenrg1_stack.a(gatt_client.o)
                                                  ../../../../../../Library/Bluetooth_LE/library/libbluenrg1_stack.a(bluenrg_gatt_aci.o)
Gatt_Disc_Charac_By_Uuid                          ../../../../../../Library/Bluetooth_LE/library/libbluenrg1_stack.a(gatt_client.o)
                                                  ../../../../../../Library/Bluetooth_LE/library/libbluenrg1_stack.a(bluenrg_gatt_aci.o)
Gatt_Disc_Charac_Desc                             ../../../../../../Library/Bluetooth_LE/library/libbluenrg1_stack.a(gatt_client.o)
                                                  ../../../../../../Library/Bluetooth_LE/library/libbluenrg1_stack.a(bluenrg_gatt_aci.o)
Gatt_Disc_Prim_serv_By_Uuid                       ../../../../../../Library/Bluetooth_LE/library/libbluenrg1_stack.a(gatt_client.o)
                                                  ../../../../../../Library/Bluetooth_LE/library/libbluenrg1_stack.a(bluenrg_gatt_aci.o)
Gatt_Exchange_Configuration                       ../../../../../../Library/Bluetooth_LE/library/libbluenrg1_stack.a(gatt_client.o)
                                                  ../../../../../../Library/Bluetooth_LE/library/libbluenrg1_stack.a(bluenrg_gatt_aci.o)
Gatt_Execute_Write_Req                            ../../../../../../Library/Bluetooth_LE/library/libbluenrg1_stack.a(gatt_client.o)
                                                  ../../../../../../Library/Bluetooth_LE/library/libbluenrg1_stack.a(bluenrg_gatt_aci.o)
Gatt_Find_Attr_By_Typ_And_Value_Req               ../../../../../../Library/Bluetooth_LE/library/libbluenrg1_stack.a(gatt_client.o)
                                                  ../../../../../../Library/Bluetooth_LE/library/libbluenrg1_stack.a(bluenrg_gatt_aci.o)
Gatt_Find_Included_Services                       ../../../../../../Library/Bluetooth_LE/library/libbluenrg1_stack.a(gatt_client.o)
                                                  ../../../../../../Library/Bluetooth_LE/library/libbluenrg1_stack.a(bluenrg_gatt_aci.o)
Gatt_Find_Information_Req                         ../../../../../../Library/Bluetooth_LE/library/libbluenrg1_stack.a(gatt_client.o)
                                                  ../../../../../../Library/Bluetooth_LE/library/libbluenrg1_stack.a(bluenrg_gatt_aci.o)
Gatt_Find_Srv_From_Handle                         ../../../../../../Library/Bluetooth_LE/library/libbluenrg1_stack.a(gatt_server.o)
                                                  ../../../../../../Library/Bluetooth_LE/library/libbluenrg1_stack.a(att.o)
Gatt_Find_Srv_Owner_Of_Handle                     ../../../../../../Library/Bluetooth_LE/library/libbluenrg1_stack.a(gatt_server.o)
                                                  ../../../../../../Library/Bluetooth_LE/library/libbluenrg1_stack.a(att.o)
                                                  ../../../../../../Library/Bluetooth_LE/library/libbluenrg1_stack.a(rom_att.o)
Gatt_Find_Timed_Out_Connection_Index              ../../../../../../Library/Bluetooth_LE/library/libbluenrg1_stack.a(gatt_server.o)
                                                  ../../../../../../Library/Bluetooth_LE/library/libbluenrg1_stack.a(rom_gatt_server.o)
Gatt_Handler2                                     ../../../../../../Library/Bluetooth_LE/library/libbluenrg1_stack.a(gatt_client.o)
Gatt_Include_Service                              ../../../../../../Library/Bluetooth_LE/library/libbluenrg1_stack.a(gatt_server.o)
                                                  ../../../../../../Library/Bluetooth_LE/library/libbluenrg1_stack.a(bluenrg_gatt_aci.o)
Gatt_Multi_Charac_Values                          ../../../../../../Library/Bluetooth_LE/library/libbluenrg1_stack.a(gatt_client.o)
                                                  ../../../../../../Library/Bluetooth_LE/library/libbluenrg1_stack.a(bluenrg_gatt_aci.o)
Gatt_Prepare_Write_Req                            ../../../../../../Library/Bluetooth_LE/library/libbluenrg1_stack.a(gatt_client.o)
                                                  ../../../../../../Library/Bluetooth_LE/library/libbluenrg1_stack.a(bluenrg_gatt_aci.o)
Gatt_Process_Q                                    ../../../../../../Library/Bluetooth_LE/library/libbluenrg1_stack.a(gatt_server.o)
                                                  ../../../../../../Library/Bluetooth_LE/library/libbluenrg1_stack.a(bluenrg_main_func.o)
Gatt_Read_Attr_By_Grp_Type_Req                    ../../../../../../Library/Bluetooth_LE/library/libbluenrg1_stack.a(gatt_client.o)
                                                  ../../../../../../Library/Bluetooth_LE/library/libbluenrg1_stack.a(bluenrg_gatt_aci.o)
Gatt_Read_Attr_By_Type_Req                        ../../../../../../Library/Bluetooth_LE/library/libbluenrg1_stack.a(gatt_client.o)
                                                  ../../../../../../Library/Bluetooth_LE/library/libbluenrg1_stack.a(bluenrg_gatt_aci.o)
Gatt_Read_Charac_By_Uuid                          ../../../../../../Library/Bluetooth_LE/library/libbluenrg1_stack.a(gatt_client.o)
                                                  ../../../../../../Library/Bluetooth_LE/library/libbluenrg1_stack.a(gap.o)
                                                  ../../../../../../Library/Bluetooth_LE/library/libbluenrg1_stack.a(bluenrg_gatt_aci.o)
Gatt_Read_Charac_Desc                             ../../../../../../Library/Bluetooth_LE/library/libbluenrg1_stack.a(gatt_client.o)
                                                  ../../../../../../Library/Bluetooth_LE/library/libbluenrg1_stack.a(bluenrg_gatt_aci.o)
Gatt_Read_Charac_Val                              ../../../../../../Library/Bluetooth_LE/library/libbluenrg1_stack.a(gatt_client.o)
                                                  ../../../../../../Library/Bluetooth_LE/library/libbluenrg1_stack.a(bluenrg_gatt_aci.o)
Gatt_Read_Characteristic_Val                      ../../../../../../Library/Bluetooth_LE/library/libbluenrg1_stack.a(rom_gatt_server.o)
Gatt_Read_Handle_Val                              ../../../../../../Library/Bluetooth_LE/library/libbluenrg1_stack.a(gatt_server.o)
                                                  ../../../../../../Library/Bluetooth_LE/library/libbluenrg1_stack.a(bluenrg_gatt_aci.o)
Gatt_Read_Long_Charac_Desc                        ../../../../../../Library/Bluetooth_LE/library/libbluenrg1_stack.a(gatt_client.o)
                                                  ../../../../../../Library/Bluetooth_LE/library/libbluenrg1_stack.a(bluenrg_gatt_aci.o)
Gatt_Read_Long_Charac_Value                       ../../../../../../Library/Bluetooth_LE/library/libbluenrg1_stack.a(gatt_client.o)
                                                  ../../../../../../Library/Bluetooth_LE/library/libbluenrg1_stack.a(bluenrg_gatt_aci.o)
Gatt_Server_Db_Check                              ../../../../../../Library/Bluetooth_LE/library/libbluenrg1_stack.a(gatt_server.o)
Gatt_Server_Init                                  ../../../../../../Library/Bluetooth_LE/library/libbluenrg1_stack.a(gatt_server.o)
                                                  ../../../../../../Library/Bluetooth_LE/library/libbluenrg1_stack.a(bluenrg_gatt_aci.o)
Gatt_Server_L2C_Handler                           ../../../../../../Library/Bluetooth_LE/library/libbluenrg1_stack.a(gatt_server.o)
                                                  ../../../../../../Library/Bluetooth_LE/library/libbluenrg1_stack.a(l2cap.o)
Gatt_Server_L2C_Handler_ISR                       ../../../../../../Library/Bluetooth_LE/library/libbluenrg1_stack.a(gatt_server.o)
                                                  ../../../../../../Library/Bluetooth_LE/library/libbluenrg1_stack.a(l2cap.o)
Gatt_Set_Attr_Access_Permission                   ../../../../../../Library/Bluetooth_LE/library/libbluenrg1_stack.a(gatt_server.o)
                                                  ../../../../../../Library/Bluetooth_LE/library/libbluenrg1_stack.a(bluenrg_gatt_aci.o)
Gatt_Set_Desc_Value                               ../../../../../../Library/Bluetooth_LE/library/libbluenrg1_stack.a(gatt_server.o)
                                                  ../../../../../../Library/Bluetooth_LE/library/libbluenrg1_stack.a(bluenrg_gatt_aci.o)
Gatt_Signed_Write_Without_Resp                    ../../../../../../Library/Bluetooth_LE/library/libbluenrg1_stack.a(gatt_client.o)
                                                  ../../../../../../Library/Bluetooth_LE/library/libbluenrg1_stack.a(bluenrg_gatt_aci.o)
Gatt_Update_Charac_Value                          ../../../../../../Library/Bluetooth_LE/library/libbluenrg1_stack.a(gatt_server.o)
                                                  ../../../../../../Library/Bluetooth_LE/library/libbluenrg1_stack.a(gap.o)
                                                  ../../../../../../Library/Bluetooth_LE/library/libbluenrg1_stack.a(bluenrg_gatt_aci.o)
Gatt_Update_Charac_Value_Ext                      ../../../../../../Library/Bluetooth_LE/library/libbluenrg1_stack.a(gatt_server.o)
                                                  ../../../../../../Library/Bluetooth_LE/library/libbluenrg1_stack.a(bluenrg_gatt_aci.o)
Gatt_Write_Charac_Desc                            ../../../../../../Library/Bluetooth_LE/library/libbluenrg1_stack.a(gatt_client.o)
                                                  ../../../../../../Library/Bluetooth_LE/library/libbluenrg1_stack.a(bluenrg_gatt_aci.o)
Gatt_Write_Charac_Reliable                        ../../../../../../Library/Bluetooth_LE/library/libbluenrg1_stack.a(gatt_client.o)
                                                  ../../../../../../Library/Bluetooth_LE/library/libbluenrg1_stack.a(bluenrg_gatt_aci.o)
Gatt_Write_Charac_Value                           ../../../../../../Library/Bluetooth_LE/library/libbluenrg1_stack.a(gatt_client.o)
                                                  ../../../../../../Library/Bluetooth_LE/library/libbluenrg1_stack.a(bluenrg_gatt_aci.o)
Gatt_Write_Long_Charac_Desc                       ../../../../../../Library/Bluetooth_LE/library/libbluenrg1_stack.a(gatt_client.o)
                                                  ../../../../../../Library/Bluetooth_LE/library/libbluenrg1_stack.a(bluenrg_gatt_aci.o)
Gatt_Write_Long_Charac_Values                     ../../../../../../Library/Bluetooth_LE/library/libbluenrg1_stack.a(gatt_client.o)
                                                  ../../../../../../Library/Bluetooth_LE/library/libbluenrg1_stack.a(bluenrg_gatt_aci.o)
Gatt_Write_Without_Resp                           ../../../../../../Library/Bluetooth_LE/library/libbluenrg1_stack.a(gatt_client.o)
                                                  ../../../../../../Library/Bluetooth_LE/library/libbluenrg1_stack.a(bluenrg_gatt_aci.o)
Gatt_fetch_handle                                 ../../../../../../Library/Bluetooth_LE/library/libbluenrg1_stack.a(gatt_server.o)
Gatt_search_handle                                ../../../../../../Library/Bluetooth_LE/library/libbluenrg1_stack.a(gatt_server.o)
                                                  ../../../../../../Library/Bluetooth_LE/library/libbluenrg1_stack.a(att.o)
                                                  ../../../../../../Library/Bluetooth_LE/library/libbluenrg1_stack.a(rom_gatt_server.o)
                                                  ../../../../../../Library/Bluetooth_LE/library/libbluenrg1_stack.a(rom_att.o)
Gatt_search_service_handle                        ../../../../../../Library/Bluetooth_LE/library/libbluenrg1_stack.a(gatt_server.o)
                                                  ../../../../../../Library/Bluetooth_LE/library/libbluenrg1_stack.a(rom_gatt_server.o)
Generate_Non_Resolvable_Private_Address           ../../../../../../Library/Bluetooth_LE/library/libbluenrg1_stack.a(rom_gap.o)
Generate_Static_RandAddr                          ../../../../../../Library/Bluetooth_LE/library/libbluenrg1_stack.a(rom_gap_rom.o)
Get_GAP_Handle                                    ../../../../../../Library/Bluetooth_LE/library/libbluenrg1_stack.a(rom_gap_rom.o)
                                                  ../../../../../../Library/Bluetooth_LE/library/libbluenrg1_stack.a(rom_gatt_server.o)
                                                  ../../../../../../Library/Bluetooth_LE/library/libbluenrg1_stack.a(gatt_server.o)
Get_Random_Addr                                   ../../../../../../Library/Bluetooth_LE/library/libbluenrg1_stack.a(hci.o)
Get_StaticRandAddr                                ../../../../../../Library/Bluetooth_LE/library/libbluenrg1_stack.a(rom_gap_rom.o)
                                                  ../../../../../../Library/Bluetooth_LE/library/libbluenrg1_stack.a(smp_common.o)
                                                  ../../../../../../Library/Bluetooth_LE/library/libbluenrg1_stack.a(gap.o)
HAL_CrashHandler                                  Hal/miscutil.o
                                                  User/BlueNRG1_it.o
HAL_Flash_Store_Data                              ../../../../../../Library/Bluetooth_LE/library/libbluenrg1_stack.a(hal.o)
                                                  ../../../../../../Library/Bluetooth_LE/library/libbluenrg1_stack.a(device_id_data.o)
HAL_Generate_Random_Bytes_To                      ../../../../../../Library/Bluetooth_LE/library/libbluenrg1_stack.a(hal.o)
                                                  ../../../../../../Library/Bluetooth_LE/library/libbluenrg1_stack.a(device_id_data.o)
                                                  ../../../../../../Library/Bluetooth_LE/library/libbluenrg1_stack.a(smp_scv42_caf.o)
                                                  ../../../../../../Library/Bluetooth_LE/library/libbluenrg1_stack.a(securitymgr.o)
HAL_GetCrashInfo                                  Hal/miscutil.o
                                                  User/DTM_main.o
HAL_GetPartInfo                                   Hal/miscutil.o
                                                  User/DTM_cmd_db.o
                                                  User/DTM_boot.o
                                                  Startup/system_bluenrg1.o
                                                  Hal/sleep.o
HAL_Is_Mem_Set_To                                 ../../../../../../Library/Bluetooth_LE/library/libbluenrg1_stack.a(hal.o)
HAL_Read_ConfigData                               ../../../../../../Library/Bluetooth_LE/library/libbluenrg1_stack.a(hal.o)
                                                  ../../../../../../Library/Bluetooth_LE/library/libbluenrg1_stack.a(bluenrg_hal_aci.o)
HAL_Set_TX_Power_Level                            ../../../../../../Library/Bluetooth_LE/library/libbluenrg1_stack.a(hal.o)
                                                  ../../../../../../Library/Bluetooth_LE/library/libbluenrg1_stack.a(bluenrg_main_func.o)
                                                  ../../../../../../Library/Bluetooth_LE/library/libbluenrg1_stack.a(bluenrg_hal_aci.o)
HAL_VTIMER_TimerSleepCheck                        Hal/sleep.o
HAL_VTimerAcc_sysT32_ms                           ../../../../../../Library/Bluetooth_LE/library/libbluenrg1_stack.a(host_timer.o)
HAL_VTimerDiff_ms_sysT32                          ../../../../../../Library/Bluetooth_LE/library/libbluenrg1_stack.a(host_timer.o)
HAL_VTimerExpiry_sysT32                           ../../../../../../Library/Bluetooth_LE/library/libbluenrg1_stack.a(host_timer.o)
HAL_VTimerGetCurrentTime_sysT32                   ../../../../../../Library/Bluetooth_LE/library/libbluenrg1_stack.a(host_timer.o)
                                                  ../../../../../../Library/Bluetooth_LE/library/libbluenrg1_stack.a(ll_privacy.o)
HAL_VTimerStart_ms                                ../../../../../../Library/Bluetooth_LE/library/libbluenrg1_stack.a(host_timer.o)
HAL_VTimerStart_sysT32                            ../../../../../../Library/Bluetooth_LE/library/libbluenrg1_stack.a(host_timer.o)
HAL_VTimerTimeoutCallback                         ../../../../../../Library/Bluetooth_LE/library/libbluenrg1_stack.a(host_timer.o)
HAL_VTimer_Stop                                   ../../../../../../Library/Bluetooth_LE/library/libbluenrg1_stack.a(host_timer.o)
HAL_Write_ConfigData                              ../../../../../../Library/Bluetooth_LE/library/libbluenrg1_stack.a(hal.o)
                                                  ../../../../../../Library/Bluetooth_LE/library/libbluenrg1_stack.a(bluenrg_hal_aci.o)
HCI_Init                                          ../../../../../../Library/Bluetooth_LE/library/libbluenrg1_stack.a(hci.o)
                                                  ../../../../../../Library/Bluetooth_LE/library/libbluenrg1_stack.a(bluenrg_main_func.o)
Hal_Get_Random_Number                             ../../../../../../Library/Bluetooth_LE/library/libbluenrg1_stack.a(hal.o)
                                                  ../../../../../../Library/Bluetooth_LE/library/libbluenrg1_stack.a(advance_wakeup_time.o)
                                                  ../../../../../../Library/Bluetooth_LE/library/libbluenrg1_stack.a(smp_algo_sap.o)
                                                  ../../../../../../Library/Bluetooth_LE/library/libbluenrg1_stack.a(rom_ll_routines_support.o)
                                                  ../../../../../../Library/Bluetooth_LE/library/libbluenrg1_stack.a(rom_gap_rom.o)
                                                  ../../../../../../Library/Bluetooth_LE/library/libbluenrg1_stack.a(rom_gap.o)
                                                  ../../../../../../Library/Bluetooth_LE/library/libbluenrg1_stack.a(ll_routines_master.o)
Hal_Get_Random_Number32                           ../../../../../../Library/Bluetooth_LE/library/libbluenrg1_stack.a(hal.o)
                                                  ../../../../../../Library/Bluetooth_LE/library/libbluenrg1_stack.a(isr_postproc.o)
                                                  ../../../../../../Library/Bluetooth_LE/library/libbluenrg1_stack.a(pka.o)
                                                  ../../../../../../Library/Bluetooth_LE/library/libbluenrg1_stack.a(ll_privacy.o)
HardFault_Handler                                 User/BlueNRG1_it.o
                                                  Startup/system_bluenrg1.o
I2C1_Handler                                      Startup/system_bluenrg1.o
I2C2_Handler                                      Startup/system_bluenrg1.o
I2C_BeginTransaction                              Library/BlueNRG1_i2c.o
I2C_ClearITPendingBit                             Library/BlueNRG1_i2c.o
I2C_Cmd                                           Library/BlueNRG1_i2c.o
I2C_DMACmd                                        Library/BlueNRG1_i2c.o
I2C_DMATxBurstMode                                Library/BlueNRG1_i2c.o
I2C_DMATxBurstSize                                Library/BlueNRG1_i2c.o
I2C_DeInit                                        Library/BlueNRG1_i2c.o
I2C_FillTxFIFO                                    Library/BlueNRG1_i2c.o
I2C_FlushRx                                       Library/BlueNRG1_i2c.o
I2C_FlushTx                                       Library/BlueNRG1_i2c.o
I2C_GeneralCallCmd                                Library/BlueNRG1_i2c.o
I2C_GenerateStopCondition                         Library/BlueNRG1_i2c.o
I2C_GetITPendingBit                               Library/BlueNRG1_i2c.o
I2C_GetITStatus                                   Library/BlueNRG1_i2c.o
I2C_GetStatus                                     Library/BlueNRG1_i2c.o
I2C_ITConfig                                      Library/BlueNRG1_i2c.o
I2C_Init                                          Library/BlueNRG1_i2c.o
I2C_ReceiveData                                   Library/BlueNRG1_i2c.o
I2C_SetHoldTime                                   Library/BlueNRG1_i2c.o
I2C_SetHoldTimeStartCondition                     Library/BlueNRG1_i2c.o
I2C_SetRxThreshold                                Library/BlueNRG1_i2c.o
I2C_SetSetupTimeStartCondition                    Library/BlueNRG1_i2c.o
I2C_SetTxThreshold                                Library/BlueNRG1_i2c.o
I2C_StructInit                                    Library/BlueNRG1_i2c.o
I2C_WaitFlushRx                                   Library/BlueNRG1_i2c.o
I2C_WaitFlushTx                                   Library/BlueNRG1_i2c.o
IDD_Initialize_Device_IDs                         ../../../../../../Library/Bluetooth_LE/library/libbluenrg1_stack.a(device_id_data.o)
                                                  ../../../../../../Library/Bluetooth_LE/library/libbluenrg1_stack.a(gap.o)
Ind_Service_Change_Charac                         ../../../../../../Library/Bluetooth_LE/library/libbluenrg1_stack.a(gatt_server.o)
Is_Address_Initialized                            ../../../../../../Library/Bluetooth_LE/library/libbluenrg1_stack.a(rom_ll_ll_routines.o)
                                                  ../../../../../../Library/Bluetooth_LE/library/libbluenrg1_stack.a(smp_common.o)
                                                  ../../../../../../Library/Bluetooth_LE/library/libbluenrg1_stack.a(hci.o)
Is_Flash_Write_On_Going                           ../../../../../../Library/Bluetooth_LE/library/libbluenrg1_stack.a(nvm.o)
                                                  ../../../../../../Library/Bluetooth_LE/library/libbluenrg1_stack.a(ll_isr.o)
L2C_Build_Command_Reject_Pdu                      ../../../../../../Library/Bluetooth_LE/library/libbluenrg1_stack.a(l2cap.o)
L2C_Build_Connect_Update_Req                      ../../../../../../Library/Bluetooth_LE/library/libbluenrg1_stack.a(l2cap.o)
                                                  ../../../../../../Library/Bluetooth_LE/library/libbluenrg1_stack.a(bluenrg_l2cap_aci.o)
L2C_Build_Connect_Update_Resp                     ../../../../../../Library/Bluetooth_LE/library/libbluenrg1_stack.a(l2cap.o)
                                                  ../../../../../../Library/Bluetooth_LE/library/libbluenrg1_stack.a(bluenrg_l2cap_aci.o)
L2C_Connection_Complete_Handler                   ../../../../../../Library/Bluetooth_LE/library/libbluenrg1_stack.a(l2cap.o)
L2C_Connection_Complete_Signal_Handler            ../../../../../../Library/Bluetooth_LE/library/libbluenrg1_stack.a(l2cap.o)
L2C_Get_PDU_Len                                   ../../../../../../Library/Bluetooth_LE/library/libbluenrg1_stack.a(l2cap.o)
L2C_Init                                          ../../../../../../Library/Bluetooth_LE/library/libbluenrg1_stack.a(l2cap.o)
                                                  ../../../../../../Library/Bluetooth_LE/library/libbluenrg1_stack.a(bluenrg_main_func.o)
L2C_Rcv_Event_Handler                             ../../../../../../Library/Bluetooth_LE/library/libbluenrg1_stack.a(l2cap.o)
                                                  ../../../../../../Library/Bluetooth_LE/library/libbluenrg1_stack.a(acl.o)
L2C_Rcv_Event_Handler_ISR                         ../../../../../../Library/Bluetooth_LE/library/libbluenrg1_stack.a(l2cap.o)
                                                  ../../../../../../Library/Bluetooth_LE/library/libbluenrg1_stack.a(aci_events.o)
L2C_Send_Data                                     ../../../../../../Library/Bluetooth_LE/library/libbluenrg1_stack.a(l2cap.o)
                                                  ../../../../../../Library/Bluetooth_LE/library/libbluenrg1_stack.a(smp_common.o)
                                                  ../../../../../../Library/Bluetooth_LE/library/libbluenrg1_stack.a(securitymgr.o)
                                                  ../../../../../../Library/Bluetooth_LE/library/libbluenrg1_stack.a(gatt_server.o)
L2C_SigChan_Req_TimeOut_Handler                   ../../../../../../Library/Bluetooth_LE/library/libbluenrg1_stack.a(l2cap.o)
                                                  ../../../../../../Library/Bluetooth_LE/library/libbluenrg1_stack.a(host_timer.o)
L2C_Signal_Channel_Handler                        ../../../../../../Library/Bluetooth_LE/library/libbluenrg1_stack.a(l2cap.o)
L2C_Signal_Channel_Handler_ISR                    ../../../../../../Library/Bluetooth_LE/library/libbluenrg1_stack.a(l2cap.o)
LL_Allow_Address_Setting                          ../../../../../../Library/Bluetooth_LE/library/libbluenrg1_stack.a(rom_ll_ll_routines.o)
                                                  ../../../../../../Library/Bluetooth_LE/library/libbluenrg1_stack.a(rom_gap.o)
LL_Cancel_Connection_Req                          ../../../../../../Library/Bluetooth_LE/library/libbluenrg1_stack.a(rom_ll_ll_routines_master.o)
                                                  ../../../../../../Library/Bluetooth_LE/library/libbluenrg1_stack.a(ll_routines_master.o)
LL_Check_And_Set_Addresses                        ../../../../../../Library/Bluetooth_LE/library/libbluenrg1_stack.a(rom_ll_ll_routines.o)
                                                  ../../../../../../Library/Bluetooth_LE/library/libbluenrg1_stack.a(rom_ll_ll_routines_master.o)
                                                  ../../../../../../Library/Bluetooth_LE/library/libbluenrg1_stack.a(ll_routines_master.o)
LL_Create_Connection                              ../../../../../../Library/Bluetooth_LE/library/libbluenrg1_stack.a(ll_routines_master.o)
                                                  ../../../../../../Library/Bluetooth_LE/library/libbluenrg1_stack.a(hci.o)
                                                  ../../../../../../Library/Bluetooth_LE/library/libbluenrg1_stack.a(gap.o)
LL_Create_Connection_Cancel                       ../../../../../../Library/Bluetooth_LE/library/libbluenrg1_stack.a(ll_routines_master.o)
                                                  ../../../../../../Library/Bluetooth_LE/library/libbluenrg1_stack.a(hci.o)
                                                  ../../../../../../Library/Bluetooth_LE/library/libbluenrg1_stack.a(gap.o)
LL_Data_Length_Change_Event                       ../../../../../../Library/Bluetooth_LE/library/libbluenrg1_stack.a(ll_routines.o)
                                                  ../../../../../../Library/Bluetooth_LE/library/libbluenrg1_stack.a(ll_isr.o)
                                                  Stack/stack_user_cfg.o
LL_Data_Length_Change_Event_ucfg                  Stack/stack_user_cfg.o
                                                  ../../../../../../Library/Bluetooth_LE/library/libbluenrg1_stack.a(isr_postproc.o)
LL_Data_Length_Update                             ../../../../../../Library/Bluetooth_LE/library/libbluenrg1_stack.a(ll_routines.o)
                                                  ../../../../../../Library/Bluetooth_LE/library/libbluenrg1_stack.a(ll_isr.o)
LL_Disconnect_Link                                ../../../../../../Library/Bluetooth_LE/library/libbluenrg1_stack.a(ll_routines.o)
                                                  ../../../../../../Library/Bluetooth_LE/library/libbluenrg1_stack.a(rom_gap_rom.o)
                                                  ../../../../../../Library/Bluetooth_LE/library/libbluenrg1_stack.a(hci.o)
LL_Enable_Disable_Adv                             ../../../../../../Library/Bluetooth_LE/library/libbluenrg1_stack.a(rom_ll_ll_routines.o)
                                                  ../../../../../../Library/Bluetooth_LE/library/libbluenrg1_stack.a(hci.o)
                                                  ../../../../../../Library/Bluetooth_LE/library/libbluenrg1_stack.a(gap.o)
LL_Enable_Disable_Scan                            ../../../../../../Library/Bluetooth_LE/library/libbluenrg1_stack.a(ll_routines_master.o)
                                                  ../../../../../../Library/Bluetooth_LE/library/libbluenrg1_stack.a(rom_gap.o)
                                                  ../../../../../../Library/Bluetooth_LE/library/libbluenrg1_stack.a(hci.o)
                                                  ../../../../../../Library/Bluetooth_LE/library/libbluenrg1_stack.a(gap.o)
LL_Encrypt_Plain_Data                             ../../../../../../Library/Bluetooth_LE/library/libbluenrg1_stack.a(ll_routines_support.o)
                                                  ../../../../../../Library/Bluetooth_LE/library/libbluenrg1_stack.a(ll_privacy.o)
                                                  Stack/stack_user_cfg.o
LL_Encrypt_Plain_Data_ucfg                        Stack/stack_user_cfg.o
                                                  ../../../../../../Library/Bluetooth_LE/library/libbluenrg1_stack.a(hci.o)
LL_Get_Address                                    ../../../../../../Library/Bluetooth_LE/library/libbluenrg1_stack.a(rom_ll_ll_routines.o)
                                                  ../../../../../../Library/Bluetooth_LE/library/libbluenrg1_stack.a(smp_common.o)
                                                  ../../../../../../Library/Bluetooth_LE/library/libbluenrg1_stack.a(securitymgr.o)
LL_Get_AdvAddress                                 ../../../../../../Library/Bluetooth_LE/library/libbluenrg1_stack.a(rom_ll_ll_routines.o)
                                                  ../../../../../../Library/Bluetooth_LE/library/libbluenrg1_stack.a(rom_gap.o)
LL_Get_Adv_Data                                   ../../../../../../Library/Bluetooth_LE/library/libbluenrg1_stack.a(rom_ll_ll_routines.o)
                                                  ../../../../../../Library/Bluetooth_LE/library/libbluenrg1_stack.a(rom_gap_rom.o)
LL_Get_Adv_Tx_Power_Level                         ../../../../../../Library/Bluetooth_LE/library/libbluenrg1_stack.a(rom_ll_routines_support.o)
                                                  ../../../../../../Library/Bluetooth_LE/library/libbluenrg1_stack.a(hci.o)
                                                  ../../../../../../Library/Bluetooth_LE/library/libbluenrg1_stack.a(gap.o)
LL_Get_Anchor_Interval                            ../../../../../../Library/Bluetooth_LE/library/libbluenrg1_stack.a(multi_master_time.o)
                                                  ../../../../../../Library/Bluetooth_LE/library/libbluenrg1_stack.a(hci.o)
LL_Get_Channel_Map                                ../../../../../../Library/Bluetooth_LE/library/libbluenrg1_stack.a(rom_ll_ll_routines.o)
                                                  ../../../../../../Library/Bluetooth_LE/library/libbluenrg1_stack.a(hci.o)
LL_Get_Default_Data_Length                        ../../../../../../Library/Bluetooth_LE/library/libbluenrg1_stack.a(ll_routines.o)
                                                  ../../../../../../Library/Bluetooth_LE/library/libbluenrg1_stack.a(hci.o)
LL_Get_Link_Tx_Power_Level                        ../../../../../../Library/Bluetooth_LE/library/libbluenrg1_stack.a(rom_ll_routines_support.o)
                                                  ../../../../../../Library/Bluetooth_LE/library/libbluenrg1_stack.a(hci.o)
LL_Get_Maximum_Data_Length                        ../../../../../../Library/Bluetooth_LE/library/libbluenrg1_stack.a(ll_routines.o)
                                                  ../../../../../../Library/Bluetooth_LE/library/libbluenrg1_stack.a(hci.o)
LL_Get_Random_data                                ../../../../../../Library/Bluetooth_LE/library/libbluenrg1_stack.a(rom_ll_routines_support.o)
                                                  ../../../../../../Library/Bluetooth_LE/library/libbluenrg1_stack.a(hci.o)
LL_Get_ScanAddress                                ../../../../../../Library/Bluetooth_LE/library/libbluenrg1_stack.a(rom_ll_ll_routines.o)
                                                  ../../../../../../Library/Bluetooth_LE/library/libbluenrg1_stack.a(rom_gap.o)
LL_Get_Scan_Resp_Data                             ../../../../../../Library/Bluetooth_LE/library/libbluenrg1_stack.a(rom_ll_ll_routines.o)
LL_Get_Supported_Features                         ../../../../../../Library/Bluetooth_LE/library/libbluenrg1_stack.a(ll_routines.o)
                                                  ../../../../../../Library/Bluetooth_LE/library/libbluenrg1_stack.a(hci.o)
LL_Get_Supported_States                           ../../../../../../Library/Bluetooth_LE/library/libbluenrg1_stack.a(rom_ll_routines_support.o)
                                                  ../../../../../../Library/Bluetooth_LE/library/libbluenrg1_stack.a(hci.o)
LL_Init                                           ../../../../../../Library/Bluetooth_LE/library/libbluenrg1_stack.a(rom_ll_ll_routines.o)
                                                  ../../../../../../Library/Bluetooth_LE/library/libbluenrg1_stack.a(bluenrg_main_func.o)
LL_LE_Add_Device_To_Resolving_List                ../../../../../../Library/Bluetooth_LE/library/libbluenrg1_stack.a(ll_privacy.o)
                                                  ../../../../../../Library/Bluetooth_LE/library/libbluenrg1_stack.a(hci_privacy.o)
LL_LE_Add_Device_To_White_List                    ../../../../../../Library/Bluetooth_LE/library/libbluenrg1_stack.a(ll_privacy.o)
                                                  ../../../../../../Library/Bluetooth_LE/library/libbluenrg1_stack.a(sdb.o)
                                                  ../../../../../../Library/Bluetooth_LE/library/libbluenrg1_stack.a(rom_gap.o)
                                                  ../../../../../../Library/Bluetooth_LE/library/libbluenrg1_stack.a(hci.o)
LL_LE_Clear_Resolving_List                        ../../../../../../Library/Bluetooth_LE/library/libbluenrg1_stack.a(ll_privacy.o)
                                                  ../../../../../../Library/Bluetooth_LE/library/libbluenrg1_stack.a(hci_privacy.o)
LL_LE_Clear_White_List                            ../../../../../../Library/Bluetooth_LE/library/libbluenrg1_stack.a(ll_privacy.o)
                                                  ../../../../../../Library/Bluetooth_LE/library/libbluenrg1_stack.a(sdb.o)
                                                  ../../../../../../Library/Bluetooth_LE/library/libbluenrg1_stack.a(rom_ll_ll_routines.o)
                                                  ../../../../../../Library/Bluetooth_LE/library/libbluenrg1_stack.a(rom_gap.o)
                                                  ../../../../../../Library/Bluetooth_LE/library/libbluenrg1_stack.a(hci.o)
LL_LE_Read_Resolvable_Address                     ../../../../../../Library/Bluetooth_LE/library/libbluenrg1_stack.a(ll_privacy.o)
                                                  ../../../../../../Library/Bluetooth_LE/library/libbluenrg1_stack.a(hci_privacy.o)
LL_LE_Read_Resolving_List_Size                    ../../../../../../Library/Bluetooth_LE/library/libbluenrg1_stack.a(ll_privacy.o)
                                                  ../../../../../../Library/Bluetooth_LE/library/libbluenrg1_stack.a(hci_privacy.o)
LL_LE_Read_White_List_Size                        ../../../../../../Library/Bluetooth_LE/library/libbluenrg1_stack.a(ll_privacy.o)
                                                  ../../../../../../Library/Bluetooth_LE/library/libbluenrg1_stack.a(hci.o)
LL_LE_Remove_Device_From_Resolving_List           ../../../../../../Library/Bluetooth_LE/library/libbluenrg1_stack.a(ll_privacy.o)
                                                  ../../../../../../Library/Bluetooth_LE/library/libbluenrg1_stack.a(hci_privacy.o)
LL_LE_Remove_Device_From_White_List               ../../../../../../Library/Bluetooth_LE/library/libbluenrg1_stack.a(ll_privacy.o)
                                                  ../../../../../../Library/Bluetooth_LE/library/libbluenrg1_stack.a(hci.o)
LL_LE_Set_Address_Resolution_Enable               ../../../../../../Library/Bluetooth_LE/library/libbluenrg1_stack.a(ll_privacy.o)
                                                  ../../../../../../Library/Bluetooth_LE/library/libbluenrg1_stack.a(routines_support.o)
                                                  ../../../../../../Library/Bluetooth_LE/library/libbluenrg1_stack.a(hci_privacy.o)
LL_LE_Set_Privacy_Mode                            ../../../../../../Library/Bluetooth_LE/library/libbluenrg1_stack.a(ll_privacy.o)
                                                  ../../../../../../Library/Bluetooth_LE/library/libbluenrg1_stack.a(hci_privacy.o)
LL_LE_Set_Resolvable_Private_Address_Timeout      ../../../../../../Library/Bluetooth_LE/library/libbluenrg1_stack.a(ll_privacy.o)
                                                  ../../../../../../Library/Bluetooth_LE/library/libbluenrg1_stack.a(hci_privacy.o)
                                                  ../../../../../../Library/Bluetooth_LE/library/libbluenrg1_stack.a(gap.o)
                                                  Stack/stack_user_cfg.o
LL_LE_Set_Resolvable_Private_Address_Timeout_ucfg Stack/stack_user_cfg.o
LL_Rcv_ACL_Data                                   ../../../../../../Library/Bluetooth_LE/library/libbluenrg1_stack.a(rom_ll_ll_routines.o)
LL_Read_RSSI                                      ../../../../../../Library/Bluetooth_LE/library/libbluenrg1_stack.a(rom_ll_routines_support.o)
                                                  ../../../../../../Library/Bluetooth_LE/library/libbluenrg1_stack.a(hci.o)
LL_Read_Remote_Used_Features                      ../../../../../../Library/Bluetooth_LE/library/libbluenrg1_stack.a(rom_ll_ll_routines_master.o)
                                                  ../../../../../../Library/Bluetooth_LE/library/libbluenrg1_stack.a(hci.o)
LL_Read_Remote_Version_Info                       ../../../../../../Library/Bluetooth_LE/library/libbluenrg1_stack.a(ll_routines.o)
                                                  ../../../../../../Library/Bluetooth_LE/library/libbluenrg1_stack.a(hci.o)
LL_Send_ACL_Data                                  ../../../../../../Library/Bluetooth_LE/library/libbluenrg1_stack.a(rom_ll_ll_routines.o)
                                                  ../../../../../../Library/Bluetooth_LE/library/libbluenrg1_stack.a(acl.o)
LL_Send_Disconnection_Req                         ../../../../../../Library/Bluetooth_LE/library/libbluenrg1_stack.a(ll_routines.o)
LL_Send_Length_Resp                               ../../../../../../Library/Bluetooth_LE/library/libbluenrg1_stack.a(ll_routines.o)
                                                  Stack/stack_user_cfg.o
LL_Send_Length_Resp_ucfg                          Stack/stack_user_cfg.o
                                                  ../../../../../../Library/Bluetooth_LE/library/libbluenrg1_stack.a(isr_postproc.o)
LL_SetAddressResolutionEnable                     ../../../../../../Library/Bluetooth_LE/library/libbluenrg1_stack.a(routines_support.o)
                                                  ../../../../../../Library/Bluetooth_LE/library/libbluenrg1_stack.a(gap.o)
                                                  Stack/stack_user_cfg.o
LL_SetAddressResolutionEnable_ucfg                Stack/stack_user_cfg.o
LL_SetDisableLatency                              ../../../../../../Library/Bluetooth_LE/library/libbluenrg1_stack.a(routines_support.o)
LL_Set_Address                                    ../../../../../../Library/Bluetooth_LE/library/libbluenrg1_stack.a(rom_ll_ll_routines.o)
LL_Set_Adv_Data                                   ../../../../../../Library/Bluetooth_LE/library/libbluenrg1_stack.a(rom_ll_ll_routines.o)
                                                  ../../../../../../Library/Bluetooth_LE/library/libbluenrg1_stack.a(rom_gap_rom.o)
                                                  ../../../../../../Library/Bluetooth_LE/library/libbluenrg1_stack.a(hci.o)
                                                  ../../../../../../Library/Bluetooth_LE/library/libbluenrg1_stack.a(gap.o)
LL_Set_Adv_PDU_Format                             ../../../../../../Library/Bluetooth_LE/library/libbluenrg1_stack.a(rom_ll_ll_routines.o)
LL_Set_Adv_Params                                 ../../../../../../Library/Bluetooth_LE/library/libbluenrg1_stack.a(rom_ll_ll_routines.o)
                                                  ../../../../../../Library/Bluetooth_LE/library/libbluenrg1_stack.a(hci.o)
                                                  ../../../../../../Library/Bluetooth_LE/library/libbluenrg1_stack.a(gap.o)
LL_Set_Advertising_Buffers                        ../../../../../../Library/Bluetooth_LE/library/libbluenrg1_stack.a(rom_ll_ll_routines.o)
LL_Set_Channel_Classification                     ../../../../../../Library/Bluetooth_LE/library/libbluenrg1_stack.a(rom_ll_ll_routines_master.o)
                                                  ../../../../../../Library/Bluetooth_LE/library/libbluenrg1_stack.a(hci.o)
LL_Set_Data_Length                                ../../../../../../Library/Bluetooth_LE/library/libbluenrg1_stack.a(ll_routines.o)
                                                  ../../../../../../Library/Bluetooth_LE/library/libbluenrg1_stack.a(hci.o)
LL_Set_LTK                                        ../../../../../../Library/Bluetooth_LE/library/libbluenrg1_stack.a(ll_routines_support.o)
                                                  ../../../../../../Library/Bluetooth_LE/library/libbluenrg1_stack.a(hci.o)
LL_Set_OwnAddress                                 ../../../../../../Library/Bluetooth_LE/library/libbluenrg1_stack.a(rom_ll_ll_routines.o)
LL_Set_Scan_Params                                ../../../../../../Library/Bluetooth_LE/library/libbluenrg1_stack.a(rom_ll_ll_routines_master.o)
                                                  ../../../../../../Library/Bluetooth_LE/library/libbluenrg1_stack.a(rom_gap.o)
                                                  ../../../../../../Library/Bluetooth_LE/library/libbluenrg1_stack.a(hci.o)
                                                  ../../../../../../Library/Bluetooth_LE/library/libbluenrg1_stack.a(gap.o)
LL_Set_Scan_Resp_Data                             ../../../../../../Library/Bluetooth_LE/library/libbluenrg1_stack.a(rom_ll_ll_routines.o)
                                                  ../../../../../../Library/Bluetooth_LE/library/libbluenrg1_stack.a(hci.o)
LL_Sleep_Req                                      ../../../../../../Library/Bluetooth_LE/library/libbluenrg1_stack.a(bluenrg_main_func_speed.o)
                                                  ../../../../../../Library/Bluetooth_LE/library/libbluenrg1_stack.a(advance_wakeup_time.o)
                                                  ../../../../../../Library/Bluetooth_LE/library/libbluenrg1_stack.a(routines_support.o)
LL_Start_Connection_Update                        ../../../../../../Library/Bluetooth_LE/library/libbluenrg1_stack.a(ll_routines_master.o)
                                                  ../../../../../../Library/Bluetooth_LE/library/libbluenrg1_stack.a(rom_gap.o)
                                                  ../../../../../../Library/Bluetooth_LE/library/libbluenrg1_stack.a(l2cap.o)
                                                  ../../../../../../Library/Bluetooth_LE/library/libbluenrg1_stack.a(hci.o)
LL_Start_Encryption                               ../../../../../../Library/Bluetooth_LE/library/libbluenrg1_stack.a(rom_ll_ll_routines_master.o)
                                                  ../../../../../../Library/Bluetooth_LE/library/libbluenrg1_stack.a(securitymgr.o)
                                                  ../../../../../../Library/Bluetooth_LE/library/libbluenrg1_stack.a(hci.o)
                                                  Stack/stack_user_cfg.o
LL_Start_Encryption_ucfg                          Stack/stack_user_cfg.o
LL_Test_Receiver                                  ../../../../../../Library/Bluetooth_LE/library/libbluenrg1_stack.a(rom_ll_routines_support.o)
                                                  ../../../../../../Library/Bluetooth_LE/library/libbluenrg1_stack.a(hci.o)
LL_Test_Stop                                      ../../../../../../Library/Bluetooth_LE/library/libbluenrg1_stack.a(rom_ll_routines_support.o)
                                                  ../../../../../../Library/Bluetooth_LE/library/libbluenrg1_stack.a(hci.o)
LL_Test_Transmitter                               ../../../../../../Library/Bluetooth_LE/library/libbluenrg1_stack.a(rom_ll_routines_support.o)
                                                  ../../../../../../Library/Bluetooth_LE/library/libbluenrg1_stack.a(hci.o)
LL_Update_Advertising_Buffers                     ../../../../../../Library/Bluetooth_LE/library/libbluenrg1_stack.a(rom_ll_ll_routines.o)
                                                  ../../../../../../Library/Bluetooth_LE/library/libbluenrg1_stack.a(advance_wakeup_time.o)
LL_Update_Scanning_Initiating_Buffers             ../../../../../../Library/Bluetooth_LE/library/libbluenrg1_stack.a(rom_ll_ll_routines.o)
                                                  ../../../../../../Library/Bluetooth_LE/library/libbluenrg1_stack.a(advance_wakeup_time.o)
LL_Write_Default_Data_Length                      ../../../../../../Library/Bluetooth_LE/library/libbluenrg1_stack.a(ll_routines.o)
                                                  ../../../../../../Library/Bluetooth_LE/library/libbluenrg1_stack.a(hci.o)
LL_busy                                           ../../../../../../Library/Bluetooth_LE/library/libbluenrg1_stack.a(rom_ll_ll_routines.o)
                                                  ../../../../../../Library/Bluetooth_LE/library/libbluenrg1_stack.a(bluenrg_hal_aci.o)
LL_receive_data                                   ../../../../../../Library/Bluetooth_LE/library/libbluenrg1_stack.a(isr_routines.o)
                                                  ../../../../../../Library/Bluetooth_LE/library/libbluenrg1_stack.a(ll_isr.o)
LL_update_proc                                    ../../../../../../Library/Bluetooth_LE/library/libbluenrg1_stack.a(rom_ll_isr_routines.o)
                                                  ../../../../../../Library/Bluetooth_LE/library/libbluenrg1_stack.a(isr_routines.o)
                                                  ../../../../../../Library/Bluetooth_LE/library/libbluenrg1_stack.a(ll_isr.o)
Lib$$Request$$armlib                              ../../../../../../Library/cryptolib/libcrypto.a(crypto.o)
                                                  ../../../../../../Library/Bluetooth_LE/library/libbluenrg1_stack.a(isr_routines.o)
                                                  ../../../../../../Library/Bluetooth_LE/library/libbluenrg1_stack.a(isr_postproc.o)
                                                  ../../../../../../Library/Bluetooth_LE/library/libbluenrg1_stack.a(device_id_data.o)
                                                  ../../../../../../Library/Bluetooth_LE/library/libbluenrg1_stack.a(bluenrg_main_func_speed.o)
                                                  ../../../../../../Library/Bluetooth_LE/library/libbluenrg1_stack.a(att.o)
                                                  ../../../../../../Library/Bluetooth_LE/library/libbluenrg1_stack.a(aes128cmac.o)
                                                  ../../../../../../Library/Bluetooth_LE/library/libbluenrg1_stack.a(advance_wakeup_time.o)
                                                  ../../../../../../Library/Bluetooth_LE/library/libbluenrg1_stack.a(acl_list.o)
                                                  ../../../../../../Library/Bluetooth_LE/library/libbluenrg1_stack.a(acl.o)
                                                  ../../../../../../Library/Bluetooth_LE/library/libbluenrg1_stack.a(aci_events.o)
                                                  ../../../../../../Library/Bluetooth_LE/library/libbluenrg1_stack.a(utils.o)
                                                  ../../../../../../Library/Bluetooth_LE/library/libbluenrg1_stack.a(smp_scv42_sap.o)
                                                  ../../../../../../Library/Bluetooth_LE/library/libbluenrg1_stack.a(smp_scv42_caf.o)
                                                  ../../../../../../Library/Bluetooth_LE/library/libbluenrg1_stack.a(smp_scv42_api.o)
                                                  ../../../../../../Library/Bluetooth_LE/library/libbluenrg1_stack.a(smp_common.o)
                                                  ../../../../../../Library/Bluetooth_LE/library/libbluenrg1_stack.a(smp_algo_sap.o)
                                                  ../../../../../../Library/Bluetooth_LE/library/libbluenrg1_stack.a(securitymgr.o)
                                                  ../../../../../../Library/Bluetooth_LE/library/libbluenrg1_stack.a(sdb.o)
                                                  ../../../../../../Library/Bluetooth_LE/library/libbluenrg1_stack.a(routines_support.o)
                                                  ../../../../../../Library/Bluetooth_LE/library/libbluenrg1_stack.a(rom_ll_timehandling.o)
                                                  ../../../../../../Library/Bluetooth_LE/library/libbluenrg1_stack.a(rom_ll_routines_support.o)
                                                  ../../../../../../Library/Bluetooth_LE/library/libbluenrg1_stack.a(rom_ll_ll_routines_master.o)
                                                  ../../../../../../Library/Bluetooth_LE/library/libbluenrg1_stack.a(rom_ll_ll_routines.o)
                                                  ../../../../../../Library/Bluetooth_LE/library/libbluenrg1_stack.a(rom_ll_isr_routines.o)
                                                  ../../../../../../Library/Bluetooth_LE/library/libbluenrg1_stack.a(rom_ll_isr_postproc.o)
                                                  ../../../../../../Library/Bluetooth_LE/library/libbluenrg1_stack.a(rom_list.o)
                                                  ../../../../../../Library/Bluetooth_LE/library/libbluenrg1_stack.a(rom_gatt_server.o)
                                                  ../../../../../../Library/Bluetooth_LE/library/libbluenrg1_stack.a(rom_gap_rom.o)
                                                  ../../../../../../Library/Bluetooth_LE/library/libbluenrg1_stack.a(rom_gap.o)
                                                  ../../../../../../Library/Bluetooth_LE/library/libbluenrg1_stack.a(rom_att.o)
                                                  ../../../../../../Library/Bluetooth_LE/library/libbluenrg1_stack.a(pm.o)
                                                  ../../../../../../Library/Bluetooth_LE/library/libbluenrg1_stack.a(pka.o)
                                                  ../../../../../../Library/Bluetooth_LE/library/libbluenrg1_stack.a(nvm.o)
                                                  ../../../../../../Library/Bluetooth_LE/library/libbluenrg1_stack.a(multi_master_time.o)
                                                  ../../../../../../Library/Bluetooth_LE/library/libbluenrg1_stack.a(mem_buff.o)
                                                  ../../../../../../Library/Bluetooth_LE/library/libbluenrg1_stack.a(mem_alloc.o)
                                                  ../../../../../../Library/Bluetooth_LE/library/libbluenrg1_stack.a(ll_routines_support.o)
                                                  ../../../../../../Library/Bluetooth_LE/library/libbluenrg1_stack.a(ll_routines_master.o)
                                                  ../../../../../../Library/Bluetooth_LE/library/libbluenrg1_stack.a(ll_routines.o)
                                                  ../../../../../../Library/Bluetooth_LE/library/libbluenrg1_stack.a(ll_privacy.o)
                                                  ../../../../../../Library/Bluetooth_LE/library/libbluenrg1_stack.a(ll_isr.o)
                                                  ../../../../../../Library/Bluetooth_LE/library/libbluenrg1_stack.a(l2cap.o)
                                                  ../../../../../../Library/Bluetooth_LE/library/libbluenrg1_stack.a(host_timer.o)
                                                  ../../../../../../Library/Bluetooth_LE/library/libbluenrg1_stack.a(hci_privacy.o)
                                                  ../../../../../../Library/Bluetooth_LE/library/libbluenrg1_stack.a(hci.o)
                                                  ../../../../../../Library/Bluetooth_LE/library/libbluenrg1_stack.a(hal.o)
                                                  ../../../../../../Library/Bluetooth_LE/library/libbluenrg1_stack.a(gatt_server.o)
                                                  ../../../../../../Library/Bluetooth_LE/library/libbluenrg1_stack.a(gatt_client.o)
                                                  ../../../../../../Library/Bluetooth_LE/library/libbluenrg1_stack.a(gap.o)
                                                  ../../../../../../Library/Bluetooth_LE/library/libbluenrg1_stack.a(bluenrg_main_func.o)
                                                  ../../../../../../Library/Bluetooth_LE/library/libbluenrg1_stack.a(bluenrg_l2cap_aci.o)
                                                  ../../../../../../Library/Bluetooth_LE/library/libbluenrg1_stack.a(bluenrg_hal_aci.o)
                                                  ../../../../../../Library/Bluetooth_LE/library/libbluenrg1_stack.a(bluenrg_gatt_aci.o)
                                                  ../../../../../../Library/Bluetooth_LE/library/libbluenrg1_stack.a(bluenrg_gap_aci.o)
List_Circular_Get_Size                            ../../../../../../Library/Bluetooth_LE/library/libbluenrg1_stack.a(rom_list.o)
                                                  ../../../../../../Library/Bluetooth_LE/library/libbluenrg1_stack.a(gatt_server.o)
List_Circular_Insert_Head                         ../../../../../../Library/Bluetooth_LE/library/libbluenrg1_stack.a(rom_list.o)
List_Circular_Insert_Node                         ../../../../../../Library/Bluetooth_LE/library/libbluenrg1_stack.a(rom_list.o)
List_Circular_Insert_Tail                         ../../../../../../Library/Bluetooth_LE/library/libbluenrg1_stack.a(rom_list.o)
                                                  ../../../../../../Library/Bluetooth_LE/library/libbluenrg1_stack.a(host_timer.o)
                                                  ../../../../../../Library/Bluetooth_LE/library/libbluenrg1_stack.a(gatt_server.o)
List_Circular_Node_Present                        ../../../../../../Library/Bluetooth_LE/library/libbluenrg1_stack.a(rom_list.o)
List_Circular_Remove_Head                         ../../../../../../Library/Bluetooth_LE/library/libbluenrg1_stack.a(rom_list.o)
                                                  ../../../../../../Library/Bluetooth_LE/library/libbluenrg1_stack.a(host_timer.o)
List_Circular_Remove_Node                         ../../../../../../Library/Bluetooth_LE/library/libbluenrg1_stack.a(rom_list.o)
                                                  ../../../../../../Library/Bluetooth_LE/library/libbluenrg1_stack.a(host_timer.o)
                                                  ../../../../../../Library/Bluetooth_LE/library/libbluenrg1_stack.a(gatt_server.o)
MFT1A_Handler                                     Startup/system_bluenrg1.o
MFT1B_Handler                                     Startup/system_bluenrg1.o
MFT2A_Handler                                     Startup/system_bluenrg1.o
MFT2B_Handler                                     Startup/system_bluenrg1.o
MFT_ClearIT                                       Library/BlueNRG1_mft.o
MFT_Cmd                                           Library/BlueNRG1_mft.o
MFT_DeInit                                        Library/BlueNRG1_mft.o
MFT_EnableIT                                      Library/BlueNRG1_mft.o
MFT_GetCounter1                                   Library/BlueNRG1_mft.o
MFT_GetCounter2                                   Library/BlueNRG1_mft.o
MFT_Init                                          Library/BlueNRG1_mft.o
MFT_PulseTrainEventTriggerStatus                  Library/BlueNRG1_mft.o
MFT_PulseTrainSoftwareTrigger                     Library/BlueNRG1_mft.o
MFT_PulseTrainTriggerSelect                       Library/BlueNRG1_mft.o
MFT_SelectCapturePin                              Library/BlueNRG1_mft.o
MFT_SetCounter                                    Library/BlueNRG1_mft.o
MFT_SetCounter1                                   Library/BlueNRG1_mft.o
MFT_SetCounter2                                   Library/BlueNRG1_mft.o
MFT_StatusIT                                      Library/BlueNRG1_mft.o
MFT_StructInit                                    Library/BlueNRG1_mft.o
MFT_TnEDGES                                       Library/BlueNRG1_mft.o
MFT_TnXEN                                         Library/BlueNRG1_mft.o
Mem_Buff_Append                                   ../../../../../../Library/Bluetooth_LE/library/libbluenrg1_stack.a(mem_buff.o)
                                                  ../../../../../../Library/Bluetooth_LE/library/libbluenrg1_stack.a(l2cap.o)
Mem_Buff_Block_Copy                               ../../../../../../Library/Bluetooth_LE/library/libbluenrg1_stack.a(mem_buff.o)
                                                  ../../../../../../Library/Bluetooth_LE/library/libbluenrg1_stack.a(ll_isr.o)
Mem_Buff_Block_Write                              ../../../../../../Library/Bluetooth_LE/library/libbluenrg1_stack.a(mem_buff.o)
                                                  ../../../../../../Library/Bluetooth_LE/library/libbluenrg1_stack.a(ll_routines_master.o)
Mem_Buff_Clone                                    ../../../../../../Library/Bluetooth_LE/library/libbluenrg1_stack.a(mem_buff.o)
                                                  ../../../../../../Library/Bluetooth_LE/library/libbluenrg1_stack.a(pm.o)
Mem_Buff_Cmp                                      ../../../../../../Library/Bluetooth_LE/library/libbluenrg1_stack.a(mem_buff.o)
                                                  ../../../../../../Library/Bluetooth_LE/library/libbluenrg1_stack.a(pm.o)
Mem_Buff_Compact                                  ../../../../../../Library/Bluetooth_LE/library/libbluenrg1_stack.a(mem_buff.o)
                                                  ../../../../../../Library/Bluetooth_LE/library/libbluenrg1_stack.a(pm.o)
Mem_Buff_Get                                      ../../../../../../Library/Bluetooth_LE/library/libbluenrg1_stack.a(mem_buff.o)
                                                  ../../../../../../Library/Bluetooth_LE/library/libbluenrg1_stack.a(pm.o)
Mem_Buff_Get_Chain_Count                          ../../../../../../Library/Bluetooth_LE/library/libbluenrg1_stack.a(mem_buff.o)
                                                  ../../../../../../Library/Bluetooth_LE/library/libbluenrg1_stack.a(pm.o)
Mem_Buff_Get_Chain_Size                           ../../../../../../Library/Bluetooth_LE/library/libbluenrg1_stack.a(mem_buff.o)
                                                  ../../../../../../Library/Bluetooth_LE/library/libbluenrg1_stack.a(pm.o)
Mem_Buff_Init                                     ../../../../../../Library/Bluetooth_LE/library/libbluenrg1_stack.a(mem_buff.o)
                                                  ../../../../../../Library/Bluetooth_LE/library/libbluenrg1_stack.a(pm.o)
Mem_Buff_Read                                     ../../../../../../Library/Bluetooth_LE/library/libbluenrg1_stack.a(mem_buff.o)
                                                  ../../../../../../Library/Bluetooth_LE/library/libbluenrg1_stack.a(pm.o)
Mem_Buff_Release                                  ../../../../../../Library/Bluetooth_LE/library/libbluenrg1_stack.a(mem_buff.o)
                                                  ../../../../../../Library/Bluetooth_LE/library/libbluenrg1_stack.a(pm.o)
Mem_Buff_Resize                                   ../../../../../../Library/Bluetooth_LE/library/libbluenrg1_stack.a(mem_buff.o)
                                                  ../../../../../../Library/Bluetooth_LE/library/libbluenrg1_stack.a(pm.o)
Mem_Buff_Write                                    ../../../../../../Library/Bluetooth_LE/library/libbluenrg1_stack.a(mem_buff.o)
                                                  ../../../../../../Library/Bluetooth_LE/library/libbluenrg1_stack.a(pm.o)
NMI_Handler                                       User/BlueNRG1_it.o
                                                  Startup/system_bluenrg1.o
NVIC_Configuration                                User/hw_config.o
                                                  User/transport_layer.o
NVIC_DisableCSnIrq                                User/hw_config.o
NVIC_DisableRadioIrq                              User/hw_config.o
NVIC_EnableCSnIrq                                 User/hw_config.o
NVIC_EnableRadioIrq                               User/hw_config.o
NVIC_Init                                         Library/misc.o
                                                  User/hw_config.o
NVM_Handler                                       Startup/system_bluenrg1.o
Osal_MemCmp                                       Hal/osal.o
                                                  ../../../../../../Library/Bluetooth_LE/library/libbluenrg1_stack.a(att.o)
                                                  ../../../../../../Library/Bluetooth_LE/library/libbluenrg1_stack.a(smp_scv42_caf.o)
                                                  ../../../../../../Library/Bluetooth_LE/library/libbluenrg1_stack.a(smp_common.o)
                                                  ../../../../../../Library/Bluetooth_LE/library/libbluenrg1_stack.a(smp_algo_sap.o)
                                                  ../../../../../../Library/Bluetooth_LE/library/libbluenrg1_stack.a(securitymgr.o)
                                                  ../../../../../../Library/Bluetooth_LE/library/libbluenrg1_stack.a(sdb.o)
                                                  ../../../../../../Library/Bluetooth_LE/library/libbluenrg1_stack.a(rom_gatt_server.o)
                                                  ../../../../../../Library/Bluetooth_LE/library/libbluenrg1_stack.a(rom_gap.o)
                                                  ../../../../../../Library/Bluetooth_LE/library/libbluenrg1_stack.a(rom_att.o)
                                                  ../../../../../../Library/Bluetooth_LE/library/libbluenrg1_stack.a(mem_buff.o)
                                                  ../../../../../../Library/Bluetooth_LE/library/libbluenrg1_stack.a(ll_privacy.o)
                                                  ../../../../../../Library/Bluetooth_LE/library/libbluenrg1_stack.a(gatt_server.o)
                                                  ../../../../../../Library/Bluetooth_LE/library/libbluenrg1_stack.a(gatt_client.o)
Osal_MemCpy                                       Hal/osal.o
                                                  ../../../../../../Library/Bluetooth_LE/library/libbluenrg1_stack.a(device_id_data.o)
                                                  ../../../../../../Library/Bluetooth_LE/library/libbluenrg1_stack.a(att.o)
                                                  ../../../../../../Library/Bluetooth_LE/library/libbluenrg1_stack.a(smp_scv42_sap.o)
                                                  ../../../../../../Library/Bluetooth_LE/library/libbluenrg1_stack.a(smp_scv42_caf.o)
                                                  ../../../../../../Library/Bluetooth_LE/library/libbluenrg1_stack.a(smp_common.o)
                                                  ../../../../../../Library/Bluetooth_LE/library/libbluenrg1_stack.a(smp_algo_sap.o)
                                                  ../../../../../../Library/Bluetooth_LE/library/libbluenrg1_stack.a(securitymgr.o)
                                                  ../../../../../../Library/Bluetooth_LE/library/libbluenrg1_stack.a(sdb.o)
                                                  ../../../../../../Library/Bluetooth_LE/library/libbluenrg1_stack.a(rom_ll_ll_routines.o)
                                                  ../../../../../../Library/Bluetooth_LE/library/libbluenrg1_stack.a(rom_gatt_server.o)
                                                  ../../../../../../Library/Bluetooth_LE/library/libbluenrg1_stack.a(rom_gap_rom.o)
                                                  ../../../../../../Library/Bluetooth_LE/library/libbluenrg1_stack.a(rom_gap.o)
                                                  ../../../../../../Library/Bluetooth_LE/library/libbluenrg1_stack.a(rom_att.o)
                                                  ../../../../../../Library/Bluetooth_LE/library/libbluenrg1_stack.a(multi_master_time.o)
                                                  ../../../../../../Library/Bluetooth_LE/library/libbluenrg1_stack.a(mem_buff.o)
                                                  ../../../../../../Library/Bluetooth_LE/library/libbluenrg1_stack.a(ll_routines_support.o)
                                                  ../../../../../../Library/Bluetooth_LE/library/libbluenrg1_stack.a(ll_routines_master.o)
                                                  ../../../../../../Library/Bluetooth_LE/library/libbluenrg1_stack.a(ll_privacy.o)
                                                  ../../../../../../Library/Bluetooth_LE/library/libbluenrg1_stack.a(l2cap.o)
                                                  ../../../../../../Library/Bluetooth_LE/library/libbluenrg1_stack.a(host_timer.o)
                                                  ../../../../../../Library/Bluetooth_LE/library/libbluenrg1_stack.a(hci_privacy.o)
                                                  ../../../../../../Library/Bluetooth_LE/library/libbluenrg1_stack.a(hci.o)
                                                  ../../../../../../Library/Bluetooth_LE/library/libbluenrg1_stack.a(hal.o)
                                                  ../../../../../../Library/Bluetooth_LE/library/libbluenrg1_stack.a(gatt_server.o)
                                                  ../../../../../../Library/Bluetooth_LE/library/libbluenrg1_stack.a(gatt_client.o)
                                                  ../../../../../../Library/Bluetooth_LE/library/libbluenrg1_stack.a(gap.o)
                                                  ../../../../../../Library/Bluetooth_LE/library/libbluenrg1_stack.a(bluenrg_main_func.o)
                                                  ../../../../../../Library/Bluetooth_LE/library/libbluenrg1_stack.a(bluenrg_hal_aci.o)
                                                  ../../../../../../Library/Bluetooth_LE/library/libbluenrg1_stack.a(bluenrg_gatt_aci.o)
                                                  ../../../../../../Library/Bluetooth_LE/library/libbluenrg1_stack.a(bluenrg_gap_aci.o)
                                                  User/transport_layer.o
                                                  User/DTM_cmd_db.o
                                                  Hal/fifo.o
Osal_MemSet                                       Hal/osal.o
                                                  ../../../../../../Library/Bluetooth_LE/library/libbluenrg1_stack.a(aci_events.o)
                                                  ../../../../../../Library/Bluetooth_LE/library/libbluenrg1_stack.a(smp_scv42_caf.o)
                                                  ../../../../../../Library/Bluetooth_LE/library/libbluenrg1_stack.a(smp_common.o)
                                                  ../../../../../../Library/Bluetooth_LE/library/libbluenrg1_stack.a(smp_algo_sap.o)
                                                  ../../../../../../Library/Bluetooth_LE/library/libbluenrg1_stack.a(securitymgr.o)
                                                  ../../../../../../Library/Bluetooth_LE/library/libbluenrg1_stack.a(sdb.o)
                                                  ../../../../../../Library/Bluetooth_LE/library/libbluenrg1_stack.a(rom_gap.o)
                                                  ../../../../../../Library/Bluetooth_LE/library/libbluenrg1_stack.a(pm.o)
                                                  ../../../../../../Library/Bluetooth_LE/library/libbluenrg1_stack.a(ll_privacy.o)
                                                  ../../../../../../Library/Bluetooth_LE/library/libbluenrg1_stack.a(hci.o)
                                                  ../../../../../../Library/Bluetooth_LE/library/libbluenrg1_stack.a(hal.o)
                                                  ../../../../../../Library/Bluetooth_LE/library/libbluenrg1_stack.a(gatt_server.o)
                                                  ../../../../../../Library/Bluetooth_LE/library/libbluenrg1_stack.a(gap.o)
                                                  ../../../../../../Library/Bluetooth_LE/library/libbluenrg1_stack.a(bluenrg_main_func.o)
PKA_ClearITPendingBit                             Library/BlueNRG1_pka.o
PKA_GetData                                       Library/BlueNRG1_pka.o
                                                  ../../../../../../Library/Bluetooth_LE/library/libbluenrg1_stack.a(hci.o)
PKA_GetFlagStatus                                 Library/BlueNRG1_pka.o
PKA_GetProcessStatus                              Library/BlueNRG1_pka.o
                                                  ../../../../../../Library/Bluetooth_LE/library/libbluenrg1_stack.a(hci.o)
PKA_Handler                                       Startup/system_bluenrg1.o
PKA_ITConfig                                      Library/BlueNRG1_pka.o
PKA_Offline_Processing                            ../../../../../../Library/Bluetooth_LE/library/libbluenrg1_stack.a(hci.o)
                                                  Stack/stack_user_cfg.o
PKA_Offline_Processing_ucfg                       Stack/stack_user_cfg.o
PKA_Reset                                         Library/BlueNRG1_pka.o
                                                  ../../../../../../Library/Bluetooth_LE/library/libbluenrg1_stack.a(bluenrg_main_func.o)
PKA_SetData                                       Library/BlueNRG1_pka.o
                                                  ../../../../../../Library/Bluetooth_LE/library/libbluenrg1_stack.a(pka.o)
PKA_StartProcessing                               Library/BlueNRG1_pka.o
                                                  ../../../../../../Library/Bluetooth_LE/library/libbluenrg1_stack.a(pka.o)
PKA_VerifyProcess                                 Library/BlueNRG1_pka.o
                                                  ../../../../../../Library/Bluetooth_LE/library/libbluenrg1_stack.a(hci.o)
PKA_WaitProcess                                   Library/BlueNRG1_pka.o
PM_Clone_Pckt                                     ../../../../../../Library/Bluetooth_LE/library/libbluenrg1_stack.a(pm.o)
                                                  ../../../../../../Library/Bluetooth_LE/library/libbluenrg1_stack.a(att.o)
PM_Compact                                        ../../../../../../Library/Bluetooth_LE/library/libbluenrg1_stack.a(pm.o)
                                                  ../../../../../../Library/Bluetooth_LE/library/libbluenrg1_stack.a(l2cap.o)
PM_Copy_Pckt_Data                                 ../../../../../../Library/Bluetooth_LE/library/libbluenrg1_stack.a(pm.o)
                                                  ../../../../../../Library/Bluetooth_LE/library/libbluenrg1_stack.a(att.o)
                                                  ../../../../../../Library/Bluetooth_LE/library/libbluenrg1_stack.a(smp_scv42_caf.o)
                                                  ../../../../../../Library/Bluetooth_LE/library/libbluenrg1_stack.a(smp_common.o)
                                                  ../../../../../../Library/Bluetooth_LE/library/libbluenrg1_stack.a(smp_algo_sap.o)
                                                  ../../../../../../Library/Bluetooth_LE/library/libbluenrg1_stack.a(securitymgr.o)
                                                  ../../../../../../Library/Bluetooth_LE/library/libbluenrg1_stack.a(hci.o)
                                                  ../../../../../../Library/Bluetooth_LE/library/libbluenrg1_stack.a(gatt_server.o)
                                                  ../../../../../../Library/Bluetooth_LE/library/libbluenrg1_stack.a(gatt_client.o)
PM_Eng_Config                                     ../../../../../../Library/Bluetooth_LE/library/libbluenrg1_stack.a(pm.o)
                                                  ../../../../../../Library/Bluetooth_LE/library/libbluenrg1_stack.a(hal.o)
PM_Extract_Pdu_MBuff                              ../../../../../../Library/Bluetooth_LE/library/libbluenrg1_stack.a(pm.o)
                                                  ../../../../../../Library/Bluetooth_LE/library/libbluenrg1_stack.a(l2cap.o)
PM_Get_Available_Buffer                           ../../../../../../Library/Bluetooth_LE/library/libbluenrg1_stack.a(pm.o)
                                                  ../../../../../../Library/Bluetooth_LE/library/libbluenrg1_stack.a(gatt_server.o)
PM_Get_Debug_Info                                 ../../../../../../Library/Bluetooth_LE/library/libbluenrg1_stack.a(pm.o)
                                                  ../../../../../../Library/Bluetooth_LE/library/libbluenrg1_stack.a(bluenrg_hal_aci.o)
PM_Get_Mem_Buff_Count                             ../../../../../../Library/Bluetooth_LE/library/libbluenrg1_stack.a(pm.o)
                                                  ../../../../../../Library/Bluetooth_LE/library/libbluenrg1_stack.a(acl_list.o)
PM_Get_Pckt                                       ../../../../../../Library/Bluetooth_LE/library/libbluenrg1_stack.a(pm.o)
                                                  ../../../../../../Library/Bluetooth_LE/library/libbluenrg1_stack.a(isr_routines.o)
                                                  ../../../../../../Library/Bluetooth_LE/library/libbluenrg1_stack.a(smp_scv42_caf.o)
                                                  ../../../../../../Library/Bluetooth_LE/library/libbluenrg1_stack.a(smp_common.o)
                                                  ../../../../../../Library/Bluetooth_LE/library/libbluenrg1_stack.a(securitymgr.o)
                                                  ../../../../../../Library/Bluetooth_LE/library/libbluenrg1_stack.a(l2cap.o)
                                                  ../../../../../../Library/Bluetooth_LE/library/libbluenrg1_stack.a(hci.o)
                                                  ../../../../../../Library/Bluetooth_LE/library/libbluenrg1_stack.a(gatt_server.o)
                                                  ../../../../../../Library/Bluetooth_LE/library/libbluenrg1_stack.a(gatt_client.o)
PM_Init                                           ../../../../../../Library/Bluetooth_LE/library/libbluenrg1_stack.a(pm.o)
                                                  ../../../../../../Library/Bluetooth_LE/library/libbluenrg1_stack.a(bluenrg_main_func.o)
PM_Pckt_Cmp                                       ../../../../../../Library/Bluetooth_LE/library/libbluenrg1_stack.a(pm.o)
                                                  ../../../../../../Library/Bluetooth_LE/library/libbluenrg1_stack.a(att.o)
                                                  ../../../../../../Library/Bluetooth_LE/library/libbluenrg1_stack.a(smp_common.o)
                                                  ../../../../../../Library/Bluetooth_LE/library/libbluenrg1_stack.a(gatt_server.o)
                                                  ../../../../../../Library/Bluetooth_LE/library/libbluenrg1_stack.a(gatt_client.o)
PM_Release_Acl_Pckt                               ../../../../../../Library/Bluetooth_LE/library/libbluenrg1_stack.a(pm.o)
                                                  ../../../../../../Library/Bluetooth_LE/library/libbluenrg1_stack.a(att.o)
                                                  ../../../../../../Library/Bluetooth_LE/library/libbluenrg1_stack.a(smp_common.o)
                                                  ../../../../../../Library/Bluetooth_LE/library/libbluenrg1_stack.a(securitymgr.o)
                                                  ../../../../../../Library/Bluetooth_LE/library/libbluenrg1_stack.a(ll_isr.o)
                                                  ../../../../../../Library/Bluetooth_LE/library/libbluenrg1_stack.a(l2cap.o)
                                                  ../../../../../../Library/Bluetooth_LE/library/libbluenrg1_stack.a(hci.o)
                                                  ../../../../../../Library/Bluetooth_LE/library/libbluenrg1_stack.a(gatt_server.o)
                                                  ../../../../../../Library/Bluetooth_LE/library/libbluenrg1_stack.a(gatt_client.o)
PM_Resize_Pckt_Pdu_Size                           ../../../../../../Library/Bluetooth_LE/library/libbluenrg1_stack.a(pm.o)
                                                  ../../../../../../Library/Bluetooth_LE/library/libbluenrg1_stack.a(att.o)
                                                  ../../../../../../Library/Bluetooth_LE/library/libbluenrg1_stack.a(smp_scv42_caf.o)
                                                  ../../../../../../Library/Bluetooth_LE/library/libbluenrg1_stack.a(rom_att.o)
                                                  ../../../../../../Library/Bluetooth_LE/library/libbluenrg1_stack.a(gatt_server.o)
PM_Set_ConnHandle                                 ../../../../../../Library/Bluetooth_LE/library/libbluenrg1_stack.a(pm.o)
PM_Write_Pckt_Data                                ../../../../../../Library/Bluetooth_LE/library/libbluenrg1_stack.a(pm.o)
                                                  ../../../../../../Library/Bluetooth_LE/library/libbluenrg1_stack.a(att.o)
                                                  ../../../../../../Library/Bluetooth_LE/library/libbluenrg1_stack.a(smp_scv42_caf.o)
                                                  ../../../../../../Library/Bluetooth_LE/library/libbluenrg1_stack.a(smp_common.o)
                                                  ../../../../../../Library/Bluetooth_LE/library/libbluenrg1_stack.a(securitymgr.o)
                                                  ../../../../../../Library/Bluetooth_LE/library/libbluenrg1_stack.a(rom_att.o)
                                                  ../../../../../../Library/Bluetooth_LE/library/libbluenrg1_stack.a(hci.o)
                                                  ../../../../../../Library/Bluetooth_LE/library/libbluenrg1_stack.a(gatt_server.o)
PRIVWHIT_u8AddAddrInList                          ../../../../../../Library/Bluetooth_LE/library/libbluenrg1_stack.a(ll_privacy.o)
PRIVWHIT_u8RemoveAddrInList                       ../../../../../../Library/Bluetooth_LE/library/libbluenrg1_stack.a(ll_privacy.o)
PRIVWHIT_u8ReturnFreeRecordDatabase               ../../../../../../Library/Bluetooth_LE/library/libbluenrg1_stack.a(ll_privacy.o)
PRIVWHIT_u8SearchAddrInList                       ../../../../../../Library/Bluetooth_LE/library/libbluenrg1_stack.a(ll_privacy.o)
                                                  ../../../../../../Library/Bluetooth_LE/library/libbluenrg1_stack.a(rom_ll_ll_routines.o)
PRIVWHIT_vInit_Struct                             ../../../../../../Library/Bluetooth_LE/library/libbluenrg1_stack.a(ll_privacy.o)
                                                  ../../../../../../Library/Bluetooth_LE/library/libbluenrg1_stack.a(bluenrg_main_func.o)
PRIV_SearchAddrInRPAList                          ../../../../../../Library/Bluetooth_LE/library/libbluenrg1_stack.a(ll_privacy.o)
PRIV_SearchAddrInScratchList                      ../../../../../../Library/Bluetooth_LE/library/libbluenrg1_stack.a(ll_privacy.o)
PRIV_SearchAddrInWhiteList                        ../../../../../../Library/Bluetooth_LE/library/libbluenrg1_stack.a(ll_privacy.o)
                                                  ../../../../../../Library/Bluetooth_LE/library/libbluenrg1_stack.a(ll_isr.o)
PRIV_controller_privacy_csr_ucfg                  Stack/stack_user_cfg.o
                                                  ../../../../../../Library/Bluetooth_LE/library/libbluenrg1_stack.a(ll_routines.o)
                                                  ../../../../../../Library/Bluetooth_LE/library/libbluenrg1_stack.a(bluenrg_main_func.o)
PRIV_u32ProcessAdvPacket                          ../../../../../../Library/Bluetooth_LE/library/libbluenrg1_stack.a(ll_privacy.o)
                                                  Stack/stack_user_cfg.o
PRIV_u32ProcessAdvPacket_ucfg                     Stack/stack_user_cfg.o
                                                  ../../../../../../Library/Bluetooth_LE/library/libbluenrg1_stack.a(ll_isr.o)
PRIV_u8OfflineProcessing                          ../../../../../../Library/Bluetooth_LE/library/libbluenrg1_stack.a(ll_privacy.o)
                                                  Stack/stack_user_cfg.o
PRIV_u8OfflineProcessing_ucfg                     Stack/stack_user_cfg.o
                                                  ../../../../../../Library/Bluetooth_LE/library/libbluenrg1_stack.a(hci.o)
PRIV_u8ResolvePrivateAddress                      ../../../../../../Library/Bluetooth_LE/library/libbluenrg1_stack.a(ll_privacy.o)
PRIV_u8ResolvePrivateAddressUnit                  ../../../../../../Library/Bluetooth_LE/library/libbluenrg1_stack.a(ll_privacy.o)
PRIV_vGeneratePrivateAddress                      ../../../../../../Library/Bluetooth_LE/library/libbluenrg1_stack.a(ll_privacy.o)
                                                  Stack/stack_user_cfg.o
PRIV_vGeneratePrivateAddress_ucfg                 Stack/stack_user_cfg.o
                                                  ../../../../../../Library/Bluetooth_LE/library/libbluenrg1_stack.a(rom_ll_ll_routines.o)
PRIV_vGenerate_hci_le_direct_advertising_report_event ../../../../../../Library/Bluetooth_LE/library/libbluenrg1_stack.a(ll_privacy.o)
                                                  Stack/stack_user_cfg.o
PRIV_vGenerate_hci_le_direct_advertising_report_event_ucfg Stack/stack_user_cfg.o
                                                  ../../../../../../Library/Bluetooth_LE/library/libbluenrg1_stack.a(ll_routines_master.o)
PRIV_vGenerate_hci_le_enhanced_connection_complete_event ../../../../../../Library/Bluetooth_LE/library/libbluenrg1_stack.a(ll_privacy.o)
                                                  Stack/stack_user_cfg.o
PRIV_vGenerate_hci_le_enhanced_connection_complete_event_ucfg Stack/stack_user_cfg.o
                                                  ../../../../../../Library/Bluetooth_LE/library/libbluenrg1_stack.a(ll_routines_master.o)
PendSV_Handler                                    Startup/system_bluenrg1.o
Prepare_Write_Resp                                ../../../../../../Library/Bluetooth_LE/library/libbluenrg1_stack.a(att.o)
                                                  ../../../../../../Library/Bluetooth_LE/library/libbluenrg1_stack.a(gatt_server.o)
Process_Peer_Client_Data                          ../../../../../../Library/Bluetooth_LE/library/libbluenrg1_stack.a(gatt_server.o)
Process_Peer_Server_Data                          ../../../../../../Library/Bluetooth_LE/library/libbluenrg1_stack.a(gatt_server.o)
RAL_Isr                                           ../../../../../../Library/Bluetooth_LE/library/libbluenrg1_stack.a(ll_isr.o)
                                                  User/BlueNRG1_it.o
RESET_HANDLER                                     Startup/system_bluenrg1.o
RTC_AutoStart                                     Library/BlueNRG1_rtc.o
RTC_ClockwatchCmd                                 Library/BlueNRG1_rtc.o
RTC_Cmd                                           Library/BlueNRG1_rtc.o
RTC_GetNumberIrqGenerated                         Library/BlueNRG1_rtc.o
RTC_GetTimeDate                                   Library/BlueNRG1_rtc.o
RTC_GetTimerValue                                 Library/BlueNRG1_rtc.o
RTC_Handler                                       Startup/system_bluenrg1.o
RTC_IT_Clear                                      Library/BlueNRG1_rtc.o
RTC_IT_Config                                     Library/BlueNRG1_rtc.o
RTC_IT_Status                                     Library/BlueNRG1_rtc.o
RTC_Init                                          Library/BlueNRG1_rtc.o
RTC_SelectTrimmedClock                            Library/BlueNRG1_rtc.o
RTC_SetMatchTimeDate                              Library/BlueNRG1_rtc.o
RTC_SetTimeDate                                   Library/BlueNRG1_rtc.o
RTC_StructInit                                    Library/BlueNRG1_rtc.o
Read_Blob_Resp                                    ../../../../../../Library/Bluetooth_LE/library/libbluenrg1_stack.a(att.o)
                                                  ../../../../../../Library/Bluetooth_LE/library/libbluenrg1_stack.a(gatt_server.o)
Read_By_Grp_Type_Resp                             ../../../../../../Library/Bluetooth_LE/library/libbluenrg1_stack.a(att.o)
                                                  ../../../../../../Library/Bluetooth_LE/library/libbluenrg1_stack.a(gatt_server.o)
Read_By_Type_Resp                                 ../../../../../../Library/Bluetooth_LE/library/libbluenrg1_stack.a(att.o)
                                                  ../../../../../../Library/Bluetooth_LE/library/libbluenrg1_stack.a(gatt_server.o)
Read_Multi_Resp                                   ../../../../../../Library/Bluetooth_LE/library/libbluenrg1_stack.a(att.o)
                                                  ../../../../../../Library/Bluetooth_LE/library/libbluenrg1_stack.a(gatt_server.o)
Read_Resp                                         ../../../../../../Library/Bluetooth_LE/library/libbluenrg1_stack.a(att.o)
                                                  ../../../../../../Library/Bluetooth_LE/library/libbluenrg1_stack.a(gatt_server.o)
Reclassify_All_Channels                           ../../../../../../Library/Bluetooth_LE/library/libbluenrg1_stack.a(ll_routines_master.o)
                                                  Stack/stack_user_cfg.o
Reclassify_All_Channels_ucfg                      Stack/stack_user_cfg.o
                                                  ../../../../../../Library/Bluetooth_LE/library/libbluenrg1_stack.a(rom_ll_ll_routines_master.o)
SDB_Add_Record                                    ../../../../../../Library/Bluetooth_LE/library/libbluenrg1_stack.a(sdb.o)
                                                  ../../../../../../Library/Bluetooth_LE/library/libbluenrg1_stack.a(smp_common.o)
SDB_Clear                                         ../../../../../../Library/Bluetooth_LE/library/libbluenrg1_stack.a(sdb.o)
                                                  ../../../../../../Library/Bluetooth_LE/library/libbluenrg1_stack.a(bluenrg_gap_aci.o)
SDB_Find_Matching_LTK                             ../../../../../../Library/Bluetooth_LE/library/libbluenrg1_stack.a(sdb.o)
                                                  ../../../../../../Library/Bluetooth_LE/library/libbluenrg1_stack.a(securitymgr.o)
SDB_Find_Record                                   ../../../../../../Library/Bluetooth_LE/library/libbluenrg1_stack.a(sdb.o)
                                                  ../../../../../../Library/Bluetooth_LE/library/libbluenrg1_stack.a(smp_common.o)
                                                  ../../../../../../Library/Bluetooth_LE/library/libbluenrg1_stack.a(securitymgr.o)
                                                  ../../../../../../Library/Bluetooth_LE/library/libbluenrg1_stack.a(rom_gap.o)
                                                  ../../../../../../Library/Bluetooth_LE/library/libbluenrg1_stack.a(bluenrg_gap_aci.o)
SDB_Get_Irk_From_Identity_Addr                    ../../../../../../Library/Bluetooth_LE/library/libbluenrg1_stack.a(sdb.o)
                                                  ../../../../../../Library/Bluetooth_LE/library/libbluenrg1_stack.a(rom_gap.o)
SDB_Get_Number_Of_Valid_Records                   ../../../../../../Library/Bluetooth_LE/library/libbluenrg1_stack.a(sdb.o)
                                                  ../../../../../../Library/Bluetooth_LE/library/libbluenrg1_stack.a(securitymgr.o)
                                                  ../../../../../../Library/Bluetooth_LE/library/libbluenrg1_stack.a(rom_gap_rom.o)
SDB_flash_write_client_data                       ../../../../../../Library/Bluetooth_LE/library/libbluenrg1_stack.a(sdb.o)
                                                  ../../../../../../Library/Bluetooth_LE/library/libbluenrg1_stack.a(gatt_server.o)
SDB_get_security_data_record                      ../../../../../../Library/Bluetooth_LE/library/libbluenrg1_stack.a(sdb.o)
                                                  ../../../../../../Library/Bluetooth_LE/library/libbluenrg1_stack.a(securitymgr.o)
SDB_read_peer_bonded_data                         ../../../../../../Library/Bluetooth_LE/library/libbluenrg1_stack.a(sdb.o)
                                                  ../../../../../../Library/Bluetooth_LE/library/libbluenrg1_stack.a(gatt_server.o)
SDB_remove_bonding_record                         ../../../../../../Library/Bluetooth_LE/library/libbluenrg1_stack.a(sdb.o)
                                                  ../../../../../../Library/Bluetooth_LE/library/libbluenrg1_stack.a(bluenrg_gap_aci.o)
SET_BORconfigStatus                               Startup/system_bluenrg1.o
                                                  Hal/sleep.o
SMA_Diversify                                     ../../../../../../Library/Bluetooth_LE/library/libbluenrg1_stack.a(smp_algo_sap.o)
                                                  ../../../../../../Library/Bluetooth_LE/library/libbluenrg1_stack.a(securitymgr.o)
                                                  ../../../../../../Library/Bluetooth_LE/library/libbluenrg1_stack.a(sdb.o)
SMA_Generate_CSRK                                 ../../../../../../Library/Bluetooth_LE/library/libbluenrg1_stack.a(smp_algo_sap.o)
                                                  ../../../../../../Library/Bluetooth_LE/library/libbluenrg1_stack.a(smp_common.o)
                                                  ../../../../../../Library/Bluetooth_LE/library/libbluenrg1_stack.a(securitymgr.o)
SMA_Generate_IRK                                  ../../../../../../Library/Bluetooth_LE/library/libbluenrg1_stack.a(smp_algo_sap.o)
                                                  ../../../../../../Library/Bluetooth_LE/library/libbluenrg1_stack.a(securitymgr.o)
                                                  ../../../../../../Library/Bluetooth_LE/library/libbluenrg1_stack.a(rom_gap.o)
SMA_LP_s1_Generate_STK                            ../../../../../../Library/Bluetooth_LE/library/libbluenrg1_stack.a(smp_algo_sap.o)
                                                  ../../../../../../Library/Bluetooth_LE/library/libbluenrg1_stack.a(securitymgr.o)
SMA_SC_Gen_f4_Confirm                             ../../../../../../Library/Bluetooth_LE/library/libbluenrg1_stack.a(smp_algo_sap.o)
                                                  ../../../../../../Library/Bluetooth_LE/library/libbluenrg1_stack.a(smp_scv42_caf.o)
                                                  ../../../../../../Library/Bluetooth_LE/library/libbluenrg1_stack.a(securitymgr.o)
SMA_SC_Gen_f5_Keys                                ../../../../../../Library/Bluetooth_LE/library/libbluenrg1_stack.a(smp_algo_sap.o)
                                                  ../../../../../../Library/Bluetooth_LE/library/libbluenrg1_stack.a(smp_scv42_caf.o)
SMA_SC_Gen_f6_Check_Val                           ../../../../../../Library/Bluetooth_LE/library/libbluenrg1_stack.a(smp_algo_sap.o)
                                                  ../../../../../../Library/Bluetooth_LE/library/libbluenrg1_stack.a(smp_scv42_caf.o)
SMA_SC_Gen_g2_NumComp_Val                         ../../../../../../Library/Bluetooth_LE/library/libbluenrg1_stack.a(smp_algo_sap.o)
                                                  ../../../../../../Library/Bluetooth_LE/library/libbluenrg1_stack.a(securitymgr.o)
SMA_generate_EDIV_recovery_DIV                    ../../../../../../Library/Bluetooth_LE/library/libbluenrg1_stack.a(smp_algo_sap.o)
                                                  ../../../../../../Library/Bluetooth_LE/library/libbluenrg1_stack.a(securitymgr.o)
                                                  ../../../../../../Library/Bluetooth_LE/library/libbluenrg1_stack.a(sdb.o)
SMP_ACI_sc_numeric_comparison_response            ../../../../../../Library/Bluetooth_LE/library/libbluenrg1_stack.a(smp_scv42_api.o)
                                                  ../../../../../../Library/Bluetooth_LE/library/libbluenrg1_stack.a(bluenrg_gap_aci.o)
SMP_ACI_sc_passkey_input_type_to_notify           ../../../../../../Library/Bluetooth_LE/library/libbluenrg1_stack.a(smp_scv42_api.o)
                                                  ../../../../../../Library/Bluetooth_LE/library/libbluenrg1_stack.a(bluenrg_gap_aci.o)
SMP_Init                                          ../../../../../../Library/Bluetooth_LE/library/libbluenrg1_stack.a(smp_common.o)
                                                  ../../../../../../Library/Bluetooth_LE/library/libbluenrg1_stack.a(bluenrg_main_func.o)
SMP_MI_PairingRequest_Send                        ../../../../../../Library/Bluetooth_LE/library/libbluenrg1_stack.a(securitymgr.o)
                                                  ../../../../../../Library/Bluetooth_LE/library/libbluenrg1_stack.a(bluenrg_gap_aci.o)
SMP_Process_Q                                     ../../../../../../Library/Bluetooth_LE/library/libbluenrg1_stack.a(securitymgr.o)
                                                  ../../../../../../Library/Bluetooth_LE/library/libbluenrg1_stack.a(bluenrg_main_func.o)
SMP_Protocol_Timer_cb                             ../../../../../../Library/Bluetooth_LE/library/libbluenrg1_stack.a(smp_common.o)
                                                  ../../../../../../Library/Bluetooth_LE/library/libbluenrg1_stack.a(host_timer.o)
SMP_SR_SecurityRequest_Send                       ../../../../../../Library/Bluetooth_LE/library/libbluenrg1_stack.a(securitymgr.o)
                                                  ../../../../../../Library/Bluetooth_LE/library/libbluenrg1_stack.a(bluenrg_gap_aci.o)
SMP_aci_get_oob_data                              ../../../../../../Library/Bluetooth_LE/library/libbluenrg1_stack.a(smp_common.o)
                                                  ../../../../../../Library/Bluetooth_LE/library/libbluenrg1_stack.a(bluenrg_gap_aci.o)
SMP_aci_passkey_response                          ../../../../../../Library/Bluetooth_LE/library/libbluenrg1_stack.a(smp_common.o)
                                                  ../../../../../../Library/Bluetooth_LE/library/libbluenrg1_stack.a(bluenrg_gap_aci.o)
SMP_aci_set_oob_data                              ../../../../../../Library/Bluetooth_LE/library/libbluenrg1_stack.a(smp_common.o)
                                                  ../../../../../../Library/Bluetooth_LE/library/libbluenrg1_stack.a(bluenrg_gap_aci.o)
SMP_acl_data_hndl                                 ../../../../../../Library/Bluetooth_LE/library/libbluenrg1_stack.a(smp_common.o)
                                                  ../../../../../../Library/Bluetooth_LE/library/libbluenrg1_stack.a(l2cap.o)
SMP_allow_rebond                                  ../../../../../../Library/Bluetooth_LE/library/libbluenrg1_stack.a(smp_common.o)
                                                  ../../../../../../Library/Bluetooth_LE/library/libbluenrg1_stack.a(bluenrg_gap_aci.o)
SMP_authorization_response                        ../../../../../../Library/Bluetooth_LE/library/libbluenrg1_stack.a(smp_common.o)
                                                  ../../../../../../Library/Bluetooth_LE/library/libbluenrg1_stack.a(bluenrg_gap_aci.o)
SMP_check_encryption_key_size                     ../../../../../../Library/Bluetooth_LE/library/libbluenrg1_stack.a(smp_common.o)
                                                  ../../../../../../Library/Bluetooth_LE/library/libbluenrg1_stack.a(att.o)
SMP_check_is_device_bonded                        ../../../../../../Library/Bluetooth_LE/library/libbluenrg1_stack.a(smp_common.o)
                                                  ../../../../../../Library/Bluetooth_LE/library/libbluenrg1_stack.a(gatt_server.o)
SMP_forget_device_by_conn_handle                  ../../../../../../Library/Bluetooth_LE/library/libbluenrg1_stack.a(smp_common.o)
                                                  ../../../../../../Library/Bluetooth_LE/library/libbluenrg1_stack.a(gatt_server.o)
SMP_get_link_status                               ../../../../../../Library/Bluetooth_LE/library/libbluenrg1_stack.a(smp_common.o)
                                                  ../../../../../../Library/Bluetooth_LE/library/libbluenrg1_stack.a(att.o)
                                                  ../../../../../../Library/Bluetooth_LE/library/libbluenrg1_stack.a(gatt_client.o)
SMP_get_remote_device_list_item                   ../../../../../../Library/Bluetooth_LE/library/libbluenrg1_stack.a(smp_common.o)
                                                  ../../../../../../Library/Bluetooth_LE/library/libbluenrg1_stack.a(att.o)
                                                  ../../../../../../Library/Bluetooth_LE/library/libbluenrg1_stack.a(smp_scv42_api.o)
                                                  ../../../../../../Library/Bluetooth_LE/library/libbluenrg1_stack.a(securitymgr.o)
                                                  ../../../../../../Library/Bluetooth_LE/library/libbluenrg1_stack.a(sdb.o)
                                                  ../../../../../../Library/Bluetooth_LE/library/libbluenrg1_stack.a(gatt_client.o)
SMP_get_security_level                            ../../../../../../Library/Bluetooth_LE/library/libbluenrg1_stack.a(smp_common.o)
                                                  ../../../../../../Library/Bluetooth_LE/library/libbluenrg1_stack.a(bluenrg_gap_aci.o)
SMP_hci_disconnection_complete_evt_hndl           ../../../../../../Library/Bluetooth_LE/library/libbluenrg1_stack.a(smp_common.o)
                                                  ../../../../../../Library/Bluetooth_LE/library/libbluenrg1_stack.a(l2cap.o)
SMP_hci_encryption_change_evt_hndl                ../../../../../../Library/Bluetooth_LE/library/libbluenrg1_stack.a(smp_common.o)
                                                  ../../../../../../Library/Bluetooth_LE/library/libbluenrg1_stack.a(l2cap.o)
SMP_hci_le_connection_complete_evt_hndl           ../../../../../../Library/Bluetooth_LE/library/libbluenrg1_stack.a(smp_common.o)
                                                  ../../../../../../Library/Bluetooth_LE/library/libbluenrg1_stack.a(l2cap.o)
SMP_hci_le_enhanced_connection_complete_evt_hndl  ../../../../../../Library/Bluetooth_LE/library/libbluenrg1_stack.a(smp_common.o)
                                                  ../../../../../../Library/Bluetooth_LE/library/libbluenrg1_stack.a(l2cap.o)
SMP_hci_le_long_term_key_request_evt_hndl         ../../../../../../Library/Bluetooth_LE/library/libbluenrg1_stack.a(smp_common.o)
                                                  ../../../../../../Library/Bluetooth_LE/library/libbluenrg1_stack.a(l2cap.o)
SMP_repeated_attacks_timer_cb                     ../../../../../../Library/Bluetooth_LE/library/libbluenrg1_stack.a(smp_common.o)
                                                  ../../../../../../Library/Bluetooth_LE/library/libbluenrg1_stack.a(host_timer.o)
SMP_reset_timer                                   ../../../../../../Library/Bluetooth_LE/library/libbluenrg1_stack.a(smp_common.o)
                                                  ../../../../../../Library/Bluetooth_LE/library/libbluenrg1_stack.a(securitymgr.o)
SMP_sc_force_debug_key_usage                      ../../../../../../Library/Bluetooth_LE/library/libbluenrg1_stack.a(smp_scv42_sap.o)
                                                  ../../../../../../Library/Bluetooth_LE/library/libbluenrg1_stack.a(hal.o)
SMP_set_authentication_req                        ../../../../../../Library/Bluetooth_LE/library/libbluenrg1_stack.a(smp_common.o)
                                                  ../../../../../../Library/Bluetooth_LE/library/libbluenrg1_stack.a(bluenrg_gap_aci.o)
SMP_set_authorization_request                     ../../../../../../Library/Bluetooth_LE/library/libbluenrg1_stack.a(smp_common.o)
                                                  ../../../../../../Library/Bluetooth_LE/library/libbluenrg1_stack.a(bluenrg_gap_aci.o)
SMP_set_io_capabilities                           ../../../../../../Library/Bluetooth_LE/library/libbluenrg1_stack.a(smp_common.o)
                                                  ../../../../../../Library/Bluetooth_LE/library/libbluenrg1_stack.a(bluenrg_gap_aci.o)
SMP_sign_packet                                   ../../../../../../Library/Bluetooth_LE/library/libbluenrg1_stack.a(smp_common.o)
                                                  ../../../../../../Library/Bluetooth_LE/library/libbluenrg1_stack.a(rom_att.o)
SMP_validate_signed_packet                        ../../../../../../Library/Bluetooth_LE/library/libbluenrg1_stack.a(smp_common.o)
                                                  ../../../../../../Library/Bluetooth_LE/library/libbluenrg1_stack.a(att.o)
SM_Generate_Resolvable_Private_Address            ../../../../../../Library/Bluetooth_LE/library/libbluenrg1_stack.a(smp_algo_sap.o)
                                                  ../../../../../../Library/Bluetooth_LE/library/libbluenrg1_stack.a(rom_gap.o)
SM_Resolve_Private_Address                        ../../../../../../Library/Bluetooth_LE/library/libbluenrg1_stack.a(smp_algo_sap.o)
                                                  ../../../../../../Library/Bluetooth_LE/library/libbluenrg1_stack.a(sdb.o)
SPI_ClearITPendingBit                             Library/BlueNRG1_spi.o
SPI_ClearRXFIFO                                   Library/BlueNRG1_spi.o
                                                  User/hw_config.o
SPI_ClearTXFIFO                                   Library/BlueNRG1_spi.o
                                                  User/hw_config.o
SPI_Cmd                                           Library/BlueNRG1_spi.o
SPI_CommandSizeConfig                             Library/BlueNRG1_spi.o
SPI_DMACmd                                        Library/BlueNRG1_spi.o
SPI_DataSizeConfig                                Library/BlueNRG1_spi.o
SPI_DeInit                                        Library/BlueNRG1_spi.o
SPI_DelayBetweenFrames                            Library/BlueNRG1_spi.o
SPI_DelayDataInput                                Library/BlueNRG1_spi.o
SPI_EnableWaitState                               Library/BlueNRG1_spi.o
SPI_EndianFormatReception                         Library/BlueNRG1_spi.o
SPI_EndianFormatTransmission                      Library/BlueNRG1_spi.o
SPI_FrameFormatConfig                             Library/BlueNRG1_spi.o
SPI_GetFlagStatus                                 Library/BlueNRG1_spi.o
SPI_GetITStatus                                   Library/BlueNRG1_spi.o
SPI_Handler                                       Startup/system_bluenrg1.o
SPI_ITConfig                                      Library/BlueNRG1_spi.o
SPI_Init                                          Library/BlueNRG1_spi.o
                                                  User/hw_config.o
SPI_ReceiveData                                   Library/BlueNRG1_spi.o
SPI_RxFifoInterruptLevelConfig                    Library/BlueNRG1_spi.o
SPI_SendData                                      Library/BlueNRG1_spi.o
SPI_SetBaudrate                                   Library/BlueNRG1_spi.o
SPI_SetDummyCharacter                             Library/BlueNRG1_spi.o
SPI_SetMasterCommunicationMode                    Library/BlueNRG1_spi.o
SPI_SetNumFramesToReceive                         Library/BlueNRG1_spi.o
SPI_SetNumFramesToTransmit                        Library/BlueNRG1_spi.o
SPI_SlaveModeOutputCmd                            Library/BlueNRG1_spi.o
SPI_SlaveSwSelection                              Library/BlueNRG1_spi.o
SPI_Slave_Configuration                           User/hw_config.o
SPI_StructInit                                    Library/BlueNRG1_spi.o
                                                  User/hw_config.o
SPI_TxFifoInterruptLevelConfig                    Library/BlueNRG1_spi.o
SVC_Handler                                       User/BlueNRG1_it.o
                                                  Startup/system_bluenrg1.o
Sbox                                              ../../../../../../Library/cryptolib/libcrypto.a(crypto.o)
Select_Next_Notification_Client                   ../../../../../../Library/Bluetooth_LE/library/libbluenrg1_stack.a(gatt_server.o)
Send_Notif_Or_Ind                                 ../../../../../../Library/Bluetooth_LE/library/libbluenrg1_stack.a(gatt_server.o)
Set_Host_Timer_value                              ../../../../../../Library/Bluetooth_LE/library/libbluenrg1_stack.a(host_timer.o)
                                                  ../../../../../../Library/Bluetooth_LE/library/libbluenrg1_stack.a(bluenrg_main_func_speed.o)
Set_RF_FrontEnd                                   Startup/system_bluenrg1.o
                                                  User/DTM_boot.o
Start_Gatt_Timer                                  ../../../../../../Library/Bluetooth_LE/library/libbluenrg1_stack.a(rom_gatt_server.o)
                                                  ../../../../../../Library/Bluetooth_LE/library/libbluenrg1_stack.a(gatt_server.o)
Stop_Gatt_Timer                                   ../../../../../../Library/Bluetooth_LE/library/libbluenrg1_stack.a(rom_gatt_server.o)
                                                  ../../../../../../Library/Bluetooth_LE/library/libbluenrg1_stack.a(gatt_server.o)
SysCtrl_DeInit                                    Library/BlueNRG1_sysCtrl.o
SysCtrl_GetWakeupResetReason                      Library/BlueNRG1_sysCtrl.o
                                                  User/DTM_main.o
                                                  Startup/system_bluenrg1.o
                                                  Hal/sleep.o
SysCtrl_PeripheralClockCmd                        Library/BlueNRG1_sysCtrl.o
                                                  User/hw_config.o
SysCtrl_SelectXO                                  Library/BlueNRG1_sysCtrl.o
SysCtrl_WakeupFromIo                              Library/BlueNRG1_sysCtrl.o
SysTick_Handler                                   User/BlueNRG1_it.o
                                                  Startup/system_bluenrg1.o
SysTick_State                                     Library/misc.o
                                                  User/transport_layer.o
SystemInit                                        Startup/system_bluenrg1.o
SystemSleepCmd                                    Library/misc.o
                                                  Hal/sleep.o
Timer_ExpiryCallback                              ../../../../../../Library/Bluetooth_LE/library/libbluenrg1_stack.a(host_timer.o)
                                                  ../../../../../../Library/Bluetooth_LE/library/libbluenrg1_stack.a(ll_isr.o)
Timer_Init                                        ../../../../../../Library/Bluetooth_LE/library/libbluenrg1_stack.a(host_timer.o)
                                                  ../../../../../../Library/Bluetooth_LE/library/libbluenrg1_stack.a(bluenrg_main_func.o)
Timer_ProcessQ                                    ../../../../../../Library/Bluetooth_LE/library/libbluenrg1_stack.a(host_timer.o)
                                                  ../../../../../../Library/Bluetooth_LE/library/libbluenrg1_stack.a(bluenrg_main_func.o)
Timer_StartOneShot                                ../../../../../../Library/Bluetooth_LE/library/libbluenrg1_stack.a(host_timer.o)
                                                  ../../../../../../Library/Bluetooth_LE/library/libbluenrg1_stack.a(smp_common.o)
                                                  ../../../../../../Library/Bluetooth_LE/library/libbluenrg1_stack.a(rom_gatt_server.o)
                                                  ../../../../../../Library/Bluetooth_LE/library/libbluenrg1_stack.a(rom_gap.o)
                                                  ../../../../../../Library/Bluetooth_LE/library/libbluenrg1_stack.a(l2cap.o)
                                                  ../../../../../../Library/Bluetooth_LE/library/libbluenrg1_stack.a(gap.o)
Timer_StartOneShot_sysTime32                      ../../../../../../Library/Bluetooth_LE/library/libbluenrg1_stack.a(host_timer.o)
Timer_StopOneShot                                 ../../../../../../Library/Bluetooth_LE/library/libbluenrg1_stack.a(host_timer.o)
                                                  ../../../../../../Library/Bluetooth_LE/library/libbluenrg1_stack.a(smp_common.o)
                                                  ../../../../../../Library/Bluetooth_LE/library/libbluenrg1_stack.a(rom_gatt_server.o)
                                                  ../../../../../../Library/Bluetooth_LE/library/libbluenrg1_stack.a(rom_gap.o)
                                                  ../../../../../../Library/Bluetooth_LE/library/libbluenrg1_stack.a(l2cap.o)
                                                  ../../../../../../Library/Bluetooth_LE/library/libbluenrg1_stack.a(gatt_server.o)
                                                  ../../../../../../Library/Bluetooth_LE/library/libbluenrg1_stack.a(gap.o)
Timer_getExpirySysTime32                          ../../../../../../Library/Bluetooth_LE/library/libbluenrg1_stack.a(host_timer.o)
Timer_sysTime32_convMachineTime                   ../../../../../../Library/Bluetooth_LE/library/libbluenrg1_stack.a(host_timer.o)
                                                  ../../../../../../Library/Bluetooth_LE/library/libbluenrg1_stack.a(hal.o)
UART_BreakCmd                                     Library/BlueNRG1_uart.o
UART_ClearFlag                                    Library/BlueNRG1_uart.o
UART_ClearITPendingBit                            Library/BlueNRG1_uart.o
                                                  User/BlueNRG1_it.o
UART_Cmd                                          Library/BlueNRG1_uart.o
                                                  User/transport_layer.o
UART_Configuration                                User/hw_config.o
                                                  User/transport_layer.o
UART_DMACmd                                       Library/BlueNRG1_uart.o
                                                  User/hw_config.o
UART_DeInit                                       Library/BlueNRG1_uart.o
UART_GetFlagStatus                                Library/BlueNRG1_uart.o
                                                  User/transport_layer.o
UART_GetITStatus                                  Library/BlueNRG1_uart.o
                                                  User/BlueNRG1_it.o
UART_Handler                                      User/BlueNRG1_it.o
                                                  Startup/system_bluenrg1.o
UART_ITConfig                                     Library/BlueNRG1_uart.o
                                                  User/transport_layer.o
UART_Init                                         Library/BlueNRG1_uart.o
                                                  User/hw_config.o
UART_Oversampling                                 Library/BlueNRG1_uart.o
UART_RXTimeoutConfig                              Library/BlueNRG1_uart.o
UART_ReceiveData                                  Library/BlueNRG1_uart.o
                                                  User/BlueNRG1_it.o
UART_RequestToSendCmd                             Library/BlueNRG1_uart.o
UART_RxFifoIrqLevelConfig                         Library/BlueNRG1_uart.o
UART_RxSwFlowControlMode                          Library/BlueNRG1_uart.o
UART_SendData                                     Library/BlueNRG1_uart.o
UART_SpecialCharDetect                            Library/BlueNRG1_uart.o
UART_StructInit                                   Library/BlueNRG1_uart.o
                                                  User/hw_config.o
UART_SwFlowControl                                Library/BlueNRG1_uart.o
UART_TxFifoIrqLevelConfig                         Library/BlueNRG1_uart.o
UART_TxSwFlowControlMode                          Library/BlueNRG1_uart.o
UART_Xoff1Char                                    Library/BlueNRG1_uart.o
UART_Xoff2Char                                    Library/BlueNRG1_uart.o
UART_Xon1Char                                     Library/BlueNRG1_uart.o
UART_Xon2Char                                     Library/BlueNRG1_uart.o
UART_XonAnyBit                                    Library/BlueNRG1_uart.o
WDG_ClearITPendingBit                             Library/BlueNRG1_wdg.o
WDG_Configuration                                 User/hw_config.o
                                                  User/transport_layer.o
WDG_DisableReset                                  Library/BlueNRG1_wdg.o
WDG_Enable                                        Library/BlueNRG1_wdg.o
                                                  User/hw_config.o
WDG_GetCounter                                    Library/BlueNRG1_wdg.o
WDG_GetITStatus                                   Library/BlueNRG1_wdg.o
WDG_GetWriteAccess                                Library/BlueNRG1_wdg.o
WDG_Handler                                       Startup/system_bluenrg1.o
WDG_ITConfig                                      Library/BlueNRG1_wdg.o
WDG_SetReload                                     Library/BlueNRG1_wdg.o
                                                  User/transport_layer.o
                                                  User/hw_config.o
                                                  User/DTM_cmds.o
WDG_SetWriteAccess                                Library/BlueNRG1_wdg.o
Wait_LS_Stabilization                             Startup/system_bluenrg1.o
WindowWiden1                                      ../../../../../../Library/Bluetooth_LE/library/libbluenrg1_stack.a(rom_ll_timehandling.o)
                                                  ../../../../../../Library/Bluetooth_LE/library/libbluenrg1_stack.a(multi_master_time.o)
WindowWiden2                                      ../../../../../../Library/Bluetooth_LE/library/libbluenrg1_stack.a(rom_ll_timehandling.o)
                                                  ../../../../../../Library/Bluetooth_LE/library/libbluenrg1_stack.a(routines_support.o)
                                                  ../../../../../../Library/Bluetooth_LE/library/libbluenrg1_stack.a(multi_master_time.o)
Write_Cmd                                         ../../../../../../Library/Bluetooth_LE/library/libbluenrg1_stack.a(att.o)
                                                  ../../../../../../Library/Bluetooth_LE/library/libbluenrg1_stack.a(gatt_server.o)
Write_Resp                                        ../../../../../../Library/Bluetooth_LE/library/libbluenrg1_stack.a(att.o)
                                                  ../../../../../../Library/Bluetooth_LE/library/libbluenrg1_stack.a(gatt_server.o)
_BlueNRG_Stack_Init_params                        ../../../../../../Library/Bluetooth_LE/library/libbluenrg1_stack.a(mem_alloc.o)
                                                  ../../../../../../Library/Bluetooth_LE/library/libbluenrg1_stack.a(advance_wakeup_time.o)
                                                  ../../../../../../Library/Bluetooth_LE/library/libbluenrg1_stack.a(rom_ll_timehandling.o)
                                                  ../../../../../../Library/Bluetooth_LE/library/libbluenrg1_stack.a(rom_ll_routines_support.o)
                                                  ../../../../../../Library/Bluetooth_LE/library/libbluenrg1_stack.a(rom_ll_ll_routines.o)
                                                  ../../../../../../Library/Bluetooth_LE/library/libbluenrg1_stack.a(rom_ll_isr_routines.o)
                                                  ../../../../../../Library/Bluetooth_LE/library/libbluenrg1_stack.a(pm.o)
                                                  ../../../../../../Library/Bluetooth_LE/library/libbluenrg1_stack.a(ll_routines_master.o)
                                                  ../../../../../../Library/Bluetooth_LE/library/libbluenrg1_stack.a(ll_isr.o)
                                                  ../../../../../../Library/Bluetooth_LE/library/libbluenrg1_stack.a(hci.o)
                                                  ../../../../../../Library/Bluetooth_LE/library/libbluenrg1_stack.a(hal.o)
                                                  ../../../../../../Library/Bluetooth_LE/library/libbluenrg1_stack.a(bluenrg_main_func.o)
_BlueNRG_Stack_Initialization                     ../../../../../../Library/Bluetooth_LE/library/libbluenrg1_stack.a(bluenrg_main_func.o)
                                                  ../../../../../../Library/Bluetooth_LE/library/libbluenrg1_stack.a(hci.o)
_SDB_Get_All_Bonded_Devices                       ../../../../../../Library/Bluetooth_LE/library/libbluenrg1_stack.a(sdb.o)
                                                  ../../../../../../Library/Bluetooth_LE/library/libbluenrg1_stack.a(bluenrg_gap_aci.o)
__ARM_common_memcpy1_6                            ../../../../../../Library/Bluetooth_LE/library/libbluenrg1_stack.a(ll_isr.o)
__ARM_common_switch8                              ../../../../../../Library/Bluetooth_LE/library/libbluenrg1_stack.a(gatt_server.o)
                                                  ../../../../../../Library/Bluetooth_LE/library/libbluenrg1_stack.a(rom_ll_routines_support.o)
                                                  ../../../../../../Library/Bluetooth_LE/library/libbluenrg1_stack.a(l2cap.o)
                                                  ../../../../../../Library/Bluetooth_LE/library/libbluenrg1_stack.a(host_timer.o)
__aeabi_d2f                                       /opt/Atollic_TrueSTUDIO_for_STM32_x86_64_9.3.0/ARMTools/bin/../lib/gcc/arm-atollic-eabi/6.3.1/armv6-m/libgcc.a(truncdfsf2.o)
                                                  Library/BlueNRG1_adc.o
__aeabi_dadd                                      /opt/Atollic_TrueSTUDIO_for_STM32_x86_64_9.3.0/ARMTools/bin/../lib/gcc/arm-atollic-eabi/6.3.1/armv6-m/libgcc.a(adddf3.o)
                                                  Library/BlueNRG1_adc.o
__aeabi_ddiv                                      /opt/Atollic_TrueSTUDIO_for_STM32_x86_64_9.3.0/ARMTools/bin/../lib/gcc/arm-atollic-eabi/6.3.1/armv6-m/libgcc.a(divdf3.o)
                                                  Library/BlueNRG1_adc.o
__aeabi_dmul                                      /opt/Atollic_TrueSTUDIO_for_STM32_x86_64_9.3.0/ARMTools/bin/../lib/gcc/arm-atollic-eabi/6.3.1/armv6-m/libgcc.a(muldf3.o)
                                                  Library/BlueNRG1_adc.o
__aeabi_dsub                                      /opt/Atollic_TrueSTUDIO_for_STM32_x86_64_9.3.0/ARMTools/bin/../lib/gcc/arm-atollic-eabi/6.3.1/armv6-m/libgcc.a(subdf3.o)
                                                  Library/BlueNRG1_adc.o
__aeabi_f2d                                       /opt/Atollic_TrueSTUDIO_for_STM32_x86_64_9.3.0/ARMTools/bin/../lib/gcc/arm-atollic-eabi/6.3.1/armv6-m/libgcc.a(extendsfdf2.o)
                                                  Library/BlueNRG1_adc.o
__aeabi_fadd                                      /opt/Atollic_TrueSTUDIO_for_STM32_x86_64_9.3.0/ARMTools/bin/../lib/gcc/arm-atollic-eabi/6.3.1/armv6-m/libgcc.a(addsf3.o)
                                                  Library/BlueNRG1_adc.o
__aeabi_fdiv                                      /opt/Atollic_TrueSTUDIO_for_STM32_x86_64_9.3.0/ARMTools/bin/../lib/gcc/arm-atollic-eabi/6.3.1/armv6-m/libgcc.a(divsf3.o)
                                                  Library/BlueNRG1_adc.o
__aeabi_fmul                                      /opt/Atollic_TrueSTUDIO_for_STM32_x86_64_9.3.0/ARMTools/bin/../lib/gcc/arm-atollic-eabi/6.3.1/armv6-m/libgcc.a(mulsf3.o)
                                                  Library/BlueNRG1_adc.o
__aeabi_fsub                                      /opt/Atollic_TrueSTUDIO_for_STM32_x86_64_9.3.0/ARMTools/bin/../lib/gcc/arm-atollic-eabi/6.3.1/armv6-m/libgcc.a(subsf3.o)
                                                  Library/BlueNRG1_adc.o
__aeabi_i2f                                       /opt/Atollic_TrueSTUDIO_for_STM32_x86_64_9.3.0/ARMTools/bin/../lib/gcc/arm-atollic-eabi/6.3.1/armv6-m/libgcc.a(floatsisf.o)
                                                  Library/BlueNRG1_adc.o
__aeabi_idiv                                      /opt/Atollic_TrueSTUDIO_for_STM32_x86_64_9.3.0/ARMTools/bin/../lib/gcc/arm-atollic-eabi/6.3.1/armv6-m/libgcc.a(_divsi3.o)
__aeabi_idiv0                                     /opt/Atollic_TrueSTUDIO_for_STM32_x86_64_9.3.0/ARMTools/bin/../lib/gcc/arm-atollic-eabi/6.3.1/armv6-m/libgcc.a(_dvmd_tls.o)
                                                  /opt/Atollic_TrueSTUDIO_for_STM32_x86_64_9.3.0/ARMTools/bin/../lib/gcc/arm-atollic-eabi/6.3.1/armv6-m/libgcc.a(_divsi3.o)
                                                  /opt/Atollic_TrueSTUDIO_for_STM32_x86_64_9.3.0/ARMTools/bin/../lib/gcc/arm-atollic-eabi/6.3.1/armv6-m/libgcc.a(_udivsi3.o)
__aeabi_idivmod                                   /opt/Atollic_TrueSTUDIO_for_STM32_x86_64_9.3.0/ARMTools/bin/../lib/gcc/arm-atollic-eabi/6.3.1/armv6-m/libgcc.a(_divsi3.o)
                                                  Hal/fifo.o
__aeabi_ldiv0                                     /opt/Atollic_TrueSTUDIO_for_STM32_x86_64_9.3.0/ARMTools/bin/../lib/gcc/arm-atollic-eabi/6.3.1/armv6-m/libgcc.a(_dvmd_tls.o)
__aeabi_memclr                                    /opt/Atollic_TrueSTUDIO_for_STM32_x86_64_9.3.0/ARMTools/bin/../lib/gcc/arm-atollic-eabi/6.3.1/../../../../arm-atollic-eabi/lib/armv6-m/libc_nano.a(lib_a-aeabi_memclr.o)
__aeabi_memclr4                                   /opt/Atollic_TrueSTUDIO_for_STM32_x86_64_9.3.0/ARMTools/bin/../lib/gcc/arm-atollic-eabi/6.3.1/../../../../arm-atollic-eabi/lib/armv6-m/libc_nano.a(lib_a-aeabi_memclr.o)
                                                  ../../../../../../Library/Bluetooth_LE/library/libbluenrg1_stack.a(rom_gap_rom.o)
                                                  ../../../../../../Library/Bluetooth_LE/library/libbluenrg1_stack.a(gap.o)
__aeabi_memclr8                                   /opt/Atollic_TrueSTUDIO_for_STM32_x86_64_9.3.0/ARMTools/bin/../lib/gcc/arm-atollic-eabi/6.3.1/../../../../arm-atollic-eabi/lib/armv6-m/libc_nano.a(lib_a-aeabi_memclr.o)
__aeabi_memcpy                                    /opt/Atollic_TrueSTUDIO_for_STM32_x86_64_9.3.0/ARMTools/bin/../lib/gcc/arm-atollic-eabi/6.3.1/../../../../arm-atollic-eabi/lib/armv6-m/libc_nano.a(lib_a-aeabi_memcpy.o)
                                                  ../../../../../../Library/Bluetooth_LE/library/libbluenrg1_stack.a(gatt_server.o)
                                                  ../../../../../../Library/Bluetooth_LE/library/libbluenrg1_stack.a(gatt_client.o)
__aeabi_memcpy4                                   /opt/Atollic_TrueSTUDIO_for_STM32_x86_64_9.3.0/ARMTools/bin/../lib/gcc/arm-atollic-eabi/6.3.1/../../../../arm-atollic-eabi/lib/armv6-m/libc_nano.a(lib_a-aeabi_memcpy.o)
                                                  ../../../../../../Library/Bluetooth_LE/library/libbluenrg1_stack.a(smp_common.o)
                                                  ../../../../../../Library/Bluetooth_LE/library/libbluenrg1_stack.a(smp_algo_sap.o)
                                                  ../../../../../../Library/Bluetooth_LE/library/libbluenrg1_stack.a(securitymgr.o)
                                                  ../../../../../../Library/Bluetooth_LE/library/libbluenrg1_stack.a(rom_gap_rom.o)
                                                  ../../../../../../Library/Bluetooth_LE/library/libbluenrg1_stack.a(pka.o)
__aeabi_memcpy8                                   /opt/Atollic_TrueSTUDIO_for_STM32_x86_64_9.3.0/ARMTools/bin/../lib/gcc/arm-atollic-eabi/6.3.1/../../../../arm-atollic-eabi/lib/armv6-m/libc_nano.a(lib_a-aeabi_memcpy.o)
__aeabi_memmove                                   /opt/Atollic_TrueSTUDIO_for_STM32_x86_64_9.3.0/ARMTools/bin/../lib/gcc/arm-atollic-eabi/6.3.1/../../../../arm-atollic-eabi/lib/armv6-m/libc_nano.a(lib_a-aeabi_memmove.o)
__aeabi_memmove4                                  /opt/Atollic_TrueSTUDIO_for_STM32_x86_64_9.3.0/ARMTools/bin/../lib/gcc/arm-atollic-eabi/6.3.1/../../../../arm-atollic-eabi/lib/armv6-m/libc_nano.a(lib_a-aeabi_memmove.o)
                                                  ../../../../../../Library/Bluetooth_LE/library/libbluenrg1_stack.a(mem_buff.o)
__aeabi_memmove8                                  /opt/Atollic_TrueSTUDIO_for_STM32_x86_64_9.3.0/ARMTools/bin/../lib/gcc/arm-atollic-eabi/6.3.1/../../../../arm-atollic-eabi/lib/armv6-m/libc_nano.a(lib_a-aeabi_memmove.o)
__aeabi_memset                                    /opt/Atollic_TrueSTUDIO_for_STM32_x86_64_9.3.0/ARMTools/bin/../lib/gcc/arm-atollic-eabi/6.3.1/../../../../arm-atollic-eabi/lib/armv6-m/libc_nano.a(lib_a-aeabi_memset.o)
                                                  /opt/Atollic_TrueSTUDIO_for_STM32_x86_64_9.3.0/ARMTools/bin/../lib/gcc/arm-atollic-eabi/6.3.1/../../../../arm-atollic-eabi/lib/armv6-m/libc_nano.a(lib_a-aeabi_memclr.o)
__aeabi_memset4                                   /opt/Atollic_TrueSTUDIO_for_STM32_x86_64_9.3.0/ARMTools/bin/../lib/gcc/arm-atollic-eabi/6.3.1/../../../../arm-atollic-eabi/lib/armv6-m/libc_nano.a(lib_a-aeabi_memset.o)
__aeabi_memset8                                   /opt/Atollic_TrueSTUDIO_for_STM32_x86_64_9.3.0/ARMTools/bin/../lib/gcc/arm-atollic-eabi/6.3.1/../../../../arm-atollic-eabi/lib/armv6-m/libc_nano.a(lib_a-aeabi_memset.o)
__aeabi_ui2f                                      /opt/Atollic_TrueSTUDIO_for_STM32_x86_64_9.3.0/ARMTools/bin/../lib/gcc/arm-atollic-eabi/6.3.1/armv6-m/libgcc.a(floatunsisf.o)
                                                  Library/BlueNRG1_adc.o
__aeabi_uidiv                                     /opt/Atollic_TrueSTUDIO_for_STM32_x86_64_9.3.0/ARMTools/bin/../lib/gcc/arm-atollic-eabi/6.3.1/armv6-m/libgcc.a(_udivsi3.o)
                                                  /opt/Atollic_TrueSTUDIO_for_STM32_x86_64_9.3.0/ARMTools/bin/../lib/gcc/arm-atollic-eabi/6.3.1/armv6-m/libgcc.a(divdf3.o)
                                                  Library/BlueNRG1_uart.o
                                                  Library/BlueNRG1_spi.o
                                                  Library/BlueNRG1_i2c.o
__aeabi_uidivmod                                  /opt/Atollic_TrueSTUDIO_for_STM32_x86_64_9.3.0/ARMTools/bin/../lib/gcc/arm-atollic-eabi/6.3.1/armv6-m/libgcc.a(_udivsi3.o)
                                                  /opt/Atollic_TrueSTUDIO_for_STM32_x86_64_9.3.0/ARMTools/bin/../lib/gcc/arm-atollic-eabi/6.3.1/armv6-m/libgcc.a(divdf3.o)
                                                  ../../../../../../Library/Bluetooth_LE/library/libbluenrg1_stack.a(smp_scv42_caf.o)
                                                  ../../../../../../Library/Bluetooth_LE/library/libbluenrg1_stack.a(securitymgr.o)
                                                  ../../../../../../Library/Bluetooth_LE/library/libbluenrg1_stack.a(rom_ll_routines_support.o)
                                                  ../../../../../../Library/Bluetooth_LE/library/libbluenrg1_stack.a(multi_master_time.o)
                                                  ../../../../../../Library/Bluetooth_LE/library/libbluenrg1_stack.a(ll_routines_master.o)
                                                  ../../../../../../Library/Bluetooth_LE/library/libbluenrg1_stack.a(hci.o)
                                                  ../../../../../../Library/Bluetooth_LE/library/libbluenrg1_stack.a(gatt_server.o)
                                                  ../../../../../../Library/Bluetooth_LE/library/libbluenrg1_stack.a(gatt_client.o)
__aeabi_uread4                                    /opt/Atollic_TrueSTUDIO_for_STM32_x86_64_9.3.0/ARMTools/bin/../lib/gcc/arm-atollic-eabi/6.3.1/armv6-m/libgcc.a(unaligned-funcs.o)
                                                  ../../../../../../Library/cryptolib/libcrypto.a(crypto.o)
                                                  ../../../../../../Library/Bluetooth_LE/library/libbluenrg1_stack.a(aes128cmac.o)
                                                  ../../../../../../Library/Bluetooth_LE/library/libbluenrg1_stack.a(sdb.o)
                                                  ../../../../../../Library/Bluetooth_LE/library/libbluenrg1_stack.a(rom_ll_ll_routines.o)
                                                  ../../../../../../Library/Bluetooth_LE/library/libbluenrg1_stack.a(ll_privacy.o)
                                                  ../../../../../../Library/Bluetooth_LE/library/libbluenrg1_stack.a(hci.o)
__aeabi_uread8                                    /opt/Atollic_TrueSTUDIO_for_STM32_x86_64_9.3.0/ARMTools/bin/../lib/gcc/arm-atollic-eabi/6.3.1/armv6-m/libgcc.a(unaligned-funcs.o)
__aeabi_uwrite4                                   /opt/Atollic_TrueSTUDIO_for_STM32_x86_64_9.3.0/ARMTools/bin/../lib/gcc/arm-atollic-eabi/6.3.1/armv6-m/libgcc.a(unaligned-funcs.o)
__aeabi_uwrite8                                   /opt/Atollic_TrueSTUDIO_for_STM32_x86_64_9.3.0/ARMTools/bin/../lib/gcc/arm-atollic-eabi/6.3.1/armv6-m/libgcc.a(unaligned-funcs.o)
__asm___10_acl_list_c_f4bf0da8____REV16           ../../../../../../Library/Bluetooth_LE/library/libbluenrg1_stack.a(acl_list.o)
__asm___10_acl_list_c_f4bf0da8____REVSH           ../../../../../../Library/Bluetooth_LE/library/libbluenrg1_stack.a(acl_list.o)
__asm___10_mem_buff_c_49254714____REV16           ../../../../../../Library/Bluetooth_LE/library/libbluenrg1_stack.a(mem_buff.o)
__asm___10_mem_buff_c_49254714____REVSH           ../../../../../../Library/Bluetooth_LE/library/libbluenrg1_stack.a(mem_buff.o)
__asm___10_rom_list_c_9ae9e84d____REV16           ../../../../../../Library/Bluetooth_LE/library/libbluenrg1_stack.a(rom_list.o)
__asm___10_rom_list_c_9ae9e84d____REVSH           ../../../../../../Library/Bluetooth_LE/library/libbluenrg1_stack.a(rom_list.o)
__asm___11_mem_alloc_c_0d587dcf____REV16          ../../../../../../Library/Bluetooth_LE/library/libbluenrg1_stack.a(mem_alloc.o)
__asm___11_mem_alloc_c_0d587dcf____REVSH          ../../../../../../Library/Bluetooth_LE/library/libbluenrg1_stack.a(mem_alloc.o)
__asm___12_LL_privacy_c_d85c1288____REV16         ../../../../../../Library/Bluetooth_LE/library/libbluenrg1_stack.a(ll_privacy.o)
__asm___12_LL_privacy_c_d85c1288____REVSH         ../../../../../../Library/Bluetooth_LE/library/libbluenrg1_stack.a(ll_privacy.o)
__asm___12_aci_events_c_c5a8dcf5____REV16         ../../../../../../Library/Bluetooth_LE/library/libbluenrg1_stack.a(aci_events.o)
__asm___12_aci_events_c_c5a8dcf5____REVSH         ../../../../../../Library/Bluetooth_LE/library/libbluenrg1_stack.a(aci_events.o)
__asm___12_host_timer_c_4f95757c____REV16         ../../../../../../Library/Bluetooth_LE/library/libbluenrg1_stack.a(host_timer.o)
__asm___12_host_timer_c_4f95757c____REVSH         ../../../../../../Library/Bluetooth_LE/library/libbluenrg1_stack.a(host_timer.o)
__asm___12_smp_common_c_SMP_Init____REV16         ../../../../../../Library/Bluetooth_LE/library/libbluenrg1_stack.a(smp_common.o)
__asm___12_smp_common_c_SMP_Init____REVSH         ../../../../../../Library/Bluetooth_LE/library/libbluenrg1_stack.a(smp_common.o)
__asm___13_HCI_privacy_c_9b5e6613____REV16        ../../../../../../Library/Bluetooth_LE/library/libbluenrg1_stack.a(hci_privacy.o)
__asm___13_HCI_privacy_c_9b5e6613____REVSH        ../../../../../../Library/Bluetooth_LE/library/libbluenrg1_stack.a(hci_privacy.o)
__asm___13_LL_routines_c_034d4ef2____REV16        ../../../../../../Library/Bluetooth_LE/library/libbluenrg1_stack.a(ll_routines.o)
__asm___13_LL_routines_c_034d4ef2____REVSH        ../../../../../../Library/Bluetooth_LE/library/libbluenrg1_stack.a(ll_routines.o)
__asm___13_gatt_client_c_d7bdd59a____REV16        ../../../../../../Library/Bluetooth_LE/library/libbluenrg1_stack.a(gatt_client.o)
__asm___13_gatt_client_c_d7bdd59a____REVSH        ../../../../../../Library/Bluetooth_LE/library/libbluenrg1_stack.a(gatt_client.o)
__asm___13_gatt_server_c_f87a5dfa____REV16        ../../../../../../Library/Bluetooth_LE/library/libbluenrg1_stack.a(gatt_server.o)
__asm___13_gatt_server_c_f87a5dfa____REVSH        ../../../../../../Library/Bluetooth_LE/library/libbluenrg1_stack.a(gatt_server.o)
__asm___13_rom_gap_rom_c_62cf131b____REV16        ../../../../../../Library/Bluetooth_LE/library/libbluenrg1_stack.a(rom_gap_rom.o)
__asm___13_rom_gap_rom_c_62cf131b____REVSH        ../../../../../../Library/Bluetooth_LE/library/libbluenrg1_stack.a(rom_gap_rom.o)
__asm___13_securitymgr_c_090e25dd____REV16        ../../../../../../Library/Bluetooth_LE/library/libbluenrg1_stack.a(securitymgr.o)
__asm___13_securitymgr_c_090e25dd____REVSH        ../../../../../../Library/Bluetooth_LE/library/libbluenrg1_stack.a(securitymgr.o)
__asm___14_isr_postproc_c_ac67b0d2____REV16       ../../../../../../Library/Bluetooth_LE/library/libbluenrg1_stack.a(isr_postproc.o)
__asm___14_isr_postproc_c_ac67b0d2____REVSH       ../../../../../../Library/Bluetooth_LE/library/libbluenrg1_stack.a(isr_postproc.o)
__asm___14_isr_routines_c_d843bcea____REV16       ../../../../../../Library/Bluetooth_LE/library/libbluenrg1_stack.a(isr_routines.o)
__asm___14_isr_routines_c_d843bcea____REVSH       ../../../../../../Library/Bluetooth_LE/library/libbluenrg1_stack.a(isr_routines.o)
__asm___14_smp_algo_sap_c_769a6b61____REV16       ../../../../../../Library/Bluetooth_LE/library/libbluenrg1_stack.a(smp_algo_sap.o)
__asm___14_smp_algo_sap_c_769a6b61____REVSH       ../../../../../../Library/Bluetooth_LE/library/libbluenrg1_stack.a(smp_algo_sap.o)
__asm___15_smp_scv42_api_c_c8ccdc78____REV16      ../../../../../../Library/Bluetooth_LE/library/libbluenrg1_stack.a(smp_scv42_api.o)
__asm___15_smp_scv42_api_c_c8ccdc78____REVSH      ../../../../../../Library/Bluetooth_LE/library/libbluenrg1_stack.a(smp_scv42_api.o)
__asm___15_smp_scv42_caf_c_5a68fc51____REV16      ../../../../../../Library/Bluetooth_LE/library/libbluenrg1_stack.a(smp_scv42_caf.o)
__asm___15_smp_scv42_caf_c_5a68fc51____REVSH      ../../../../../../Library/Bluetooth_LE/library/libbluenrg1_stack.a(smp_scv42_caf.o)
__asm___15_smp_scv42_sap_c_340bf13f____REV16      ../../../../../../Library/Bluetooth_LE/library/libbluenrg1_stack.a(smp_scv42_sap.o)
__asm___15_smp_scv42_sap_c_340bf13f____REVSH      ../../../../../../Library/Bluetooth_LE/library/libbluenrg1_stack.a(smp_scv42_sap.o)
__asm___16_device_id_data_c_c12b0c9a____REV16     ../../../../../../Library/Bluetooth_LE/library/libbluenrg1_stack.a(device_id_data.o)
__asm___16_device_id_data_c_c12b0c9a____REVSH     ../../../../../../Library/Bluetooth_LE/library/libbluenrg1_stack.a(device_id_data.o)
__asm___17_bluenrg_gap_aci_c_20b3376c____REV16    ../../../../../../Library/Bluetooth_LE/library/libbluenrg1_stack.a(bluenrg_gap_aci.o)
__asm___17_bluenrg_gap_aci_c_20b3376c____REVSH    ../../../../../../Library/Bluetooth_LE/library/libbluenrg1_stack.a(bluenrg_gap_aci.o)
__asm___17_bluenrg_hal_aci_c_8cee0770____REV16    ../../../../../../Library/Bluetooth_LE/library/libbluenrg1_stack.a(bluenrg_hal_aci.o)
__asm___17_bluenrg_hal_aci_c_8cee0770____REVSH    ../../../../../../Library/Bluetooth_LE/library/libbluenrg1_stack.a(bluenrg_hal_aci.o)
__asm___17_rom_gatt_server_c_4ff702af____REV16    ../../../../../../Library/Bluetooth_LE/library/libbluenrg1_stack.a(rom_gatt_server.o)
__asm___17_rom_gatt_server_c_4ff702af____REVSH    ../../../../../../Library/Bluetooth_LE/library/libbluenrg1_stack.a(rom_gatt_server.o)
__asm___18_bluenrg_gatt_aci_c_11ff1a0c____REV16   ../../../../../../Library/Bluetooth_LE/library/libbluenrg1_stack.a(bluenrg_gatt_aci.o)
__asm___18_bluenrg_gatt_aci_c_11ff1a0c____REVSH   ../../../../../../Library/Bluetooth_LE/library/libbluenrg1_stack.a(bluenrg_gatt_aci.o)
__asm___18_routines_support_c_405608a7____REV16   ../../../../../../Library/Bluetooth_LE/library/libbluenrg1_stack.a(routines_support.o)
__asm___18_routines_support_c_405608a7____REVSH   ../../../../../../Library/Bluetooth_LE/library/libbluenrg1_stack.a(routines_support.o)
__asm___19_bluenrg_l2cap_aci_c_90219d4e____REV16  ../../../../../../Library/Bluetooth_LE/library/libbluenrg1_stack.a(bluenrg_l2cap_aci.o)
__asm___19_bluenrg_l2cap_aci_c_90219d4e____REVSH  ../../../../../../Library/Bluetooth_LE/library/libbluenrg1_stack.a(bluenrg_l2cap_aci.o)
__asm___19_bluenrg_main_func_c_db69f3ab____REV16  ../../../../../../Library/Bluetooth_LE/library/libbluenrg1_stack.a(bluenrg_main_func.o)
__asm___19_bluenrg_main_func_c_db69f3ab____REVSH  ../../../../../../Library/Bluetooth_LE/library/libbluenrg1_stack.a(bluenrg_main_func.o)
__asm___19_multi_master_time_c_662f5002____REV16  ../../../../../../Library/Bluetooth_LE/library/libbluenrg1_stack.a(multi_master_time.o)
__asm___19_multi_master_time_c_662f5002____REVSH  ../../../../../../Library/Bluetooth_LE/library/libbluenrg1_stack.a(multi_master_time.o)
__asm___20_LL_routines_master_c_b420733a____REV16 ../../../../../../Library/Bluetooth_LE/library/libbluenrg1_stack.a(ll_routines_master.o)
__asm___20_LL_routines_master_c_b420733a____REVSH ../../../../../../Library/Bluetooth_LE/library/libbluenrg1_stack.a(ll_routines_master.o)
__asm___20_rom_ll_LL_routines_c_LL_Init____REV16  ../../../../../../Library/Bluetooth_LE/library/libbluenrg1_stack.a(rom_ll_ll_routines.o)
__asm___20_rom_ll_LL_routines_c_LL_Init____REVSH  ../../../../../../Library/Bluetooth_LE/library/libbluenrg1_stack.a(rom_ll_ll_routines.o)
__asm___21_LL_routines_support_c_fa85483a____REV16 ../../../../../../Library/Bluetooth_LE/library/libbluenrg1_stack.a(ll_routines_support.o)
__asm___21_LL_routines_support_c_fa85483a____REVSH ../../../../../../Library/Bluetooth_LE/library/libbluenrg1_stack.a(ll_routines_support.o)
__asm___21_advance_wakeup_time_c_3f88e22b____REV16 ../../../../../../Library/Bluetooth_LE/library/libbluenrg1_stack.a(advance_wakeup_time.o)
__asm___21_advance_wakeup_time_c_3f88e22b____REVSH ../../../../../../Library/Bluetooth_LE/library/libbluenrg1_stack.a(advance_wakeup_time.o)
__asm___21_rom_ll_TimeHandling_c_set_sca____REV16 ../../../../../../Library/Bluetooth_LE/library/libbluenrg1_stack.a(rom_ll_timehandling.o)
__asm___21_rom_ll_TimeHandling_c_set_sca____REVSH ../../../../../../Library/Bluetooth_LE/library/libbluenrg1_stack.a(rom_ll_timehandling.o)
__asm___21_rom_ll_isr_postproc_c_f9b1a0cf____REV16 ../../../../../../Library/Bluetooth_LE/library/libbluenrg1_stack.a(rom_ll_isr_postproc.o)
__asm___21_rom_ll_isr_postproc_c_f9b1a0cf____REVSH ../../../../../../Library/Bluetooth_LE/library/libbluenrg1_stack.a(rom_ll_isr_postproc.o)
__asm___21_rom_ll_isr_routines_c_8b091928____REV16 ../../../../../../Library/Bluetooth_LE/library/libbluenrg1_stack.a(rom_ll_isr_routines.o)
__asm___21_rom_ll_isr_routines_c_8b091928____REVSH ../../../../../../Library/Bluetooth_LE/library/libbluenrg1_stack.a(rom_ll_isr_routines.o)
__asm___25_bluenrg_main_func_speed_c_add184b2____REV16 ../../../../../../Library/Bluetooth_LE/library/libbluenrg1_stack.a(bluenrg_main_func_speed.o)
__asm___25_bluenrg_main_func_speed_c_add184b2____REVSH ../../../../../../Library/Bluetooth_LE/library/libbluenrg1_stack.a(bluenrg_main_func_speed.o)
__asm___25_rom_ll_routines_support_c_09173cbd____REV16 ../../../../../../Library/Bluetooth_LE/library/libbluenrg1_stack.a(rom_ll_routines_support.o)
__asm___25_rom_ll_routines_support_c_09173cbd____REVSH ../../../../../../Library/Bluetooth_LE/library/libbluenrg1_stack.a(rom_ll_routines_support.o)
__asm___27_rom_ll_LL_routines_master_c_5572c8bc____REV16 ../../../../../../Library/Bluetooth_LE/library/libbluenrg1_stack.a(rom_ll_ll_routines_master.o)
__asm___27_rom_ll_LL_routines_master_c_5572c8bc____REVSH ../../../../../../Library/Bluetooth_LE/library/libbluenrg1_stack.a(rom_ll_ll_routines_master.o)
__asm___4_pm_c_PM_Init____REV16                   ../../../../../../Library/Bluetooth_LE/library/libbluenrg1_stack.a(pm.o)
__asm___4_pm_c_PM_Init____REVSH                   ../../../../../../Library/Bluetooth_LE/library/libbluenrg1_stack.a(pm.o)
__asm___5_acl_c_Acl_Init____REV16                 ../../../../../../Library/Bluetooth_LE/library/libbluenrg1_stack.a(acl.o)
__asm___5_acl_c_Acl_Init____REVSH                 ../../../../../../Library/Bluetooth_LE/library/libbluenrg1_stack.a(acl.o)
__asm___5_att_c_74049b17____REV16                 ../../../../../../Library/Bluetooth_LE/library/libbluenrg1_stack.a(att.o)
__asm___5_att_c_74049b17____REVSH                 ../../../../../../Library/Bluetooth_LE/library/libbluenrg1_stack.a(att.o)
__asm___5_gap_c_5692c35c____REV16                 ../../../../../../Library/Bluetooth_LE/library/libbluenrg1_stack.a(gap.o)
__asm___5_gap_c_5692c35c____REVSH                 ../../../../../../Library/Bluetooth_LE/library/libbluenrg1_stack.a(gap.o)
__asm___5_hal_c_e288d05a____REV16                 ../../../../../../Library/Bluetooth_LE/library/libbluenrg1_stack.a(hal.o)
__asm___5_hal_c_e288d05a____REVSH                 ../../../../../../Library/Bluetooth_LE/library/libbluenrg1_stack.a(hal.o)
__asm___5_hci_c_HCI_Init____REV16                 ../../../../../../Library/Bluetooth_LE/library/libbluenrg1_stack.a(hci.o)
__asm___5_hci_c_HCI_Init____REVSH                 ../../../../../../Library/Bluetooth_LE/library/libbluenrg1_stack.a(hci.o)
__asm___5_nvm_c_b8e98d18____REV16                 ../../../../../../Library/Bluetooth_LE/library/libbluenrg1_stack.a(nvm.o)
__asm___5_nvm_c_b8e98d18____REVSH                 ../../../../../../Library/Bluetooth_LE/library/libbluenrg1_stack.a(nvm.o)
__asm___5_pka_c_4dd6df06____REV16                 ../../../../../../Library/Bluetooth_LE/library/libbluenrg1_stack.a(pka.o)
__asm___5_pka_c_4dd6df06____REVSH                 ../../../../../../Library/Bluetooth_LE/library/libbluenrg1_stack.a(pka.o)
__asm___5_sdb_c_b5631734____REV16                 ../../../../../../Library/Bluetooth_LE/library/libbluenrg1_stack.a(sdb.o)
__asm___5_sdb_c_b5631734____REVSH                 ../../../../../../Library/Bluetooth_LE/library/libbluenrg1_stack.a(sdb.o)
__asm___7_l2cap_c_L2C_Init____REV16               ../../../../../../Library/Bluetooth_LE/library/libbluenrg1_stack.a(l2cap.o)
__asm___7_l2cap_c_L2C_Init____REVSH               ../../../../../../Library/Bluetooth_LE/library/libbluenrg1_stack.a(l2cap.o)
__asm___7_utils_c_b27d9261____REV16               ../../../../../../Library/Bluetooth_LE/library/libbluenrg1_stack.a(utils.o)
__asm___7_utils_c_b27d9261____REVSH               ../../../../../../Library/Bluetooth_LE/library/libbluenrg1_stack.a(utils.o)
__asm___8_LL_isr_c_662f40dd____REV16              ../../../../../../Library/Bluetooth_LE/library/libbluenrg1_stack.a(ll_isr.o)
__asm___8_LL_isr_c_662f40dd____REVSH              ../../../../../../Library/Bluetooth_LE/library/libbluenrg1_stack.a(ll_isr.o)
__asm___9_rom_att_c_d38a2dd8____REV16             ../../../../../../Library/Bluetooth_LE/library/libbluenrg1_stack.a(rom_att.o)
__asm___9_rom_att_c_d38a2dd8____REVSH             ../../../../../../Library/Bluetooth_LE/library/libbluenrg1_stack.a(rom_att.o)
__asm___9_rom_gap_c_1165c8de____REV16             ../../../../../../Library/Bluetooth_LE/library/libbluenrg1_stack.a(rom_gap.o)
__asm___9_rom_gap_c_1165c8de____REVSH             ../../../../../../Library/Bluetooth_LE/library/libbluenrg1_stack.a(rom_gap.o)
__blue_RAM                                        Startup/system_bluenrg1.o
                                                  Hal/sleep.o
__blueflag_RAM                                    Startup/system_bluenrg1.o
                                                  User/cmd.o
                                                  User/DTM_cmds.o
__clzsi2                                          /opt/Atollic_TrueSTUDIO_for_STM32_x86_64_9.3.0/ARMTools/bin/../lib/gcc/arm-atollic-eabi/6.3.1/armv6-m/libgcc.a(_clzsi2.o)
                                                  /opt/Atollic_TrueSTUDIO_for_STM32_x86_64_9.3.0/ARMTools/bin/../lib/gcc/arm-atollic-eabi/6.3.1/armv6-m/libgcc.a(extendsfdf2.o)
                                                  /opt/Atollic_TrueSTUDIO_for_STM32_x86_64_9.3.0/ARMTools/bin/../lib/gcc/arm-atollic-eabi/6.3.1/armv6-m/libgcc.a(subdf3.o)
                                                  /opt/Atollic_TrueSTUDIO_for_STM32_x86_64_9.3.0/ARMTools/bin/../lib/gcc/arm-atollic-eabi/6.3.1/armv6-m/libgcc.a(muldf3.o)
                                                  /opt/Atollic_TrueSTUDIO_for_STM32_x86_64_9.3.0/ARMTools/bin/../lib/gcc/arm-atollic-eabi/6.3.1/armv6-m/libgcc.a(divdf3.o)
                                                  /opt/Atollic_TrueSTUDIO_for_STM32_x86_64_9.3.0/ARMTools/bin/../lib/gcc/arm-atollic-eabi/6.3.1/armv6-m/libgcc.a(adddf3.o)
                                                  /opt/Atollic_TrueSTUDIO_for_STM32_x86_64_9.3.0/ARMTools/bin/../lib/gcc/arm-atollic-eabi/6.3.1/armv6-m/libgcc.a(floatunsisf.o)
                                                  /opt/Atollic_TrueSTUDIO_for_STM32_x86_64_9.3.0/ARMTools/bin/../lib/gcc/arm-atollic-eabi/6.3.1/armv6-m/libgcc.a(floatsisf.o)
                                                  /opt/Atollic_TrueSTUDIO_for_STM32_x86_64_9.3.0/ARMTools/bin/../lib/gcc/arm-atollic-eabi/6.3.1/armv6-m/libgcc.a(subsf3.o)
                                                  /opt/Atollic_TrueSTUDIO_for_STM32_x86_64_9.3.0/ARMTools/bin/../lib/gcc/arm-atollic-eabi/6.3.1/armv6-m/libgcc.a(mulsf3.o)
                                                  /opt/Atollic_TrueSTUDIO_for_STM32_x86_64_9.3.0/ARMTools/bin/../lib/gcc/arm-atollic-eabi/6.3.1/armv6-m/libgcc.a(divsf3.o)
                                                  /opt/Atollic_TrueSTUDIO_for_STM32_x86_64_9.3.0/ARMTools/bin/../lib/gcc/arm-atollic-eabi/6.3.1/armv6-m/libgcc.a(addsf3.o)
__divsi3                                          /opt/Atollic_TrueSTUDIO_for_STM32_x86_64_9.3.0/ARMTools/bin/../lib/gcc/arm-atollic-eabi/6.3.1/armv6-m/libgcc.a(_divsi3.o)
__low_level_init                                  Startup/system_bluenrg1.o
__udivsi3                                         /opt/Atollic_TrueSTUDIO_for_STM32_x86_64_9.3.0/ARMTools/bin/../lib/gcc/arm-atollic-eabi/6.3.1/armv6-m/libgcc.a(_udivsi3.o)
__vector_table                                    Startup/system_bluenrg1.o
                                                  Hal/sleep.o
_ebss                                             Startup/system_bluenrg1.o
_ebssblue                                         Startup/system_bluenrg1.o
_edata                                            Startup/system_bluenrg1.o
_edata2                                           Startup/system_bluenrg1.o
_estack                                           Startup/system_bluenrg1.o
_gap_set_discoverable_connectable                 ../../../../../../Library/Bluetooth_LE/library/libbluenrg1_stack.a(gap.o)
_sbss                                             Startup/system_bluenrg1.o
_sbssblue                                         Startup/system_bluenrg1.o
_sdata                                            Startup/system_bluenrg1.o
_sdata2                                           Startup/system_bluenrg1.o
_sidata                                           Startup/system_bluenrg1.o
_sidata2                                          Startup/system_bluenrg1.o
aci_att_exchange_mtu_resp_event                   User/DTM_cmd_db.o
aci_att_exec_write_resp_event                     User/DTM_cmd_db.o
aci_att_execute_write_req                         ../../../../../../Library/Bluetooth_LE/library/libbluenrg1_stack.a(bluenrg_gatt_aci.o)
                                                  User/DTM_cmd_db.o
aci_att_execute_write_req_process                 User/DTM_cmd_db.o
aci_att_find_by_type_value_req                    ../../../../../../Library/Bluetooth_LE/library/libbluenrg1_stack.a(bluenrg_gatt_aci.o)
                                                  User/DTM_cmd_db.o
aci_att_find_by_type_value_req_process            User/DTM_cmd_db.o
aci_att_find_by_type_value_resp_event             User/DTM_cmd_db.o
aci_att_find_info_req                             ../../../../../../Library/Bluetooth_LE/library/libbluenrg1_stack.a(bluenrg_gatt_aci.o)
                                                  User/DTM_cmd_db.o
aci_att_find_info_req_process                     User/DTM_cmd_db.o
aci_att_find_info_resp_event                      User/DTM_cmd_db.o
aci_att_prepare_write_req                         ../../../../../../Library/Bluetooth_LE/library/libbluenrg1_stack.a(bluenrg_gatt_aci.o)
                                                  User/DTM_cmd_db.o
aci_att_prepare_write_req_process                 User/DTM_cmd_db.o
aci_att_prepare_write_resp_event                  User/DTM_cmd_db.o
aci_att_read_blob_resp_event                      User/DTM_cmd_db.o
aci_att_read_by_group_type_req                    ../../../../../../Library/Bluetooth_LE/library/libbluenrg1_stack.a(bluenrg_gatt_aci.o)
                                                  User/DTM_cmd_db.o
aci_att_read_by_group_type_req_process            User/DTM_cmd_db.o
aci_att_read_by_group_type_resp_event             User/DTM_cmd_db.o
aci_att_read_by_type_req                          ../../../../../../Library/Bluetooth_LE/library/libbluenrg1_stack.a(bluenrg_gatt_aci.o)
                                                  User/DTM_cmd_db.o
aci_att_read_by_type_req_process                  User/DTM_cmd_db.o
aci_att_read_by_type_resp_event                   User/DTM_cmd_db.o
aci_att_read_multiple_resp_event                  User/DTM_cmd_db.o
aci_att_read_resp_event                           User/DTM_cmd_db.o
aci_att_write_resp_event                          ../../../../../../Library/Bluetooth_LE/library/libbluenrg1_stack.a(aci_events.o)
aci_blue_crash_info_event                         User/DTM_cmd_db.o
                                                  User/DTM_main.o
aci_blue_events_lost_event                        User/DTM_cmd_db.o
aci_blue_initialized_event                        User/DTM_cmd_db.o
                                                  User/DTM_main.o
aci_event_fifo_push                               ../../../../../../Library/Bluetooth_LE/library/libbluenrg1_stack.a(aci_events.o)
                                                  ../../../../../../Library/Bluetooth_LE/library/libbluenrg1_stack.a(att.o)
                                                  ../../../../../../Library/Bluetooth_LE/library/libbluenrg1_stack.a(acl.o)
                                                  ../../../../../../Library/Bluetooth_LE/library/libbluenrg1_stack.a(smp_common.o)
                                                  ../../../../../../Library/Bluetooth_LE/library/libbluenrg1_stack.a(securitymgr.o)
                                                  ../../../../../../Library/Bluetooth_LE/library/libbluenrg1_stack.a(ll_routines_master.o)
                                                  ../../../../../../Library/Bluetooth_LE/library/libbluenrg1_stack.a(ll_privacy.o)
                                                  ../../../../../../Library/Bluetooth_LE/library/libbluenrg1_stack.a(l2cap.o)
                                                  ../../../../../../Library/Bluetooth_LE/library/libbluenrg1_stack.a(hci.o)
                                                  ../../../../../../Library/Bluetooth_LE/library/libbluenrg1_stack.a(gatt_server.o)
                                                  ../../../../../../Library/Bluetooth_LE/library/libbluenrg1_stack.a(gatt_client.o)
                                                  ../../../../../../Library/Bluetooth_LE/library/libbluenrg1_stack.a(gap.o)
aci_event_fifo_push_header                        ../../../../../../Library/Bluetooth_LE/library/libbluenrg1_stack.a(aci_events.o)
                                                  ../../../../../../Library/Bluetooth_LE/library/libbluenrg1_stack.a(att.o)
                                                  ../../../../../../Library/Bluetooth_LE/library/libbluenrg1_stack.a(acl.o)
                                                  ../../../../../../Library/Bluetooth_LE/library/libbluenrg1_stack.a(smp_common.o)
                                                  ../../../../../../Library/Bluetooth_LE/library/libbluenrg1_stack.a(securitymgr.o)
                                                  ../../../../../../Library/Bluetooth_LE/library/libbluenrg1_stack.a(ll_routines_master.o)
                                                  ../../../../../../Library/Bluetooth_LE/library/libbluenrg1_stack.a(ll_privacy.o)
                                                  ../../../../../../Library/Bluetooth_LE/library/libbluenrg1_stack.a(l2cap.o)
                                                  ../../../../../../Library/Bluetooth_LE/library/libbluenrg1_stack.a(hci.o)
                                                  ../../../../../../Library/Bluetooth_LE/library/libbluenrg1_stack.a(gatt_server.o)
                                                  ../../../../../../Library/Bluetooth_LE/library/libbluenrg1_stack.a(gatt_client.o)
                                                  ../../../../../../Library/Bluetooth_LE/library/libbluenrg1_stack.a(gap.o)
aci_gap_add_devices_to_resolving_list             Stack/stack_user_cfg.o
                                                  User/DTM_cmd_db.o
aci_gap_add_devices_to_resolving_list_api         ../../../../../../Library/Bluetooth_LE/library/libbluenrg1_stack.a(rom_gap.o)
                                                  Stack/stack_user_cfg.o
aci_gap_add_devices_to_resolving_list_process     User/DTM_cmd_db.o
aci_gap_addr_not_resolved_event                   User/DTM_cmd_db.o
aci_gap_allow_rebond                              ../../../../../../Library/Bluetooth_LE/library/libbluenrg1_stack.a(bluenrg_gap_aci.o)
                                                  User/DTM_cmd_db.o
aci_gap_allow_rebond_process                      User/DTM_cmd_db.o
aci_gap_authorization_req_event                   User/DTM_cmd_db.o
aci_gap_authorization_resp                        ../../../../../../Library/Bluetooth_LE/library/libbluenrg1_stack.a(bluenrg_gap_aci.o)
                                                  User/DTM_cmd_db.o
aci_gap_authorization_resp_process                User/DTM_cmd_db.o
aci_gap_bond_lost_event                           User/DTM_cmd_db.o
aci_gap_clear_security_db                         ../../../../../../Library/Bluetooth_LE/library/libbluenrg1_stack.a(bluenrg_gap_aci.o)
                                                  User/DTM_cmd_db.o
aci_gap_clear_security_db_process                 User/DTM_cmd_db.o
aci_gap_configure_whitelist                       ../../../../../../Library/Bluetooth_LE/library/libbluenrg1_stack.a(bluenrg_gap_aci.o)
                                                  User/DTM_cmd_db.o
aci_gap_configure_whitelist_process               User/DTM_cmd_db.o
aci_gap_create_connection                         Stack/stack_user_cfg.o
                                                  User/DTM_cmd_db.o
aci_gap_create_connection_api                     ../../../../../../Library/Bluetooth_LE/library/libbluenrg1_stack.a(bluenrg_gap_aci.o)
                                                  Stack/stack_user_cfg.o
aci_gap_create_connection_process                 User/DTM_cmd_db.o
aci_gap_delete_ad_type                            ../../../../../../Library/Bluetooth_LE/library/libbluenrg1_stack.a(bluenrg_gap_aci.o)
                                                  User/DTM_cmd_db.o
aci_gap_delete_ad_type_process                    User/DTM_cmd_db.o
aci_gap_device_found_event                        ../../../../../../Library/Bluetooth_LE/library/libbluenrg1_stack.a(aci_events.o)
aci_gap_get_bonded_devices                        ../../../../../../Library/Bluetooth_LE/library/libbluenrg1_stack.a(bluenrg_gap_aci.o)
                                                  User/DTM_cmd_db.o
aci_gap_get_bonded_devices_process                User/DTM_cmd_db.o
aci_gap_get_oob_data                              ../../../../../../Library/Bluetooth_LE/library/libbluenrg1_stack.a(bluenrg_gap_aci.o)
                                                  User/DTM_cmd_db.o
aci_gap_get_oob_data_process                      User/DTM_cmd_db.o
aci_gap_get_security_level                        ../../../../../../Library/Bluetooth_LE/library/libbluenrg1_stack.a(bluenrg_gap_aci.o)
                                                  User/DTM_cmd_db.o
aci_gap_get_security_level_process                User/DTM_cmd_db.o
aci_gap_init                                      ../../../../../../Library/Bluetooth_LE/library/libbluenrg1_stack.a(bluenrg_gap_aci.o)
                                                  User/DTM_cmd_db.o
aci_gap_init_process                              User/DTM_cmd_db.o
aci_gap_is_device_bonded                          ../../../../../../Library/Bluetooth_LE/library/libbluenrg1_stack.a(bluenrg_gap_aci.o)
                                                  User/DTM_cmd_db.o
aci_gap_is_device_bonded_process                  User/DTM_cmd_db.o
aci_gap_keypress_notification_event               User/DTM_cmd_db.o
aci_gap_limited_discoverable_event                User/DTM_cmd_db.o
aci_gap_numeric_comparison_value_confirm_yesno    Stack/stack_user_cfg.o
                                                  User/DTM_cmd_db.o
aci_gap_numeric_comparison_value_confirm_yesno_api ../../../../../../Library/Bluetooth_LE/library/libbluenrg1_stack.a(bluenrg_gap_aci.o)
                                                  Stack/stack_user_cfg.o
aci_gap_numeric_comparison_value_confirm_yesno_process User/DTM_cmd_db.o
aci_gap_numeric_comparison_value_event            User/DTM_cmd_db.o
aci_gap_pairing_complete_event                    User/DTM_cmd_db.o
aci_gap_pass_key_req_event                        User/DTM_cmd_db.o
aci_gap_pass_key_resp                             ../../../../../../Library/Bluetooth_LE/library/libbluenrg1_stack.a(bluenrg_gap_aci.o)
                                                  User/DTM_cmd_db.o
aci_gap_pass_key_resp_process                     User/DTM_cmd_db.o
aci_gap_passkey_input                             Stack/stack_user_cfg.o
                                                  User/DTM_cmd_db.o
aci_gap_passkey_input_api                         ../../../../../../Library/Bluetooth_LE/library/libbluenrg1_stack.a(bluenrg_gap_aci.o)
                                                  Stack/stack_user_cfg.o
aci_gap_passkey_input_process                     User/DTM_cmd_db.o
aci_gap_proc_complete_event                       User/DTM_cmd_db.o
aci_gap_remove_bonded_device                      ../../../../../../Library/Bluetooth_LE/library/libbluenrg1_stack.a(bluenrg_gap_aci.o)
                                                  User/DTM_cmd_db.o
aci_gap_remove_bonded_device_process              User/DTM_cmd_db.o
aci_gap_resolve_private_addr                      ../../../../../../Library/Bluetooth_LE/library/libbluenrg1_stack.a(bluenrg_gap_aci.o)
                                                  User/DTM_cmd_db.o
aci_gap_resolve_private_addr_process              User/DTM_cmd_db.o
aci_gap_send_pairing_req                          Stack/stack_user_cfg.o
                                                  User/DTM_cmd_db.o
aci_gap_send_pairing_req_api                      ../../../../../../Library/Bluetooth_LE/library/libbluenrg1_stack.a(bluenrg_gap_aci.o)
                                                  Stack/stack_user_cfg.o
aci_gap_send_pairing_req_process                  User/DTM_cmd_db.o
aci_gap_set_authentication_requirement            ../../../../../../Library/Bluetooth_LE/library/libbluenrg1_stack.a(bluenrg_gap_aci.o)
                                                  User/DTM_cmd_db.o
aci_gap_set_authentication_requirement_process    User/DTM_cmd_db.o
aci_gap_set_authorization_requirement             ../../../../../../Library/Bluetooth_LE/library/libbluenrg1_stack.a(bluenrg_gap_aci.o)
                                                  User/DTM_cmd_db.o
aci_gap_set_authorization_requirement_process     User/DTM_cmd_db.o
aci_gap_set_broadcast_mode                        ../../../../../../Library/Bluetooth_LE/library/libbluenrg1_stack.a(bluenrg_gap_aci.o)
                                                  User/DTM_cmd_db.o
aci_gap_set_broadcast_mode_process                User/DTM_cmd_db.o
aci_gap_set_direct_connectable                    ../../../../../../Library/Bluetooth_LE/library/libbluenrg1_stack.a(bluenrg_gap_aci.o)
                                                  User/DTM_cmd_db.o
aci_gap_set_direct_connectable_process            User/DTM_cmd_db.o
aci_gap_set_discoverable                          ../../../../../../Library/Bluetooth_LE/library/libbluenrg1_stack.a(bluenrg_gap_aci.o)
                                                  User/DTM_cmd_db.o
aci_gap_set_discoverable_process                  User/DTM_cmd_db.o
aci_gap_set_event_mask                            ../../../../../../Library/Bluetooth_LE/library/libbluenrg1_stack.a(bluenrg_gap_aci.o)
                                                  User/DTM_cmd_db.o
aci_gap_set_event_mask_process                    User/DTM_cmd_db.o
aci_gap_set_io_capability                         ../../../../../../Library/Bluetooth_LE/library/libbluenrg1_stack.a(bluenrg_gap_aci.o)
                                                  User/DTM_cmd_db.o
aci_gap_set_io_capability_process                 User/DTM_cmd_db.o
aci_gap_set_limited_discoverable                  ../../../../../../Library/Bluetooth_LE/library/libbluenrg1_stack.a(bluenrg_gap_aci.o)
                                                  User/DTM_cmd_db.o
aci_gap_set_limited_discoverable_process          User/DTM_cmd_db.o
aci_gap_set_non_connectable                       ../../../../../../Library/Bluetooth_LE/library/libbluenrg1_stack.a(bluenrg_gap_aci.o)
                                                  User/DTM_cmd_db.o
aci_gap_set_non_connectable_process               User/DTM_cmd_db.o
aci_gap_set_non_discoverable                      ../../../../../../Library/Bluetooth_LE/library/libbluenrg1_stack.a(bluenrg_gap_aci.o)
                                                  User/DTM_cmd_db.o
aci_gap_set_non_discoverable_process              User/DTM_cmd_db.o
aci_gap_set_oob_data                              ../../../../../../Library/Bluetooth_LE/library/libbluenrg1_stack.a(bluenrg_gap_aci.o)
                                                  User/DTM_cmd_db.o
aci_gap_set_oob_data_process                      User/DTM_cmd_db.o
aci_gap_set_undirected_connectable                ../../../../../../Library/Bluetooth_LE/library/libbluenrg1_stack.a(bluenrg_gap_aci.o)
                                                  User/DTM_cmd_db.o
aci_gap_set_undirected_connectable_process        User/DTM_cmd_db.o
aci_gap_slave_security_initiated_event            User/DTM_cmd_db.o
aci_gap_slave_security_req                        ../../../../../../Library/Bluetooth_LE/library/libbluenrg1_stack.a(bluenrg_gap_aci.o)
                                                  User/DTM_cmd_db.o
aci_gap_slave_security_req_process                User/DTM_cmd_db.o
aci_gap_start_auto_connection_establish_proc      Stack/stack_user_cfg.o
                                                  User/DTM_cmd_db.o
aci_gap_start_auto_connection_establish_proc_api  ../../../../../../Library/Bluetooth_LE/library/libbluenrg1_stack.a(bluenrg_gap_aci.o)
                                                  Stack/stack_user_cfg.o
aci_gap_start_auto_connection_establish_proc_process User/DTM_cmd_db.o
aci_gap_start_connection_update                   Stack/stack_user_cfg.o
                                                  User/DTM_cmd_db.o
aci_gap_start_connection_update_api               ../../../../../../Library/Bluetooth_LE/library/libbluenrg1_stack.a(bluenrg_gap_aci.o)
                                                  Stack/stack_user_cfg.o
aci_gap_start_connection_update_process           User/DTM_cmd_db.o
aci_gap_start_general_connection_establish_proc   Stack/stack_user_cfg.o
                                                  User/DTM_cmd_db.o
aci_gap_start_general_connection_establish_proc_api ../../../../../../Library/Bluetooth_LE/library/libbluenrg1_stack.a(bluenrg_gap_aci.o)
                                                  Stack/stack_user_cfg.o
aci_gap_start_general_connection_establish_proc_process User/DTM_cmd_db.o
aci_gap_start_general_discovery_proc              Stack/stack_user_cfg.o
                                                  User/DTM_cmd_db.o
aci_gap_start_general_discovery_proc_api          ../../../../../../Library/Bluetooth_LE/library/libbluenrg1_stack.a(bluenrg_gap_aci.o)
                                                  Stack/stack_user_cfg.o
aci_gap_start_general_discovery_proc_process      User/DTM_cmd_db.o
aci_gap_start_limited_discovery_proc              Stack/stack_user_cfg.o
                                                  User/DTM_cmd_db.o
aci_gap_start_limited_discovery_proc_api          ../../../../../../Library/Bluetooth_LE/library/libbluenrg1_stack.a(bluenrg_gap_aci.o)
                                                  Stack/stack_user_cfg.o
aci_gap_start_limited_discovery_proc_process      User/DTM_cmd_db.o
aci_gap_start_name_discovery_proc                 Stack/stack_user_cfg.o
                                                  User/DTM_cmd_db.o
aci_gap_start_name_discovery_proc_api             ../../../../../../Library/Bluetooth_LE/library/libbluenrg1_stack.a(bluenrg_gap_aci.o)
                                                  Stack/stack_user_cfg.o
aci_gap_start_name_discovery_proc_process         User/DTM_cmd_db.o
aci_gap_start_observation_proc                    Stack/stack_user_cfg.o
                                                  User/DTM_cmd_db.o
aci_gap_start_observation_proc_api                ../../../../../../Library/Bluetooth_LE/library/libbluenrg1_stack.a(bluenrg_gap_aci.o)
                                                  Stack/stack_user_cfg.o
aci_gap_start_observation_proc_process            User/DTM_cmd_db.o
aci_gap_start_selective_connection_establish_proc Stack/stack_user_cfg.o
                                                  User/DTM_cmd_db.o
aci_gap_start_selective_connection_establish_proc_api ../../../../../../Library/Bluetooth_LE/library/libbluenrg1_stack.a(bluenrg_gap_aci.o)
                                                  Stack/stack_user_cfg.o
aci_gap_start_selective_connection_establish_proc_process User/DTM_cmd_db.o
aci_gap_terminate                                 ../../../../../../Library/Bluetooth_LE/library/libbluenrg1_stack.a(bluenrg_gap_aci.o)
                                                  User/DTM_cmd_db.o
aci_gap_terminate_gap_proc                        Stack/stack_user_cfg.o
                                                  User/DTM_cmd_db.o
aci_gap_terminate_gap_proc_api                    ../../../../../../Library/Bluetooth_LE/library/libbluenrg1_stack.a(bluenrg_gap_aci.o)
                                                  Stack/stack_user_cfg.o
aci_gap_terminate_gap_proc_process                User/DTM_cmd_db.o
aci_gap_terminate_process                         User/DTM_cmd_db.o
aci_gap_update_adv_data                           ../../../../../../Library/Bluetooth_LE/library/libbluenrg1_stack.a(bluenrg_gap_aci.o)
                                                  User/DTM_cmd_db.o
aci_gap_update_adv_data_process                   User/DTM_cmd_db.o
aci_gatt_add_char                                 ../../../../../../Library/Bluetooth_LE/library/libbluenrg1_stack.a(bluenrg_gatt_aci.o)
                                                  User/DTM_cmd_db.o
aci_gatt_add_char_desc                            ../../../../../../Library/Bluetooth_LE/library/libbluenrg1_stack.a(bluenrg_gatt_aci.o)
                                                  User/DTM_cmd_db.o
aci_gatt_add_char_desc_process                    User/DTM_cmd_db.o
aci_gatt_add_char_process                         User/DTM_cmd_db.o
aci_gatt_add_service                              ../../../../../../Library/Bluetooth_LE/library/libbluenrg1_stack.a(bluenrg_gatt_aci.o)
                                                  User/DTM_cmd_db.o
aci_gatt_add_service_process                      User/DTM_cmd_db.o
aci_gatt_allow_read                               ../../../../../../Library/Bluetooth_LE/library/libbluenrg1_stack.a(bluenrg_gatt_aci.o)
                                                  User/DTM_cmd_db.o
aci_gatt_allow_read_process                       User/DTM_cmd_db.o
aci_gatt_attribute_modified_event                 User/DTM_cmd_db.o
aci_gatt_confirm_indication                       ../../../../../../Library/Bluetooth_LE/library/libbluenrg1_stack.a(bluenrg_gatt_aci.o)
                                                  User/DTM_cmd_db.o
aci_gatt_confirm_indication_process               User/DTM_cmd_db.o
aci_gatt_del_char                                 ../../../../../../Library/Bluetooth_LE/library/libbluenrg1_stack.a(bluenrg_gatt_aci.o)
                                                  User/DTM_cmd_db.o
aci_gatt_del_char_process                         User/DTM_cmd_db.o
aci_gatt_del_include_service                      ../../../../../../Library/Bluetooth_LE/library/libbluenrg1_stack.a(bluenrg_gatt_aci.o)
                                                  User/DTM_cmd_db.o
aci_gatt_del_include_service_process              User/DTM_cmd_db.o
aci_gatt_del_service                              ../../../../../../Library/Bluetooth_LE/library/libbluenrg1_stack.a(bluenrg_gatt_aci.o)
                                                  User/DTM_cmd_db.o
aci_gatt_del_service_process                      User/DTM_cmd_db.o
aci_gatt_deny_read                                ../../../../../../Library/Bluetooth_LE/library/libbluenrg1_stack.a(bluenrg_gatt_aci.o)
                                                  User/DTM_cmd_db.o
aci_gatt_deny_read_process                        User/DTM_cmd_db.o
aci_gatt_disc_all_char_desc                       ../../../../../../Library/Bluetooth_LE/library/libbluenrg1_stack.a(bluenrg_gatt_aci.o)
                                                  User/DTM_cmd_db.o
aci_gatt_disc_all_char_desc_process               User/DTM_cmd_db.o
aci_gatt_disc_all_char_of_service                 ../../../../../../Library/Bluetooth_LE/library/libbluenrg1_stack.a(bluenrg_gatt_aci.o)
                                                  User/DTM_cmd_db.o
aci_gatt_disc_all_char_of_service_process         User/DTM_cmd_db.o
aci_gatt_disc_all_primary_services                ../../../../../../Library/Bluetooth_LE/library/libbluenrg1_stack.a(bluenrg_gatt_aci.o)
                                                  User/DTM_cmd_db.o
aci_gatt_disc_all_primary_services_process        User/DTM_cmd_db.o
aci_gatt_disc_char_by_uuid                        ../../../../../../Library/Bluetooth_LE/library/libbluenrg1_stack.a(bluenrg_gatt_aci.o)
                                                  User/DTM_cmd_db.o
aci_gatt_disc_char_by_uuid_process                User/DTM_cmd_db.o
aci_gatt_disc_primary_service_by_uuid             ../../../../../../Library/Bluetooth_LE/library/libbluenrg1_stack.a(bluenrg_gatt_aci.o)
                                                  User/DTM_cmd_db.o
aci_gatt_disc_primary_service_by_uuid_process     User/DTM_cmd_db.o
aci_gatt_disc_read_char_by_uuid_resp_event        User/DTM_cmd_db.o
aci_gatt_error_resp_event                         User/DTM_cmd_db.o
aci_gatt_exchange_config                          ../../../../../../Library/Bluetooth_LE/library/libbluenrg1_stack.a(bluenrg_gatt_aci.o)
                                                  User/DTM_cmd_db.o
aci_gatt_exchange_config_process                  User/DTM_cmd_db.o
aci_gatt_find_included_services                   ../../../../../../Library/Bluetooth_LE/library/libbluenrg1_stack.a(bluenrg_gatt_aci.o)
                                                  User/DTM_cmd_db.o
aci_gatt_find_included_services_process           User/DTM_cmd_db.o
aci_gatt_include_service                          ../../../../../../Library/Bluetooth_LE/library/libbluenrg1_stack.a(bluenrg_gatt_aci.o)
                                                  User/DTM_cmd_db.o
aci_gatt_include_service_process                  User/DTM_cmd_db.o
aci_gatt_indication_event                         User/DTM_cmd_db.o
aci_gatt_init                                     ../../../../../../Library/Bluetooth_LE/library/libbluenrg1_stack.a(bluenrg_gatt_aci.o)
                                                  User/DTM_cmd_db.o
aci_gatt_init_process                             User/DTM_cmd_db.o
aci_gatt_notification_event                       User/DTM_cmd_db.o
aci_gatt_prepare_write_permit_req_event           User/DTM_cmd_db.o
aci_gatt_proc_complete_event                      User/DTM_cmd_db.o
aci_gatt_proc_timeout_event                       User/DTM_cmd_db.o
aci_gatt_read_char_desc                           ../../../../../../Library/Bluetooth_LE/library/libbluenrg1_stack.a(bluenrg_gatt_aci.o)
                                                  User/DTM_cmd_db.o
aci_gatt_read_char_desc_process                   User/DTM_cmd_db.o
aci_gatt_read_char_value                          ../../../../../../Library/Bluetooth_LE/library/libbluenrg1_stack.a(bluenrg_gatt_aci.o)
                                                  User/DTM_cmd_db.o
aci_gatt_read_char_value_process                  User/DTM_cmd_db.o
aci_gatt_read_handle_value                        ../../../../../../Library/Bluetooth_LE/library/libbluenrg1_stack.a(bluenrg_gatt_aci.o)
                                                  User/DTM_cmd_db.o
aci_gatt_read_handle_value_process                User/DTM_cmd_db.o
aci_gatt_read_long_char_desc                      ../../../../../../Library/Bluetooth_LE/library/libbluenrg1_stack.a(bluenrg_gatt_aci.o)
                                                  User/DTM_cmd_db.o
aci_gatt_read_long_char_desc_process              User/DTM_cmd_db.o
aci_gatt_read_long_char_value                     ../../../../../../Library/Bluetooth_LE/library/libbluenrg1_stack.a(bluenrg_gatt_aci.o)
                                                  User/DTM_cmd_db.o
aci_gatt_read_long_char_value_process             User/DTM_cmd_db.o
aci_gatt_read_multi_permit_req_event              User/DTM_cmd_db.o
aci_gatt_read_multiple_char_value                 ../../../../../../Library/Bluetooth_LE/library/libbluenrg1_stack.a(bluenrg_gatt_aci.o)
                                                  User/DTM_cmd_db.o
aci_gatt_read_multiple_char_value_process         User/DTM_cmd_db.o
aci_gatt_read_permit_req_event                    User/DTM_cmd_db.o
aci_gatt_read_using_char_uuid                     ../../../../../../Library/Bluetooth_LE/library/libbluenrg1_stack.a(bluenrg_gatt_aci.o)
                                                  User/DTM_cmd_db.o
aci_gatt_read_using_char_uuid_process             User/DTM_cmd_db.o
aci_gatt_server_confirmation_event                User/DTM_cmd_db.o
aci_gatt_set_access_permission                    ../../../../../../Library/Bluetooth_LE/library/libbluenrg1_stack.a(bluenrg_gatt_aci.o)
                                                  User/DTM_cmd_db.o
aci_gatt_set_access_permission_process            User/DTM_cmd_db.o
aci_gatt_set_desc_value                           ../../../../../../Library/Bluetooth_LE/library/libbluenrg1_stack.a(bluenrg_gatt_aci.o)
                                                  User/DTM_cmd_db.o
aci_gatt_set_desc_value_process                   User/DTM_cmd_db.o
aci_gatt_set_event_mask                           ../../../../../../Library/Bluetooth_LE/library/libbluenrg1_stack.a(bluenrg_gatt_aci.o)
                                                  User/DTM_cmd_db.o
aci_gatt_set_event_mask_process                   User/DTM_cmd_db.o
aci_gatt_set_security_permission                  ../../../../../../Library/Bluetooth_LE/library/libbluenrg1_stack.a(bluenrg_gatt_aci.o)
                                                  User/DTM_cmd_db.o
aci_gatt_set_security_permission_process          User/DTM_cmd_db.o
aci_gatt_signed_write_without_resp                ../../../../../../Library/Bluetooth_LE/library/libbluenrg1_stack.a(bluenrg_gatt_aci.o)
                                                  User/DTM_cmd_db.o
aci_gatt_signed_write_without_resp_process        User/DTM_cmd_db.o
aci_gatt_tx_pool_available_event                  User/DTM_cmd_db.o
aci_gatt_update_char_value                        ../../../../../../Library/Bluetooth_LE/library/libbluenrg1_stack.a(bluenrg_gatt_aci.o)
                                                  User/DTM_cmd_db.o
aci_gatt_update_char_value_ext                    ../../../../../../Library/Bluetooth_LE/library/libbluenrg1_stack.a(bluenrg_gatt_aci.o)
                                                  User/DTM_cmd_db.o
aci_gatt_update_char_value_ext_process            User/DTM_cmd_db.o
aci_gatt_update_char_value_process                User/DTM_cmd_db.o
aci_gatt_write_char_desc                          ../../../../../../Library/Bluetooth_LE/library/libbluenrg1_stack.a(bluenrg_gatt_aci.o)
                                                  User/DTM_cmd_db.o
aci_gatt_write_char_desc_process                  User/DTM_cmd_db.o
aci_gatt_write_char_reliable                      ../../../../../../Library/Bluetooth_LE/library/libbluenrg1_stack.a(bluenrg_gatt_aci.o)
                                                  User/DTM_cmd_db.o
aci_gatt_write_char_reliable_process              User/DTM_cmd_db.o
aci_gatt_write_char_value                         ../../../../../../Library/Bluetooth_LE/library/libbluenrg1_stack.a(bluenrg_gatt_aci.o)
                                                  User/DTM_cmd_db.o
aci_gatt_write_char_value_process                 User/DTM_cmd_db.o
aci_gatt_write_long_char_desc                     ../../../../../../Library/Bluetooth_LE/library/libbluenrg1_stack.a(bluenrg_gatt_aci.o)
                                                  User/DTM_cmd_db.o
aci_gatt_write_long_char_desc_process             User/DTM_cmd_db.o
aci_gatt_write_long_char_value                    ../../../../../../Library/Bluetooth_LE/library/libbluenrg1_stack.a(bluenrg_gatt_aci.o)
                                                  User/DTM_cmd_db.o
aci_gatt_write_long_char_value_process            User/DTM_cmd_db.o
aci_gatt_write_permit_req_event                   User/DTM_cmd_db.o
aci_gatt_write_resp                               ../../../../../../Library/Bluetooth_LE/library/libbluenrg1_stack.a(bluenrg_gatt_aci.o)
                                                  User/DTM_cmd_db.o
aci_gatt_write_resp_process                       User/DTM_cmd_db.o
aci_gatt_write_without_resp                       ../../../../../../Library/Bluetooth_LE/library/libbluenrg1_stack.a(bluenrg_gatt_aci.o)
                                                  User/DTM_cmd_db.o
aci_gatt_write_without_resp_process               User/DTM_cmd_db.o
aci_hal_end_of_radio_activity_event               User/DTM_cmd_db.o
aci_hal_fw_error_event                            User/DTM_cmd_db.o
aci_hal_get_anchor_period                         ../../../../../../Library/Bluetooth_LE/library/libbluenrg1_stack.a(hci.o)
                                                  User/DTM_cmd_db.o
aci_hal_get_anchor_period_process                 User/DTM_cmd_db.o
aci_hal_get_firmware_details                      User/DTM_cmds.o
                                                  User/DTM_cmd_db.o
aci_hal_get_firmware_details_process              User/DTM_cmd_db.o
aci_hal_get_fw_build_number                       ../../../../../../Library/Bluetooth_LE/library/libbluenrg1_stack.a(bluenrg_hal_aci.o)
                                                  User/DTM_cmds.o
                                                  User/DTM_cmd_db.o
aci_hal_get_fw_build_number_process               User/DTM_cmd_db.o
aci_hal_get_link_status                           ../../../../../../Library/Bluetooth_LE/library/libbluenrg1_stack.a(ll_routines_support.o)
                                                  User/DTM_cmd_db.o
aci_hal_get_link_status_process                   User/DTM_cmd_db.o
aci_hal_get_pm_debug_info                         ../../../../../../Library/Bluetooth_LE/library/libbluenrg1_stack.a(bluenrg_hal_aci.o)
aci_hal_le_tx_test_packet_number                  ../../../../../../Library/Bluetooth_LE/library/libbluenrg1_stack.a(bluenrg_hal_aci.o)
                                                  User/DTM_cmd_db.o
aci_hal_le_tx_test_packet_number_process          User/DTM_cmd_db.o
aci_hal_read_config_data                          ../../../../../../Library/Bluetooth_LE/library/libbluenrg1_stack.a(bluenrg_hal_aci.o)
                                                  User/DTM_cmd_db.o
aci_hal_read_config_data_process                  User/DTM_cmd_db.o
aci_hal_scan_req_report_event                     User/DTM_cmd_db.o
aci_hal_set_event_mask                            ../../../../../../Library/Bluetooth_LE/library/libbluenrg1_stack.a(bluenrg_hal_aci.o)
                                                  User/DTM_cmd_db.o
aci_hal_set_event_mask_process                    User/DTM_cmd_db.o
aci_hal_set_radio_activity_mask                   ../../../../../../Library/Bluetooth_LE/library/libbluenrg1_stack.a(hal.o)
                                                  User/DTM_cmd_db.o
aci_hal_set_radio_activity_mask_process           User/DTM_cmd_db.o
aci_hal_set_smp_eng_config                        ../../../../../../Library/Bluetooth_LE/library/libbluenrg1_stack.a(bluenrg_gap_aci.o)
aci_hal_set_tx_power_level                        ../../../../../../Library/Bluetooth_LE/library/libbluenrg1_stack.a(bluenrg_hal_aci.o)
                                                  User/DTM_cmd_db.o
aci_hal_set_tx_power_level_process                User/DTM_cmd_db.o
aci_hal_tone_start                                ../../../../../../Library/Bluetooth_LE/library/libbluenrg1_stack.a(bluenrg_hal_aci.o)
                                                  User/DTM_cmd_db.o
aci_hal_tone_start_process                        User/DTM_cmd_db.o
aci_hal_tone_stop                                 ../../../../../../Library/Bluetooth_LE/library/libbluenrg1_stack.a(bluenrg_hal_aci.o)
                                                  User/DTM_cmd_db.o
aci_hal_tone_stop_process                         User/DTM_cmd_db.o
aci_hal_transmitter_test_packets                  User/DTM_cmds.o
                                                  User/DTM_cmd_db.o
aci_hal_transmitter_test_packets_process          User/DTM_cmd_db.o
aci_hal_updater_start                             User/DTM_cmds.o
                                                  User/DTM_cmd_db.o
aci_hal_updater_start_process                     User/DTM_cmd_db.o
aci_hal_write_config_data                         ../../../../../../Library/Bluetooth_LE/library/libbluenrg1_stack.a(bluenrg_hal_aci.o)
                                                  User/DTM_cmd_db.o
aci_hal_write_config_data_process                 User/DTM_cmd_db.o
aci_l2cap_command_reject_event                    User/DTM_cmd_db.o
aci_l2cap_connection_parameter_update_req         ../../../../../../Library/Bluetooth_LE/library/libbluenrg1_stack.a(bluenrg_l2cap_aci.o)
                                                  User/DTM_cmd_db.o
aci_l2cap_connection_parameter_update_req_process User/DTM_cmd_db.o
aci_l2cap_connection_parameter_update_resp        Stack/stack_user_cfg.o
                                                  User/DTM_cmd_db.o
aci_l2cap_connection_parameter_update_resp_api    ../../../../../../Library/Bluetooth_LE/library/libbluenrg1_stack.a(bluenrg_l2cap_aci.o)
                                                  Stack/stack_user_cfg.o
aci_l2cap_connection_parameter_update_resp_process User/DTM_cmd_db.o
aci_l2cap_connection_update_req_event             User/DTM_cmd_db.o
aci_l2cap_connection_update_resp_event            User/DTM_cmd_db.o
aci_l2cap_proc_timeout_event                      User/DTM_cmd_db.o
acl_list_first                                    ../../../../../../Library/Bluetooth_LE/library/libbluenrg1_stack.a(acl_list.o)
                                                  ../../../../../../Library/Bluetooth_LE/library/libbluenrg1_stack.a(att.o)
                                                  ../../../../../../Library/Bluetooth_LE/library/libbluenrg1_stack.a(smp_common.o)
                                                  ../../../../../../Library/Bluetooth_LE/library/libbluenrg1_stack.a(hci.o)
                                                  ../../../../../../Library/Bluetooth_LE/library/libbluenrg1_stack.a(gatt_server.o)
acl_list_full_on_packt                            ../../../../../../Library/Bluetooth_LE/library/libbluenrg1_stack.a(acl_list.o)
                                                  ../../../../../../Library/Bluetooth_LE/library/libbluenrg1_stack.a(att.o)
acl_list_get_mblock_count                         ../../../../../../Library/Bluetooth_LE/library/libbluenrg1_stack.a(acl_list.o)
acl_list_get_pckt_count                           ../../../../../../Library/Bluetooth_LE/library/libbluenrg1_stack.a(acl_list.o)
acl_list_init                                     ../../../../../../Library/Bluetooth_LE/library/libbluenrg1_stack.a(acl_list.o)
                                                  ../../../../../../Library/Bluetooth_LE/library/libbluenrg1_stack.a(smp_common.o)
                                                  ../../../../../../Library/Bluetooth_LE/library/libbluenrg1_stack.a(hci.o)
                                                  ../../../../../../Library/Bluetooth_LE/library/libbluenrg1_stack.a(gatt_server.o)
acl_list_insert_head                              ../../../../../../Library/Bluetooth_LE/library/libbluenrg1_stack.a(acl_list.o)
                                                  ../../../../../../Library/Bluetooth_LE/library/libbluenrg1_stack.a(securitymgr.o)
                                                  ../../../../../../Library/Bluetooth_LE/library/libbluenrg1_stack.a(gatt_server.o)
acl_list_insert_tail                              ../../../../../../Library/Bluetooth_LE/library/libbluenrg1_stack.a(acl_list.o)
                                                  ../../../../../../Library/Bluetooth_LE/library/libbluenrg1_stack.a(att.o)
                                                  ../../../../../../Library/Bluetooth_LE/library/libbluenrg1_stack.a(smp_common.o)
                                                  ../../../../../../Library/Bluetooth_LE/library/libbluenrg1_stack.a(hci.o)
                                                  ../../../../../../Library/Bluetooth_LE/library/libbluenrg1_stack.a(gatt_server.o)
acl_list_is_empty                                 ../../../../../../Library/Bluetooth_LE/library/libbluenrg1_stack.a(acl_list.o)
                                                  ../../../../../../Library/Bluetooth_LE/library/libbluenrg1_stack.a(securitymgr.o)
                                                  ../../../../../../Library/Bluetooth_LE/library/libbluenrg1_stack.a(hci.o)
                                                  ../../../../../../Library/Bluetooth_LE/library/libbluenrg1_stack.a(gatt_server.o)
acl_list_is_full                                  ../../../../../../Library/Bluetooth_LE/library/libbluenrg1_stack.a(acl_list.o)
acl_list_remove                                   ../../../../../../Library/Bluetooth_LE/library/libbluenrg1_stack.a(acl_list.o)
                                                  ../../../../../../Library/Bluetooth_LE/library/libbluenrg1_stack.a(att.o)
                                                  ../../../../../../Library/Bluetooth_LE/library/libbluenrg1_stack.a(smp_common.o)
                                                  ../../../../../../Library/Bluetooth_LE/library/libbluenrg1_stack.a(hci.o)
                                                  ../../../../../../Library/Bluetooth_LE/library/libbluenrg1_stack.a(gatt_server.o)
acl_list_remove_head                              ../../../../../../Library/Bluetooth_LE/library/libbluenrg1_stack.a(acl_list.o)
                                                  ../../../../../../Library/Bluetooth_LE/library/libbluenrg1_stack.a(securitymgr.o)
                                                  ../../../../../../Library/Bluetooth_LE/library/libbluenrg1_stack.a(gatt_server.o)
activate_slot                                     ../../../../../../Library/Bluetooth_LE/library/libbluenrg1_stack.a(multi_master_time.o)
advParamsCheckAndSet                              ../../../../../../Library/Bluetooth_LE/library/libbluenrg1_stack.a(gap.o)
advance_dma                                       User/transport_layer.o
                                                  User/BlueNRG1_it.o
advance_slave_timing_MultiSlave                   ../../../../../../Library/Bluetooth_LE/library/libbluenrg1_stack.a(multi_master_time.o)
                                                  ../../../../../../Library/Bluetooth_LE/library/libbluenrg1_stack.a(advance_wakeup_time.o)
advance_transmit                                  ../../../../../../Library/Bluetooth_LE/library/libbluenrg1_stack.a(routines_support.o)
                                                  ../../../../../../Library/Bluetooth_LE/library/libbluenrg1_stack.a(bluenrg_main_func.o)
advance_wakeup_timer                              ../../../../../../Library/Bluetooth_LE/library/libbluenrg1_stack.a(advance_wakeup_time.o)
                                                  ../../../../../../Library/Bluetooth_LE/library/libbluenrg1_stack.a(isr_routines.o)
                                                  ../../../../../../Library/Bluetooth_LE/library/libbluenrg1_stack.a(acl.o)
                                                  ../../../../../../Library/Bluetooth_LE/library/libbluenrg1_stack.a(rom_ll_ll_routines_master.o)
                                                  ../../../../../../Library/Bluetooth_LE/library/libbluenrg1_stack.a(rom_ll_ll_routines.o)
                                                  ../../../../../../Library/Bluetooth_LE/library/libbluenrg1_stack.a(rom_ll_isr_routines.o)
                                                  ../../../../../../Library/Bluetooth_LE/library/libbluenrg1_stack.a(multi_master_time.o)
                                                  ../../../../../../Library/Bluetooth_LE/library/libbluenrg1_stack.a(ll_routines_master.o)
                                                  ../../../../../../Library/Bluetooth_LE/library/libbluenrg1_stack.a(ll_isr.o)
anchor_replace                                    ../../../../../../Library/Bluetooth_LE/library/libbluenrg1_stack.a(multi_master_time.o)
                                                  ../../../../../../Library/Bluetooth_LE/library/libbluenrg1_stack.a(rom_ll_isr_routines.o)
                                                  ../../../../../../Library/Bluetooth_LE/library/libbluenrg1_stack.a(ll_isr.o)
app_base                                          Startup/system_bluenrg1.o
bleBaseUuid                                       ../../../../../../Library/Bluetooth_LE/library/libbluenrg1_stack.a(att.o)
                                                  ../../../../../../Library/Bluetooth_LE/library/libbluenrg1_stack.a(gatt_client.o)
ble_HAL_Init                                      ../../../../../../Library/Bluetooth_LE/library/libbluenrg1_stack.a(hal.o)
                                                  ../../../../../../Library/Bluetooth_LE/library/libbluenrg1_stack.a(bluenrg_main_func.o)
buffer_out                                        User/hci_parser.o
buffer_out_len                                    User/hci_parser.o
cStackPreamble                                    Hal/sleep.o
cancel_connect_master                             ../../../../../../Library/Bluetooth_LE/library/libbluenrg1_stack.a(rom_ll_isr_routines.o)
                                                  Stack/stack_user_cfg.o
cancel_connect_master_ucfg                        Stack/stack_user_cfg.o
cancel_current_master                             ../../../../../../Library/Bluetooth_LE/library/libbluenrg1_stack.a(multi_master_time.o)
                                                  ../../../../../../Library/Bluetooth_LE/library/libbluenrg1_stack.a(rom_ll_isr_routines.o)
                                                  ../../../../../../Library/Bluetooth_LE/library/libbluenrg1_stack.a(ll_routines_master.o)
                                                  ../../../../../../Library/Bluetooth_LE/library/libbluenrg1_stack.a(ll_isr.o)
cancel_master                                     ../../../../../../Library/Bluetooth_LE/library/libbluenrg1_stack.a(rom_ll_isr_routines.o)
                                                  ../../../../../../Library/Bluetooth_LE/library/libbluenrg1_stack.a(advance_wakeup_time.o)
cancel_slave                                      ../../../../../../Library/Bluetooth_LE/library/libbluenrg1_stack.a(isr_routines.o)
                                                  ../../../../../../Library/Bluetooth_LE/library/libbluenrg1_stack.a(multi_master_time.o)
cb_aci_att_exchange_mtu_resp_event                ../../../../../../Library/Bluetooth_LE/library/libbluenrg1_stack.a(aci_events.o)
cb_aci_att_exec_write_resp_event                  ../../../../../../Library/Bluetooth_LE/library/libbluenrg1_stack.a(aci_events.o)
cb_aci_att_find_by_type_value_resp_event          ../../../../../../Library/Bluetooth_LE/library/libbluenrg1_stack.a(aci_events.o)
cb_aci_att_find_info_resp_event                   ../../../../../../Library/Bluetooth_LE/library/libbluenrg1_stack.a(aci_events.o)
cb_aci_att_prepare_write_resp_event               ../../../../../../Library/Bluetooth_LE/library/libbluenrg1_stack.a(aci_events.o)
cb_aci_att_read_blob_resp_event                   ../../../../../../Library/Bluetooth_LE/library/libbluenrg1_stack.a(aci_events.o)
cb_aci_att_read_by_group_type_resp_event          ../../../../../../Library/Bluetooth_LE/library/libbluenrg1_stack.a(aci_events.o)
cb_aci_att_read_by_type_resp_event                ../../../../../../Library/Bluetooth_LE/library/libbluenrg1_stack.a(aci_events.o)
cb_aci_att_read_multiple_resp_event               ../../../../../../Library/Bluetooth_LE/library/libbluenrg1_stack.a(aci_events.o)
cb_aci_att_read_resp_event                        ../../../../../../Library/Bluetooth_LE/library/libbluenrg1_stack.a(aci_events.o)
cb_aci_att_write_resp_event                       ../../../../../../Library/Bluetooth_LE/library/libbluenrg1_stack.a(aci_events.o)
cb_aci_gap_addr_not_resolved_event                ../../../../../../Library/Bluetooth_LE/library/libbluenrg1_stack.a(aci_events.o)
cb_aci_gap_authorization_req_event                ../../../../../../Library/Bluetooth_LE/library/libbluenrg1_stack.a(aci_events.o)
cb_aci_gap_bond_lost_event                        ../../../../../../Library/Bluetooth_LE/library/libbluenrg1_stack.a(aci_events.o)
cb_aci_gap_device_found_event                     ../../../../../../Library/Bluetooth_LE/library/libbluenrg1_stack.a(aci_events.o)
cb_aci_gap_keypress_notification_event            ../../../../../../Library/Bluetooth_LE/library/libbluenrg1_stack.a(aci_events.o)
cb_aci_gap_limited_discoverable_event             ../../../../../../Library/Bluetooth_LE/library/libbluenrg1_stack.a(aci_events.o)
cb_aci_gap_numeric_comparison_value_event         ../../../../../../Library/Bluetooth_LE/library/libbluenrg1_stack.a(aci_events.o)
cb_aci_gap_pairing_complete_event                 ../../../../../../Library/Bluetooth_LE/library/libbluenrg1_stack.a(aci_events.o)
cb_aci_gap_pass_key_req_event                     ../../../../../../Library/Bluetooth_LE/library/libbluenrg1_stack.a(aci_events.o)
cb_aci_gap_proc_complete_event                    ../../../../../../Library/Bluetooth_LE/library/libbluenrg1_stack.a(aci_events.o)
cb_aci_gap_slave_security_initiated_event         ../../../../../../Library/Bluetooth_LE/library/libbluenrg1_stack.a(aci_events.o)
cb_aci_gatt_attribute_modified_event              ../../../../../../Library/Bluetooth_LE/library/libbluenrg1_stack.a(aci_events.o)
cb_aci_gatt_disc_read_char_by_uuid_resp_event     ../../../../../../Library/Bluetooth_LE/library/libbluenrg1_stack.a(aci_events.o)
cb_aci_gatt_error_resp_event                      ../../../../../../Library/Bluetooth_LE/library/libbluenrg1_stack.a(aci_events.o)
cb_aci_gatt_indication_event                      ../../../../../../Library/Bluetooth_LE/library/libbluenrg1_stack.a(aci_events.o)
cb_aci_gatt_notification_event                    ../../../../../../Library/Bluetooth_LE/library/libbluenrg1_stack.a(aci_events.o)
cb_aci_gatt_prepare_write_permit_req_event        ../../../../../../Library/Bluetooth_LE/library/libbluenrg1_stack.a(aci_events.o)
cb_aci_gatt_proc_complete_event                   ../../../../../../Library/Bluetooth_LE/library/libbluenrg1_stack.a(aci_events.o)
cb_aci_gatt_proc_timeout_event                    ../../../../../../Library/Bluetooth_LE/library/libbluenrg1_stack.a(aci_events.o)
cb_aci_gatt_read_multi_permit_req_event           ../../../../../../Library/Bluetooth_LE/library/libbluenrg1_stack.a(aci_events.o)
cb_aci_gatt_read_permit_req_event                 ../../../../../../Library/Bluetooth_LE/library/libbluenrg1_stack.a(aci_events.o)
cb_aci_gatt_server_confirmation_event             ../../../../../../Library/Bluetooth_LE/library/libbluenrg1_stack.a(aci_events.o)
cb_aci_gatt_tx_pool_available_event               ../../../../../../Library/Bluetooth_LE/library/libbluenrg1_stack.a(aci_events.o)
cb_aci_gatt_write_permit_req_event                ../../../../../../Library/Bluetooth_LE/library/libbluenrg1_stack.a(aci_events.o)
cb_aci_hal_fw_error_event                         ../../../../../../Library/Bluetooth_LE/library/libbluenrg1_stack.a(aci_events.o)
cb_aci_hal_scan_req_report_event                  ../../../../../../Library/Bluetooth_LE/library/libbluenrg1_stack.a(aci_events.o)
cb_aci_l2cap_command_reject_event                 ../../../../../../Library/Bluetooth_LE/library/libbluenrg1_stack.a(aci_events.o)
cb_aci_l2cap_connection_update_req_event          ../../../../../../Library/Bluetooth_LE/library/libbluenrg1_stack.a(aci_events.o)
cb_aci_l2cap_connection_update_resp_event         ../../../../../../Library/Bluetooth_LE/library/libbluenrg1_stack.a(aci_events.o)
cb_aci_l2cap_proc_timeout_event                   ../../../../../../Library/Bluetooth_LE/library/libbluenrg1_stack.a(aci_events.o)
cb_hci_data_buffer_overflow_event                 ../../../../../../Library/Bluetooth_LE/library/libbluenrg1_stack.a(aci_events.o)
cb_hci_disconnection_complete_event               ../../../../../../Library/Bluetooth_LE/library/libbluenrg1_stack.a(aci_events.o)
cb_hci_encryption_change_event                    ../../../../../../Library/Bluetooth_LE/library/libbluenrg1_stack.a(aci_events.o)
cb_hci_encryption_key_refresh_complete_event      ../../../../../../Library/Bluetooth_LE/library/libbluenrg1_stack.a(aci_events.o)
cb_hci_le_advertising_report_event                ../../../../../../Library/Bluetooth_LE/library/libbluenrg1_stack.a(aci_events.o)
cb_hci_le_connection_complete_event               ../../../../../../Library/Bluetooth_LE/library/libbluenrg1_stack.a(aci_events.o)
cb_hci_le_connection_update_complete_event        ../../../../../../Library/Bluetooth_LE/library/libbluenrg1_stack.a(aci_events.o)
cb_hci_le_data_length_change_event                ../../../../../../Library/Bluetooth_LE/library/libbluenrg1_stack.a(aci_events.o)
cb_hci_le_direct_advertising_report_event         ../../../../../../Library/Bluetooth_LE/library/libbluenrg1_stack.a(aci_events.o)
cb_hci_le_enhanced_connection_complete_event      ../../../../../../Library/Bluetooth_LE/library/libbluenrg1_stack.a(aci_events.o)
cb_hci_le_generate_dhkey_complete_event           ../../../../../../Library/Bluetooth_LE/library/libbluenrg1_stack.a(aci_events.o)
cb_hci_le_long_term_key_request_event             ../../../../../../Library/Bluetooth_LE/library/libbluenrg1_stack.a(aci_events.o)
cb_hci_le_read_local_p256_public_key_complete_event ../../../../../../Library/Bluetooth_LE/library/libbluenrg1_stack.a(aci_events.o)
cb_hci_le_read_remote_used_features_complete_event ../../../../../../Library/Bluetooth_LE/library/libbluenrg1_stack.a(aci_events.o)
cb_hci_number_of_completed_packets_event          ../../../../../../Library/Bluetooth_LE/library/libbluenrg1_stack.a(aci_events.o)
cb_hci_read_remote_version_information_complete_event ../../../../../../Library/Bluetooth_LE/library/libbluenrg1_stack.a(aci_events.o)
cb_hci_rx_acl_data_event                          ../../../../../../Library/Bluetooth_LE/library/libbluenrg1_stack.a(aci_events.o)
char_copy                                         ../../../../../../Library/Bluetooth_LE/library/libbluenrg1_stack.a(hal.o)
                                                  ../../../../../../Library/Bluetooth_LE/library/libbluenrg1_stack.a(isr_routines.o)
                                                  ../../../../../../Library/Bluetooth_LE/library/libbluenrg1_stack.a(isr_postproc.o)
                                                  ../../../../../../Library/Bluetooth_LE/library/libbluenrg1_stack.a(rom_ll_routines_support.o)
                                                  ../../../../../../Library/Bluetooth_LE/library/libbluenrg1_stack.a(rom_ll_ll_routines_master.o)
                                                  ../../../../../../Library/Bluetooth_LE/library/libbluenrg1_stack.a(rom_ll_ll_routines.o)
                                                  ../../../../../../Library/Bluetooth_LE/library/libbluenrg1_stack.a(rom_ll_isr_routines.o)
                                                  ../../../../../../Library/Bluetooth_LE/library/libbluenrg1_stack.a(rom_ll_isr_postproc.o)
                                                  ../../../../../../Library/Bluetooth_LE/library/libbluenrg1_stack.a(ll_routines_master.o)
                                                  ../../../../../../Library/Bluetooth_LE/library/libbluenrg1_stack.a(ll_routines.o)
                                                  ../../../../../../Library/Bluetooth_LE/library/libbluenrg1_stack.a(ll_isr.o)
cold_start_config                                 User/DTM_boot.o
command_buffer                                    User/transport_layer.o
command_fifo                                      User/transport_layer.o
command_fifo_buffer_tmp                           User/transport_layer.o
command_fifo_dma_len                              User/transport_layer.o
command_in_progress                               User/BlueNRG1_it.o
copy_4_u32                                        ../../../../../../Library/Bluetooth_LE/library/libbluenrg1_stack.a(ll_isr.o)
                                                  ../../../../../../Library/Bluetooth_LE/library/libbluenrg1_stack.a(rom_ll_isr_postproc.o)
copy_swap_buffer                                  ../../../../../../Library/Bluetooth_LE/library/libbluenrg1_stack.a(utils.o)
                                                  ../../../../../../Library/Bluetooth_LE/library/libbluenrg1_stack.a(smp_algo_sap.o)
copy_tx_data_packet                               ../../../../../../Library/Bluetooth_LE/library/libbluenrg1_stack.a(ll_isr.o)
                                                  ../../../../../../Library/Bluetooth_LE/library/libbluenrg1_stack.a(advance_wakeup_time.o)
                                                  ../../../../../../Library/Bluetooth_LE/library/libbluenrg1_stack.a(routines_support.o)
crash_info_ram                                    Hal/miscutil.o
csmem_sm_ctx_p                                    ../../../../../../Library/Bluetooth_LE/library/libbluenrg1_stack.a(smp_common.o)
                                                  ../../../../../../Library/Bluetooth_LE/library/libbluenrg1_stack.a(smp_scv42_sap.o)
                                                  ../../../../../../Library/Bluetooth_LE/library/libbluenrg1_stack.a(smp_scv42_caf.o)
                                                  ../../../../../../Library/Bluetooth_LE/library/libbluenrg1_stack.a(smp_scv42_api.o)
                                                  ../../../../../../Library/Bluetooth_LE/library/libbluenrg1_stack.a(securitymgr.o)
                                                  ../../../../../../Library/Bluetooth_LE/library/libbluenrg1_stack.a(mem_alloc.o)
data_length_extension_csr_ucfg                    Stack/stack_user_cfg.o
                                                  ../../../../../../Library/Bluetooth_LE/library/libbluenrg1_stack.a(isr_routines.o)
                                                  ../../../../../../Library/Bluetooth_LE/library/libbluenrg1_stack.a(isr_postproc.o)
                                                  ../../../../../../Library/Bluetooth_LE/library/libbluenrg1_stack.a(advance_wakeup_time.o)
                                                  ../../../../../../Library/Bluetooth_LE/library/libbluenrg1_stack.a(routines_support.o)
                                                  ../../../../../../Library/Bluetooth_LE/library/libbluenrg1_stack.a(rom_ll_routines_support.o)
                                                  ../../../../../../Library/Bluetooth_LE/library/libbluenrg1_stack.a(rom_ll_ll_routines_master.o)
                                                  ../../../../../../Library/Bluetooth_LE/library/libbluenrg1_stack.a(rom_ll_isr_routines.o)
                                                  ../../../../../../Library/Bluetooth_LE/library/libbluenrg1_stack.a(ll_routines_master.o)
                                                  ../../../../../../Library/Bluetooth_LE/library/libbluenrg1_stack.a(ll_routines.o)
                                                  ../../../../../../Library/Bluetooth_LE/library/libbluenrg1_stack.a(ll_isr.o)
                                                  ../../../../../../Library/Bluetooth_LE/library/libbluenrg1_stack.a(hal.o)
                                                  ../../../../../../Library/Bluetooth_LE/library/libbluenrg1_stack.a(bluenrg_main_func.o)
deviceConfig                                      User/DTM_boot.o
dma_state                                         User/transport_layer.o
                                                  User/BlueNRG1_it.o
dyn_alloc_a                                       User/DTM_boot.o
encrypt                                           ../../../../../../Library/Bluetooth_LE/library/libbluenrg1_stack.a(ll_isr.o)
                                                  ../../../../../../Library/Bluetooth_LE/library/libbluenrg1_stack.a(rom_ll_isr_postproc.o)
                                                  ../../../../../../Library/Bluetooth_LE/library/libbluenrg1_stack.a(ll_routines_support.o)
event_buffer                                      User/transport_layer.o
event_fifo                                        User/transport_layer.o
evnt_callback_pfunc                               ../../../../../../Library/Bluetooth_LE/library/libbluenrg1_stack.a(aci_events.o)
fifo_discard                                      Hal/fifo.o
fifo_discard_var_len_item                         Hal/fifo.o
                                                  User/transport_layer.o
fifo_flush                                        Hal/fifo.o
                                                  User/transport_layer.o
fifo_get                                          Hal/fifo.o
fifo_get_ptr                                      Hal/fifo.o
fifo_get_ptr_var_len_item                         Hal/fifo.o
                                                  User/transport_layer.o
fifo_get_var_len_item                             Hal/fifo.o
                                                  User/transport_layer.o
fifo_init                                         Hal/fifo.o
                                                  User/transport_layer.o
fifo_put                                          Hal/fifo.o
fifo_put_var_len_item                             Hal/fifo.o
                                                  User/transport_layer.o
fifo_size                                         Hal/fifo.o
                                                  User/transport_layer.o
flash_sw_lock                                     Startup/system_bluenrg1.o
                                                  User/DTM_boot.o
                                                  Library/BlueNRG1_flash.o
                                                  Hal/sleep.o
full_state_func_call_init                         ../../../../../../Library/Bluetooth_LE/library/libbluenrg1_stack.a(ll_isr.o)
                                                  Stack/stack_user_cfg.o
g_var_LinkPerp                                    ../../../../../../Library/Bluetooth_LE/library/libbluenrg1_stack.a(ll_isr.o)
g_var_RcvData                                     ../../../../../../Library/Bluetooth_LE/library/libbluenrg1_stack.a(ll_isr.o)
g_var_bluedata1                                   ../../../../../../Library/Bluetooth_LE/library/libbluenrg1_stack.a(ll_isr.o)
g_var_close_connect_event_now                     ../../../../../../Library/Bluetooth_LE/library/libbluenrg1_stack.a(ll_isr.o)
g_var_close_connect_now                           ../../../../../../Library/Bluetooth_LE/library/libbluenrg1_stack.a(ll_isr.o)
g_var_index                                       ../../../../../../Library/Bluetooth_LE/library/libbluenrg1_stack.a(ll_isr.o)
g_var_int_value                                   ../../../../../../Library/Bluetooth_LE/library/libbluenrg1_stack.a(ll_isr.o)
g_var_linkslaveno                                 ../../../../../../Library/Bluetooth_LE/library/libbluenrg1_stack.a(ll_isr.o)
g_var_scan_response_sent                          ../../../../../../Library/Bluetooth_LE/library/libbluenrg1_stack.a(ll_isr.o)
g_var_sending_scan_response                       ../../../../../../Library/Bluetooth_LE/library/libbluenrg1_stack.a(ll_isr.o)
g_var_sent_event                                  ../../../../../../Library/Bluetooth_LE/library/libbluenrg1_stack.a(ll_isr.o)
g_var_state2                                      ../../../../../../Library/Bluetooth_LE/library/libbluenrg1_stack.a(ll_isr.o)
g_var_txdata                                      ../../../../../../Library/Bluetooth_LE/library/libbluenrg1_stack.a(ll_isr.o)
gapClearAllModeFlags                              ../../../../../../Library/Bluetooth_LE/library/libbluenrg1_stack.a(gap.o)
get_adv_addr                                      ../../../../../../Library/Bluetooth_LE/library/libbluenrg1_stack.a(rom_ll_isr_routines.o)
                                                  ../../../../../../Library/Bluetooth_LE/library/libbluenrg1_stack.a(ll_routines_master.o)
                                                  ../../../../../../Library/Bluetooth_LE/library/libbluenrg1_stack.a(ll_isr.o)
get_advertiser                                    ../../../../../../Library/Bluetooth_LE/library/libbluenrg1_stack.a(multi_master_time.o)
                                                  ../../../../../../Library/Bluetooth_LE/library/libbluenrg1_stack.a(rom_ll_ll_routines.o)
                                                  ../../../../../../Library/Bluetooth_LE/library/libbluenrg1_stack.a(rom_gap.o)
                                                  ../../../../../../Library/Bluetooth_LE/library/libbluenrg1_stack.a(ll_privacy.o)
                                                  ../../../../../../Library/Bluetooth_LE/library/libbluenrg1_stack.a(hci.o)
                                                  ../../../../../../Library/Bluetooth_LE/library/libbluenrg1_stack.a(bluenrg_gap_aci.o)
get_connection_no                                 ../../../../../../Library/Bluetooth_LE/library/libbluenrg1_stack.a(multi_master_time.o)
                                                  ../../../../../../Library/Bluetooth_LE/library/libbluenrg1_stack.a(acl.o)
                                                  ../../../../../../Library/Bluetooth_LE/library/libbluenrg1_stack.a(routines_support.o)
                                                  ../../../../../../Library/Bluetooth_LE/library/libbluenrg1_stack.a(rom_ll_routines_support.o)
                                                  ../../../../../../Library/Bluetooth_LE/library/libbluenrg1_stack.a(rom_ll_ll_routines_master.o)
                                                  ../../../../../../Library/Bluetooth_LE/library/libbluenrg1_stack.a(rom_ll_ll_routines.o)
                                                  ../../../../../../Library/Bluetooth_LE/library/libbluenrg1_stack.a(ll_routines_support.o)
                                                  ../../../../../../Library/Bluetooth_LE/library/libbluenrg1_stack.a(ll_routines_master.o)
                                                  ../../../../../../Library/Bluetooth_LE/library/libbluenrg1_stack.a(ll_routines.o)
                                                  ../../../../../../Library/Bluetooth_LE/library/libbluenrg1_stack.a(hci.o)
get_next_free_slot                                ../../../../../../Library/Bluetooth_LE/library/libbluenrg1_stack.a(multi_master_time.o)
                                                  ../../../../../../Library/Bluetooth_LE/library/libbluenrg1_stack.a(rom_ll_ll_routines.o)
                                                  ../../../../../../Library/Bluetooth_LE/library/libbluenrg1_stack.a(ll_routines_master.o)
get_scan_addr                                     ../../../../../../Library/Bluetooth_LE/library/libbluenrg1_stack.a(rom_ll_isr_routines.o)
                                                  ../../../../../../Library/Bluetooth_LE/library/libbluenrg1_stack.a(ll_routines_master.o)
                                                  ../../../../../../Library/Bluetooth_LE/library/libbluenrg1_stack.a(ll_isr.o)
get_scan_connection                               ../../../../../../Library/Bluetooth_LE/library/libbluenrg1_stack.a(multi_master_time.o)
                                                  ../../../../../../Library/Bluetooth_LE/library/libbluenrg1_stack.a(rom_ll_ll_routines_master.o)
                                                  ../../../../../../Library/Bluetooth_LE/library/libbluenrg1_stack.a(rom_ll_ll_routines.o)
                                                  ../../../../../../Library/Bluetooth_LE/library/libbluenrg1_stack.a(rom_gap.o)
                                                  ../../../../../../Library/Bluetooth_LE/library/libbluenrg1_stack.a(ll_routines_master.o)
                                                  ../../../../../../Library/Bluetooth_LE/library/libbluenrg1_stack.a(ll_privacy.o)
                                                  ../../../../../../Library/Bluetooth_LE/library/libbluenrg1_stack.a(hci.o)
go_to_connect                                     ../../../../../../Library/Bluetooth_LE/library/libbluenrg1_stack.a(rom_ll_isr_routines.o)
                                                  ../../../../../../Library/Bluetooth_LE/library/libbluenrg1_stack.a(ll_isr.o)
go_to_connect_master                              ../../../../../../Library/Bluetooth_LE/library/libbluenrg1_stack.a(isr_routines.o)
                                                  ../../../../../../Library/Bluetooth_LE/library/libbluenrg1_stack.a(ll_isr.o)
hal_radio_activity_state_callback_check           ../../../../../../Library/Bluetooth_LE/library/libbluenrg1_stack.a(hal.o)
                                                  ../../../../../../Library/Bluetooth_LE/library/libbluenrg1_stack.a(aci_events.o)
                                                  ../../../../../../Library/Bluetooth_LE/library/libbluenrg1_stack.a(multi_master_time.o)
hal_radio_activity_state_init                     ../../../../../../Library/Bluetooth_LE/library/libbluenrg1_stack.a(hal.o)
                                                  ../../../../../../Library/Bluetooth_LE/library/libbluenrg1_stack.a(aci_events.o)
hal_read_radio_activity_state                     ../../../../../../Library/Bluetooth_LE/library/libbluenrg1_stack.a(hal.o)
hci_acl_Process_Q                                 ../../../../../../Library/Bluetooth_LE/library/libbluenrg1_stack.a(hci.o)
                                                  ../../../../../../Library/Bluetooth_LE/library/libbluenrg1_stack.a(bluenrg_main_func.o)
hci_command_table                                 User/DTM_cmd_db.o
                                                  User/transport_layer.o
hci_data_buffer_overflow_event                    User/DTM_cmd_db.o
hci_disconnect                                    ../../../../../../Library/Bluetooth_LE/library/libbluenrg1_stack.a(hci.o)
                                                  User/DTM_cmd_db.o
hci_disconnect_process                            User/DTM_cmd_db.o
hci_disconnection_complete_event                  User/DTM_cmd_db.o
hci_encryption_change_event                       User/DTM_cmd_db.o
hci_encryption_key_refresh_complete_event         User/DTM_cmd_db.o
hci_hardware_error_event                          User/DTM_cmd_db.o
hci_input                                         User/hci_parser.o
                                                  User/BlueNRG1_it.o
hci_le_add_device_to_resolving_list               Stack/stack_user_cfg.o
                                                  User/DTM_cmd_db.o
hci_le_add_device_to_resolving_list_api           ../../../../../../Library/Bluetooth_LE/library/libbluenrg1_stack.a(hci_privacy.o)
                                                  ../../../../../../Library/Bluetooth_LE/library/libbluenrg1_stack.a(rom_gap.o)
                                                  Stack/stack_user_cfg.o
hci_le_add_device_to_resolving_list_process       User/DTM_cmd_db.o
hci_le_add_device_to_white_list                   ../../../../../../Library/Bluetooth_LE/library/libbluenrg1_stack.a(hci.o)
                                                  User/DTM_cmd_db.o
hci_le_add_device_to_white_list_process           User/DTM_cmd_db.o
hci_le_advertising_report_event                   User/DTM_cmd_db.o
hci_le_clear_resolving_list                       Stack/stack_user_cfg.o
                                                  User/DTM_cmd_db.o
hci_le_clear_resolving_list_api                   ../../../../../../Library/Bluetooth_LE/library/libbluenrg1_stack.a(hci_privacy.o)
                                                  ../../../../../../Library/Bluetooth_LE/library/libbluenrg1_stack.a(rom_gap.o)
                                                  Stack/stack_user_cfg.o
hci_le_clear_resolving_list_process               User/DTM_cmd_db.o
hci_le_clear_white_list                           ../../../../../../Library/Bluetooth_LE/library/libbluenrg1_stack.a(hci.o)
                                                  User/DTM_cmd_db.o
hci_le_clear_white_list_process                   User/DTM_cmd_db.o
hci_le_connection_complete_event                  User/DTM_cmd_db.o
hci_le_connection_update                          Stack/stack_user_cfg.o
                                                  User/DTM_cmd_db.o
hci_le_connection_update_api                      ../../../../../../Library/Bluetooth_LE/library/libbluenrg1_stack.a(hci.o)
                                                  Stack/stack_user_cfg.o
hci_le_connection_update_complete_event           User/DTM_cmd_db.o
hci_le_connection_update_param_check              ../../../../../../Library/Bluetooth_LE/library/libbluenrg1_stack.a(hci.o)
                                                  ../../../../../../Library/Bluetooth_LE/library/libbluenrg1_stack.a(bluenrg_gap_aci.o)
hci_le_connection_update_process                  User/DTM_cmd_db.o
hci_le_create_connection                          Stack/stack_user_cfg.o
                                                  User/DTM_cmd_db.o
hci_le_create_connection_api                      ../../../../../../Library/Bluetooth_LE/library/libbluenrg1_stack.a(hci.o)
                                                  Stack/stack_user_cfg.o
hci_le_create_connection_cancel                   Stack/stack_user_cfg.o
                                                  User/DTM_cmd_db.o
hci_le_create_connection_cancel_api               ../../../../../../Library/Bluetooth_LE/library/libbluenrg1_stack.a(hci.o)
                                                  Stack/stack_user_cfg.o
hci_le_create_connection_cancel_process           User/DTM_cmd_db.o
hci_le_create_connection_process                  User/DTM_cmd_db.o
hci_le_data_length_change_event                   User/DTM_cmd_db.o
hci_le_direct_advertising_report_event            User/DTM_cmd_db.o
hci_le_encrypt                                    ../../../../../../Library/Bluetooth_LE/library/libbluenrg1_stack.a(hci.o)
                                                  ../../../../../../Library/Bluetooth_LE/library/libbluenrg1_stack.a(smp_algo_sap.o)
                                                  ../../../../../../Library/Bluetooth_LE/library/libbluenrg1_stack.a(securitymgr.o)
                                                  User/DTM_cmd_db.o
hci_le_encrypt_process                            User/DTM_cmd_db.o
hci_le_enhanced_connection_complete_event         User/DTM_cmd_db.o
hci_le_generate_dhkey                             Stack/stack_user_cfg.o
                                                  User/DTM_cmd_db.o
hci_le_generate_dhkey_api                         ../../../../../../Library/Bluetooth_LE/library/libbluenrg1_stack.a(hci.o)
                                                  ../../../../../../Library/Bluetooth_LE/library/libbluenrg1_stack.a(smp_scv42_caf.o)
                                                  Stack/stack_user_cfg.o
hci_le_generate_dhkey_complete_event              User/DTM_cmd_db.o
hci_le_generate_dhkey_process                     User/DTM_cmd_db.o
hci_le_long_term_key_request_event                User/DTM_cmd_db.o
hci_le_long_term_key_request_reply                ../../../../../../Library/Bluetooth_LE/library/libbluenrg1_stack.a(hci.o)
                                                  ../../../../../../Library/Bluetooth_LE/library/libbluenrg1_stack.a(securitymgr.o)
                                                  User/DTM_cmd_db.o
hci_le_long_term_key_request_reply_process        User/DTM_cmd_db.o
hci_le_long_term_key_requested_negative_reply     ../../../../../../Library/Bluetooth_LE/library/libbluenrg1_stack.a(hci.o)
                                                  ../../../../../../Library/Bluetooth_LE/library/libbluenrg1_stack.a(securitymgr.o)
                                                  User/DTM_cmd_db.o
hci_le_long_term_key_requested_negative_reply_process User/DTM_cmd_db.o
hci_le_rand                                       ../../../../../../Library/Bluetooth_LE/library/libbluenrg1_stack.a(hci.o)
                                                  User/DTM_cmd_db.o
hci_le_rand_process                               User/DTM_cmd_db.o
hci_le_read_advertising_channel_tx_power          ../../../../../../Library/Bluetooth_LE/library/libbluenrg1_stack.a(hci.o)
                                                  User/DTM_cmd_db.o
hci_le_read_advertising_channel_tx_power_process  User/DTM_cmd_db.o
hci_le_read_buffer_size                           ../../../../../../Library/Bluetooth_LE/library/libbluenrg1_stack.a(hci.o)
                                                  User/DTM_cmd_db.o
hci_le_read_buffer_size_process                   User/DTM_cmd_db.o
hci_le_read_channel_map                           ../../../../../../Library/Bluetooth_LE/library/libbluenrg1_stack.a(hci.o)
                                                  User/DTM_cmd_db.o
hci_le_read_channel_map_process                   User/DTM_cmd_db.o
hci_le_read_local_p256_public_key                 Stack/stack_user_cfg.o
                                                  User/DTM_cmd_db.o
hci_le_read_local_p256_public_key_api             ../../../../../../Library/Bluetooth_LE/library/libbluenrg1_stack.a(hci.o)
                                                  ../../../../../../Library/Bluetooth_LE/library/libbluenrg1_stack.a(smp_scv42_caf.o)
                                                  Stack/stack_user_cfg.o
hci_le_read_local_p256_public_key_complete_event  User/DTM_cmd_db.o
hci_le_read_local_p256_public_key_process         User/DTM_cmd_db.o
hci_le_read_local_resolvable_address              Stack/stack_user_cfg.o
                                                  User/DTM_cmd_db.o
hci_le_read_local_resolvable_address_api          ../../../../../../Library/Bluetooth_LE/library/libbluenrg1_stack.a(hci_privacy.o)
                                                  Stack/stack_user_cfg.o
hci_le_read_local_resolvable_address_process      User/DTM_cmd_db.o
hci_le_read_local_supported_features              ../../../../../../Library/Bluetooth_LE/library/libbluenrg1_stack.a(hci.o)
                                                  User/DTM_cmd_db.o
hci_le_read_local_supported_features_process      User/DTM_cmd_db.o
hci_le_read_maximum_data_length                   Stack/stack_user_cfg.o
                                                  User/DTM_cmd_db.o
hci_le_read_maximum_data_length_api               ../../../../../../Library/Bluetooth_LE/library/libbluenrg1_stack.a(hci.o)
                                                  Stack/stack_user_cfg.o
hci_le_read_maximum_data_length_process           User/DTM_cmd_db.o
hci_le_read_peer_resolvable_address               Stack/stack_user_cfg.o
                                                  User/DTM_cmd_db.o
hci_le_read_peer_resolvable_address_api           ../../../../../../Library/Bluetooth_LE/library/libbluenrg1_stack.a(hci_privacy.o)
                                                  Stack/stack_user_cfg.o
hci_le_read_peer_resolvable_address_process       User/DTM_cmd_db.o
hci_le_read_remote_used_features                  ../../../../../../Library/Bluetooth_LE/library/libbluenrg1_stack.a(hci.o)
                                                  User/DTM_cmd_db.o
hci_le_read_remote_used_features_complete_event   User/DTM_cmd_db.o
hci_le_read_remote_used_features_process          User/DTM_cmd_db.o
hci_le_read_resolving_list_size                   Stack/stack_user_cfg.o
                                                  User/DTM_cmd_db.o
hci_le_read_resolving_list_size_api               ../../../../../../Library/Bluetooth_LE/library/libbluenrg1_stack.a(hci_privacy.o)
                                                  Stack/stack_user_cfg.o
hci_le_read_resolving_list_size_process           User/DTM_cmd_db.o
hci_le_read_suggested_default_data_length         Stack/stack_user_cfg.o
                                                  User/DTM_cmd_db.o
hci_le_read_suggested_default_data_length_api     ../../../../../../Library/Bluetooth_LE/library/libbluenrg1_stack.a(hci.o)
                                                  Stack/stack_user_cfg.o
hci_le_read_suggested_default_data_length_process User/DTM_cmd_db.o
hci_le_read_supported_states                      ../../../../../../Library/Bluetooth_LE/library/libbluenrg1_stack.a(hci.o)
                                                  User/DTM_cmd_db.o
hci_le_read_supported_states_process              User/DTM_cmd_db.o
hci_le_read_white_list_size                       ../../../../../../Library/Bluetooth_LE/library/libbluenrg1_stack.a(hci.o)
                                                  User/DTM_cmd_db.o
hci_le_read_white_list_size_process               User/DTM_cmd_db.o
hci_le_receiver_test                              ../../../../../../Library/Bluetooth_LE/library/libbluenrg1_stack.a(hci.o)
                                                  User/DTM_cmd_db.o
hci_le_receiver_test_process                      User/DTM_cmd_db.o
hci_le_remove_device_from_resolving_list          Stack/stack_user_cfg.o
                                                  User/DTM_cmd_db.o
hci_le_remove_device_from_resolving_list_api      ../../../../../../Library/Bluetooth_LE/library/libbluenrg1_stack.a(hci_privacy.o)
                                                  Stack/stack_user_cfg.o
hci_le_remove_device_from_resolving_list_process  User/DTM_cmd_db.o
hci_le_remove_device_from_white_list              ../../../../../../Library/Bluetooth_LE/library/libbluenrg1_stack.a(hci.o)
                                                  User/DTM_cmd_db.o
hci_le_remove_device_from_white_list_process      User/DTM_cmd_db.o
hci_le_set_address_resolution_enable              Stack/stack_user_cfg.o
                                                  User/DTM_cmd_db.o
hci_le_set_address_resolution_enable_api          ../../../../../../Library/Bluetooth_LE/library/libbluenrg1_stack.a(hci_privacy.o)
                                                  Stack/stack_user_cfg.o
hci_le_set_address_resolution_enable_process      User/DTM_cmd_db.o
hci_le_set_advertise_enable                       ../../../../../../Library/Bluetooth_LE/library/libbluenrg1_stack.a(hci.o)
                                                  User/DTM_cmd_db.o
hci_le_set_advertise_enable_process               User/DTM_cmd_db.o
hci_le_set_advertising_data                       ../../../../../../Library/Bluetooth_LE/library/libbluenrg1_stack.a(hci.o)
                                                  User/DTM_cmd_db.o
hci_le_set_advertising_data_process               User/DTM_cmd_db.o
hci_le_set_advertising_parameters                 ../../../../../../Library/Bluetooth_LE/library/libbluenrg1_stack.a(hci.o)
                                                  User/DTM_cmd_db.o
hci_le_set_advertising_parameters_process         User/DTM_cmd_db.o
hci_le_set_data_length                            Stack/stack_user_cfg.o
                                                  User/DTM_cmd_db.o
hci_le_set_data_length_api                        ../../../../../../Library/Bluetooth_LE/library/libbluenrg1_stack.a(hci.o)
                                                  Stack/stack_user_cfg.o
hci_le_set_data_length_process                    User/DTM_cmd_db.o
hci_le_set_event_mask                             ../../../../../../Library/Bluetooth_LE/library/libbluenrg1_stack.a(hci.o)
                                                  ../../../../../../Library/Bluetooth_LE/library/libbluenrg1_stack.a(gap.o)
                                                  User/DTM_cmd_db.o
hci_le_set_event_mask_process                     User/DTM_cmd_db.o
hci_le_set_host_channel_classification            Stack/stack_user_cfg.o
                                                  User/DTM_cmd_db.o
hci_le_set_host_channel_classification_api        ../../../../../../Library/Bluetooth_LE/library/libbluenrg1_stack.a(hci.o)
                                                  Stack/stack_user_cfg.o
hci_le_set_host_channel_classification_process    User/DTM_cmd_db.o
hci_le_set_privacy_mode                           Stack/stack_user_cfg.o
hci_le_set_privacy_mode_api                       ../../../../../../Library/Bluetooth_LE/library/libbluenrg1_stack.a(hci_privacy.o)
                                                  Stack/stack_user_cfg.o
hci_le_set_random_address                         ../../../../../../Library/Bluetooth_LE/library/libbluenrg1_stack.a(hci.o)
                                                  User/DTM_cmd_db.o
hci_le_set_random_address_process                 User/DTM_cmd_db.o
hci_le_set_resolvable_private_address_timeout     Stack/stack_user_cfg.o
                                                  User/DTM_cmd_db.o
hci_le_set_resolvable_private_address_timeout_api ../../../../../../Library/Bluetooth_LE/library/libbluenrg1_stack.a(hci_privacy.o)
                                                  Stack/stack_user_cfg.o
hci_le_set_resolvable_private_address_timeout_process User/DTM_cmd_db.o
hci_le_set_scan_enable                            Stack/stack_user_cfg.o
                                                  User/DTM_cmd_db.o
hci_le_set_scan_enable_api                        ../../../../../../Library/Bluetooth_LE/library/libbluenrg1_stack.a(hci.o)
                                                  Stack/stack_user_cfg.o
hci_le_set_scan_enable_process                    User/DTM_cmd_db.o
hci_le_set_scan_parameters                        Stack/stack_user_cfg.o
                                                  User/DTM_cmd_db.o
hci_le_set_scan_parameters_api                    ../../../../../../Library/Bluetooth_LE/library/libbluenrg1_stack.a(hci.o)
                                                  Stack/stack_user_cfg.o
hci_le_set_scan_parameters_process                User/DTM_cmd_db.o
hci_le_set_scan_response_data                     ../../../../../../Library/Bluetooth_LE/library/libbluenrg1_stack.a(hci.o)
                                                  User/DTM_cmd_db.o
hci_le_set_scan_response_data_process             User/DTM_cmd_db.o
hci_le_start_encryption                           Stack/stack_user_cfg.o
                                                  User/DTM_cmd_db.o
hci_le_start_encryption_api                       ../../../../../../Library/Bluetooth_LE/library/libbluenrg1_stack.a(hci.o)
                                                  Stack/stack_user_cfg.o
hci_le_start_encryption_process                   User/DTM_cmd_db.o
hci_le_test_end                                   ../../../../../../Library/Bluetooth_LE/library/libbluenrg1_stack.a(hci.o)
                                                  User/DTM_cmds.o
                                                  User/DTM_cmd_db.o
hci_le_test_end_process                           User/DTM_cmd_db.o
hci_le_transmitter_test                           ../../../../../../Library/Bluetooth_LE/library/libbluenrg1_stack.a(hci.o)
                                                  User/DTM_cmds.o
                                                  User/DTM_cmd_db.o
hci_le_transmitter_test_process                   User/DTM_cmd_db.o
hci_le_write_suggested_default_data_length        Stack/stack_user_cfg.o
                                                  User/DTM_cmd_db.o
hci_le_write_suggested_default_data_length_api    ../../../../../../Library/Bluetooth_LE/library/libbluenrg1_stack.a(hci.o)
                                                  Stack/stack_user_cfg.o
hci_le_write_suggested_default_data_length_process User/DTM_cmd_db.o
hci_load_connParams                               ../../../../../../Library/Bluetooth_LE/library/libbluenrg1_stack.a(hci.o)
                                                  ../../../../../../Library/Bluetooth_LE/library/libbluenrg1_stack.a(bluenrg_gap_aci.o)
hci_number_of_completed_packets_event             User/DTM_cmd_db.o
hci_read_bd_addr                                  ../../../../../../Library/Bluetooth_LE/library/libbluenrg1_stack.a(hci.o)
                                                  User/DTM_cmd_db.o
hci_read_bd_addr_process                          User/DTM_cmd_db.o
hci_read_local_supported_commands                 ../../../../../../Library/Bluetooth_LE/library/libbluenrg1_stack.a(hci.o)
                                                  User/DTM_cmd_db.o
hci_read_local_supported_commands_process         User/DTM_cmd_db.o
hci_read_local_supported_features                 ../../../../../../Library/Bluetooth_LE/library/libbluenrg1_stack.a(hci.o)
                                                  User/DTM_cmd_db.o
hci_read_local_supported_features_process         User/DTM_cmd_db.o
hci_read_local_version_information                ../../../../../../Library/Bluetooth_LE/library/libbluenrg1_stack.a(hci.o)
                                                  User/DTM_cmds.o
                                                  User/DTM_cmd_db.o
hci_read_local_version_information_process        User/DTM_cmd_db.o
hci_read_remote_version_information               ../../../../../../Library/Bluetooth_LE/library/libbluenrg1_stack.a(hci.o)
                                                  User/DTM_cmd_db.o
hci_read_remote_version_information_complete_event User/DTM_cmd_db.o
hci_read_remote_version_information_process       User/DTM_cmd_db.o
hci_read_rssi                                     ../../../../../../Library/Bluetooth_LE/library/libbluenrg1_stack.a(hci.o)
                                                  User/DTM_cmd_db.o
hci_read_rssi_process                             User/DTM_cmd_db.o
hci_read_transmit_power_level                     ../../../../../../Library/Bluetooth_LE/library/libbluenrg1_stack.a(hci.o)
                                                  User/DTM_cmd_db.o
hci_read_transmit_power_level_process             User/DTM_cmd_db.o
hci_reset                                         ../../../../../../Library/Bluetooth_LE/library/libbluenrg1_stack.a(hci.o)
                                                  User/DTM_cmd_db.o
hci_reset_process                                 User/DTM_cmd_db.o
hci_rx_acl_data                                   ../../../../../../Library/Bluetooth_LE/library/libbluenrg1_stack.a(hci.o)
                                                  ../../../../../../Library/Bluetooth_LE/library/libbluenrg1_stack.a(acl.o)
hci_rx_acl_data_event                             ../../../../../../Library/Bluetooth_LE/library/libbluenrg1_stack.a(aci_events.o)
hci_set_event_mask                                ../../../../../../Library/Bluetooth_LE/library/libbluenrg1_stack.a(hci.o)
                                                  User/DTM_cmd_db.o
hci_set_event_mask_process                        User/DTM_cmd_db.o
hci_tx_acl_data                                   ../../../../../../Library/Bluetooth_LE/library/libbluenrg1_stack.a(hci.o)
hci_tx_acl_data_done                              ../../../../../../Library/Bluetooth_LE/library/libbluenrg1_stack.a(hci.o)
                                                  ../../../../../../Library/Bluetooth_LE/library/libbluenrg1_stack.a(acl.o)
hot_table_radio_config                            Startup/system_bluenrg1.o
                                                  User/DTM_boot.o
int_cb_hci_acl_data_ind_event                     ../../../../../../Library/Bluetooth_LE/library/libbluenrg1_stack.a(acl.o)
                                                  ../../../../../../Library/Bluetooth_LE/library/libbluenrg1_stack.a(aci_events.o)
int_cb_hci_acl_data_tx_cmpl_event                 ../../../../../../Library/Bluetooth_LE/library/libbluenrg1_stack.a(acl.o)
                                                  ../../../../../../Library/Bluetooth_LE/library/libbluenrg1_stack.a(aci_events.o)
int_cb_hci_disconnection_complete_event           ../../../../../../Library/Bluetooth_LE/library/libbluenrg1_stack.a(aci_events.o)
int_cb_hci_encryption_change_event                ../../../../../../Library/Bluetooth_LE/library/libbluenrg1_stack.a(aci_events.o)
int_cb_hci_encryption_key_refresh_complete_event  ../../../../../../Library/Bluetooth_LE/library/libbluenrg1_stack.a(aci_events.o)
int_cb_hci_le_advertising_report_event            ../../../../../../Library/Bluetooth_LE/library/libbluenrg1_stack.a(aci_events.o)
int_cb_hci_le_connection_complete_event           ../../../../../../Library/Bluetooth_LE/library/libbluenrg1_stack.a(aci_events.o)
int_cb_hci_le_data_length_change_event            ../../../../../../Library/Bluetooth_LE/library/libbluenrg1_stack.a(aci_events.o)
int_cb_hci_le_direct_advertising_report_event     ../../../../../../Library/Bluetooth_LE/library/libbluenrg1_stack.a(aci_events.o)
int_cb_hci_le_enhanced_connection_complete_event  ../../../../../../Library/Bluetooth_LE/library/libbluenrg1_stack.a(aci_events.o)
int_cb_hci_le_generate_dhkey_complete_event       ../../../../../../Library/Bluetooth_LE/library/libbluenrg1_stack.a(aci_events.o)
int_cb_hci_le_long_term_key_request_event         ../../../../../../Library/Bluetooth_LE/library/libbluenrg1_stack.a(aci_events.o)
int_cb_hci_le_read_local_p256_public_key_complete_event ../../../../../../Library/Bluetooth_LE/library/libbluenrg1_stack.a(aci_events.o)
int_evnt_callback_pfunc                           ../../../../../../Library/Bluetooth_LE/library/libbluenrg1_stack.a(aci_events.o)
irq_count                                         User/BlueNRG1_it.o
                                                  User/DTM_cmds.o
isIdentityAddress                                 ../../../../../../Library/Bluetooth_LE/library/libbluenrg1_stack.a(rom_gap.o)
is_Buffer_All_Set_To                              ../../../../../../Library/Bluetooth_LE/library/libbluenrg1_stack.a(utils.o)
                                                  ../../../../../../Library/Bluetooth_LE/library/libbluenrg1_stack.a(device_id_data.o)
                                                  ../../../../../../Library/Bluetooth_LE/library/libbluenrg1_stack.a(smp_scv42_caf.o)
                                                  ../../../../../../Library/Bluetooth_LE/library/libbluenrg1_stack.a(securitymgr.o)
                                                  ../../../../../../Library/Bluetooth_LE/library/libbluenrg1_stack.a(hci.o)
is_connected                                      ../../../../../../Library/Bluetooth_LE/library/libbluenrg1_stack.a(rom_ll_ll_routines.o)
                                                  ../../../../../../Library/Bluetooth_LE/library/libbluenrg1_stack.a(ll_routines.o)
is_slave                                          ../../../../../../Library/Bluetooth_LE/library/libbluenrg1_stack.a(multi_master_time.o)
                                                  ../../../../../../Library/Bluetooth_LE/library/libbluenrg1_stack.a(advance_wakeup_time.o)
                                                  ../../../../../../Library/Bluetooth_LE/library/libbluenrg1_stack.a(acl.o)
                                                  ../../../../../../Library/Bluetooth_LE/library/libbluenrg1_stack.a(rom_ll_ll_routines_master.o)
                                                  ../../../../../../Library/Bluetooth_LE/library/libbluenrg1_stack.a(ll_routines.o)
isr_Acl_Data_Indication_Queue_Full                ../../../../../../Library/Bluetooth_LE/library/libbluenrg1_stack.a(acl.o)
                                                  ../../../../../../Library/Bluetooth_LE/library/libbluenrg1_stack.a(isr_routines.o)
isr_Acl_Data_TX_Cmpl_Queue_Full                   ../../../../../../Library/Bluetooth_LE/library/libbluenrg1_stack.a(acl.o)
                                                  ../../../../../../Library/Bluetooth_LE/library/libbluenrg1_stack.a(ll_isr.o)
isr_event_handler                                 ../../../../../../Library/Bluetooth_LE/library/libbluenrg1_stack.a(ll_routines_master.o)
                                                  ../../../../../../Library/Bluetooth_LE/library/libbluenrg1_stack.a(isr_routines.o)
                                                  ../../../../../../Library/Bluetooth_LE/library/libbluenrg1_stack.a(rom_ll_isr_routines.o)
                                                  ../../../../../../Library/Bluetooth_LE/library/libbluenrg1_stack.a(ll_isr.o)
isr_event_handler_scan_data                       ../../../../../../Library/Bluetooth_LE/library/libbluenrg1_stack.a(ll_routines_master.o)
                                                  Stack/stack_user_cfg.o
isr_event_handler_scan_data_ucfg                  Stack/stack_user_cfg.o
isr_postproc                                      ../../../../../../Library/Bluetooth_LE/library/libbluenrg1_stack.a(isr_postproc.o)
                                                  ../../../../../../Library/Bluetooth_LE/library/libbluenrg1_stack.a(ll_isr.o)
isr_postproc1                                     ../../../../../../Library/Bluetooth_LE/library/libbluenrg1_stack.a(rom_ll_isr_postproc.o)
                                                  ../../../../../../Library/Bluetooth_LE/library/libbluenrg1_stack.a(ll_isr.o)
isr_postproc_encrypt_data                         ../../../../../../Library/Bluetooth_LE/library/libbluenrg1_stack.a(rom_ll_isr_postproc.o)
                                                  ../../../../../../Library/Bluetooth_LE/library/libbluenrg1_stack.a(ll_isr.o)
ll_write_supported_data                           ../../../../../../Library/Bluetooth_LE/library/libbluenrg1_stack.a(ll_routines.o)
                                                  Stack/stack_user_cfg.o
ll_write_supported_data_ucfg                      Stack/stack_user_cfg.o
                                                  ../../../../../../Library/Bluetooth_LE/library/libbluenrg1_stack.a(hal.o)
long_write_procedure                              ../../../../../../Library/Bluetooth_LE/library/libbluenrg1_stack.a(gatt_client.o)
machine_time_trans                                ../../../../../../Library/Bluetooth_LE/library/libbluenrg1_stack.a(rom_ll_timehandling.o)
                                                  ../../../../../../Library/Bluetooth_LE/library/libbluenrg1_stack.a(advance_wakeup_time.o)
                                                  ../../../../../../Library/Bluetooth_LE/library/libbluenrg1_stack.a(routines_support.o)
                                                  ../../../../../../Library/Bluetooth_LE/library/libbluenrg1_stack.a(rom_ll_ll_routines_master.o)
                                                  ../../../../../../Library/Bluetooth_LE/library/libbluenrg1_stack.a(rom_ll_ll_routines.o)
                                                  ../../../../../../Library/Bluetooth_LE/library/libbluenrg1_stack.a(multi_master_time.o)
                                                  ../../../../../../Library/Bluetooth_LE/library/libbluenrg1_stack.a(ll_routines_master.o)
                                                  ../../../../../../Library/Bluetooth_LE/library/libbluenrg1_stack.a(ll_isr.o)
                                                  ../../../../../../Library/Bluetooth_LE/library/libbluenrg1_stack.a(host_timer.o)
                                                  ../../../../../../Library/Bluetooth_LE/library/libbluenrg1_stack.a(bluenrg_main_func.o)
main                                              User/DTM_main.o
                                                  Startup/system_bluenrg1.o
master_csr_ucfg                                   Stack/stack_user_cfg.o
                                                  ../../../../../../Library/Bluetooth_LE/library/libbluenrg1_stack.a(ll_routines.o)
mem_alloc_ctx_init                                ../../../../../../Library/Bluetooth_LE/library/libbluenrg1_stack.a(mem_alloc.o)
                                                  ../../../../../../Library/Bluetooth_LE/library/libbluenrg1_stack.a(bluenrg_main_func.o)
mem_alloc_ctx_p                                   ../../../../../../Library/Bluetooth_LE/library/libbluenrg1_stack.a(mem_alloc.o)
                                                  ../../../../../../Library/Bluetooth_LE/library/libbluenrg1_stack.a(isr_routines.o)
                                                  ../../../../../../Library/Bluetooth_LE/library/libbluenrg1_stack.a(isr_postproc.o)
                                                  ../../../../../../Library/Bluetooth_LE/library/libbluenrg1_stack.a(device_id_data.o)
                                                  ../../../../../../Library/Bluetooth_LE/library/libbluenrg1_stack.a(bluenrg_main_func_speed.o)
                                                  ../../../../../../Library/Bluetooth_LE/library/libbluenrg1_stack.a(att.o)
                                                  ../../../../../../Library/Bluetooth_LE/library/libbluenrg1_stack.a(advance_wakeup_time.o)
                                                  ../../../../../../Library/Bluetooth_LE/library/libbluenrg1_stack.a(acl.o)
                                                  ../../../../../../Library/Bluetooth_LE/library/libbluenrg1_stack.a(aci_events.o)
                                                  ../../../../../../Library/Bluetooth_LE/library/libbluenrg1_stack.a(smp_scv42_sap.o)
                                                  ../../../../../../Library/Bluetooth_LE/library/libbluenrg1_stack.a(smp_scv42_caf.o)
                                                  ../../../../../../Library/Bluetooth_LE/library/libbluenrg1_stack.a(smp_common.o)
                                                  ../../../../../../Library/Bluetooth_LE/library/libbluenrg1_stack.a(smp_algo_sap.o)
                                                  ../../../../../../Library/Bluetooth_LE/library/libbluenrg1_stack.a(securitymgr.o)
                                                  ../../../../../../Library/Bluetooth_LE/library/libbluenrg1_stack.a(sdb.o)
                                                  ../../../../../../Library/Bluetooth_LE/library/libbluenrg1_stack.a(routines_support.o)
                                                  ../../../../../../Library/Bluetooth_LE/library/libbluenrg1_stack.a(rom_ll_timehandling.o)
                                                  ../../../../../../Library/Bluetooth_LE/library/libbluenrg1_stack.a(rom_ll_routines_support.o)
                                                  ../../../../../../Library/Bluetooth_LE/library/libbluenrg1_stack.a(rom_ll_ll_routines_master.o)
                                                  ../../../../../../Library/Bluetooth_LE/library/libbluenrg1_stack.a(rom_ll_ll_routines.o)
                                                  ../../../../../../Library/Bluetooth_LE/library/libbluenrg1_stack.a(rom_ll_isr_routines.o)
                                                  ../../../../../../Library/Bluetooth_LE/library/libbluenrg1_stack.a(rom_ll_isr_postproc.o)
                                                  ../../../../../../Library/Bluetooth_LE/library/libbluenrg1_stack.a(rom_gap_rom.o)
                                                  ../../../../../../Library/Bluetooth_LE/library/libbluenrg1_stack.a(rom_gap.o)
                                                  ../../../../../../Library/Bluetooth_LE/library/libbluenrg1_stack.a(rom_att.o)
                                                  ../../../../../../Library/Bluetooth_LE/library/libbluenrg1_stack.a(pm.o)
                                                  ../../../../../../Library/Bluetooth_LE/library/libbluenrg1_stack.a(nvm.o)
                                                  ../../../../../../Library/Bluetooth_LE/library/libbluenrg1_stack.a(multi_master_time.o)
                                                  ../../../../../../Library/Bluetooth_LE/library/libbluenrg1_stack.a(ll_routines_support.o)
                                                  ../../../../../../Library/Bluetooth_LE/library/libbluenrg1_stack.a(ll_routines_master.o)
                                                  ../../../../../../Library/Bluetooth_LE/library/libbluenrg1_stack.a(ll_routines.o)
                                                  ../../../../../../Library/Bluetooth_LE/library/libbluenrg1_stack.a(ll_privacy.o)
                                                  ../../../../../../Library/Bluetooth_LE/library/libbluenrg1_stack.a(ll_isr.o)
                                                  ../../../../../../Library/Bluetooth_LE/library/libbluenrg1_stack.a(l2cap.o)
                                                  ../../../../../../Library/Bluetooth_LE/library/libbluenrg1_stack.a(host_timer.o)
                                                  ../../../../../../Library/Bluetooth_LE/library/libbluenrg1_stack.a(hci.o)
                                                  ../../../../../../Library/Bluetooth_LE/library/libbluenrg1_stack.a(hal.o)
                                                  ../../../../../../Library/Bluetooth_LE/library/libbluenrg1_stack.a(gatt_server.o)
                                                  ../../../../../../Library/Bluetooth_LE/library/libbluenrg1_stack.a(gatt_client.o)
                                                  ../../../../../../Library/Bluetooth_LE/library/libbluenrg1_stack.a(gap.o)
                                                  ../../../../../../Library/Bluetooth_LE/library/libbluenrg1_stack.a(bluenrg_main_func.o)
                                                  ../../../../../../Library/Bluetooth_LE/library/libbluenrg1_stack.a(bluenrg_hal_aci.o)
                                                  ../../../../../../Library/Bluetooth_LE/library/libbluenrg1_stack.a(bluenrg_gatt_aci.o)
                                                  ../../../../../../Library/Bluetooth_LE/library/libbluenrg1_stack.a(bluenrg_gap_aci.o)
memcmp                                            /opt/Atollic_TrueSTUDIO_for_STM32_x86_64_9.3.0/ARMTools/bin/../lib/gcc/arm-atollic-eabi/6.3.1/../../../../arm-atollic-eabi/lib/armv6-m/libc_nano.a(lib_a-memcmp.o)
                                                  Hal/osal.o
memcpy                                            /opt/Atollic_TrueSTUDIO_for_STM32_x86_64_9.3.0/ARMTools/bin/../lib/gcc/arm-atollic-eabi/6.3.1/../../../../arm-atollic-eabi/lib/armv6-m/libc_nano.a(lib_a-memcpy-stub.o)
                                                  /opt/Atollic_TrueSTUDIO_for_STM32_x86_64_9.3.0/ARMTools/bin/../lib/gcc/arm-atollic-eabi/6.3.1/../../../../arm-atollic-eabi/lib/armv6-m/libc_nano.a(lib_a-aeabi_memcpy.o)
                                                  User/DTM_boot.o
                                                  Startup/system_bluenrg1.o
                                                  Library/BlueNRG1_pka.o
                                                  Hal/osal.o
                                                  Hal/miscutil.o
memmove                                           /opt/Atollic_TrueSTUDIO_for_STM32_x86_64_9.3.0/ARMTools/bin/../lib/gcc/arm-atollic-eabi/6.3.1/../../../../arm-atollic-eabi/lib/armv6-m/libc_nano.a(lib_a-memmove.o)
                                                  /opt/Atollic_TrueSTUDIO_for_STM32_x86_64_9.3.0/ARMTools/bin/../lib/gcc/arm-atollic-eabi/6.3.1/../../../../arm-atollic-eabi/lib/armv6-m/libc_nano.a(lib_a-aeabi_memmove.o)
memset                                            /opt/Atollic_TrueSTUDIO_for_STM32_x86_64_9.3.0/ARMTools/bin/../lib/gcc/arm-atollic-eabi/6.3.1/../../../../arm-atollic-eabi/lib/armv6-m/libc_nano.a(lib_a-memset.o)
                                                  /opt/Atollic_TrueSTUDIO_for_STM32_x86_64_9.3.0/ARMTools/bin/../lib/gcc/arm-atollic-eabi/6.3.1/../../../../arm-atollic-eabi/lib/armv6-m/libc_nano.a(lib_a-aeabi_memset.o)
                                                  Hal/osal.o
microseconds_to_machine_time                      ../../../../../../Library/Bluetooth_LE/library/libbluenrg1_stack.a(routines_support.o)
                                                  ../../../../../../Library/Bluetooth_LE/library/libbluenrg1_stack.a(advance_wakeup_time.o)
modulo_37                                         ../../../../../../Library/Bluetooth_LE/library/libbluenrg1_stack.a(rom_ll_routines_support.o)
                                                  ../../../../../../Library/Bluetooth_LE/library/libbluenrg1_stack.a(multi_master_time.o)
                                                  ../../../../../../Library/Bluetooth_LE/library/libbluenrg1_stack.a(ll_isr.o)
nsar_init                                         ../../../../../../Library/Bluetooth_LE/library/libbluenrg1_stack.a(multi_master_time.o)
                                                  ../../../../../../Library/Bluetooth_LE/library/libbluenrg1_stack.a(rom_ll_ll_routines.o)
ota_sw_activation                                 Startup/system_bluenrg1.o
packet_received                                   User/hci_parser.o
parse_cmd                                         User/cmd.o
                                                  User/hci_parser.o
process_command                                   User/transport_layer.o
ptr                                               Hal/sleep.o
rcon                                              ../../../../../../Library/cryptolib/libcrypto.a(crypto.o)
read_rssi                                         ../../../../../../Library/Bluetooth_LE/library/libbluenrg1_stack.a(ll_routines.o)
                                                  ../../../../../../Library/Bluetooth_LE/library/libbluenrg1_stack.a(ll_isr.o)
request_advertise_slot                            ../../../../../../Library/Bluetooth_LE/library/libbluenrg1_stack.a(multi_master_time.o)
request_connect_slot                              ../../../../../../Library/Bluetooth_LE/library/libbluenrg1_stack.a(multi_master_time.o)
                                                  ../../../../../../Library/Bluetooth_LE/library/libbluenrg1_stack.a(ll_routines_master.o)
request_scan_slot                                 ../../../../../../Library/Bluetooth_LE/library/libbluenrg1_stack.a(multi_master_time.o)
                                                  ../../../../../../Library/Bluetooth_LE/library/libbluenrg1_stack.a(ll_routines_master.o)
reschedule_wakeup_slot                            ../../../../../../Library/Bluetooth_LE/library/libbluenrg1_stack.a(multi_master_time.o)
                                                  ../../../../../../Library/Bluetooth_LE/library/libbluenrg1_stack.a(ll_routines_master.o)
reset_pending                                     User/transport_layer.o
                                                  User/DTM_cmds.o
rev_memcmp7                                       ../../../../../../Library/Bluetooth_LE/library/libbluenrg1_stack.a(ll_privacy.o)
rfTimeout                                         Startup/system_bluenrg1.o
                                                  Hal/sleep.o
savedICSR                                         Startup/system_bluenrg1.o
                                                  Hal/sleep.o
                                                  Hal/context_switch.o
savedMSP                                          Startup/system_bluenrg1.o
                                                  Hal/context_switch.o
savedNVIC_ISPR                                    Startup/system_bluenrg1.o
                                                  Hal/sleep.o
                                                  Hal/context_switch.o
savedSHCSR                                        Startup/system_bluenrg1.o
                                                  Hal/sleep.o
                                                  Hal/context_switch.o
schedule_advertise_slot                           ../../../../../../Library/Bluetooth_LE/library/libbluenrg1_stack.a(multi_master_time.o)
                                                  ../../../../../../Library/Bluetooth_LE/library/libbluenrg1_stack.a(rom_ll_ll_routines.o)
secure_connections_csr_ucfg                       Stack/stack_user_cfg.o
                                                  ../../../../../../Library/Bluetooth_LE/library/libbluenrg1_stack.a(smp_common.o)
                                                  ../../../../../../Library/Bluetooth_LE/library/libbluenrg1_stack.a(ll_routines.o)
                                                  ../../../../../../Library/Bluetooth_LE/library/libbluenrg1_stack.a(hci.o)
                                                  ../../../../../../Library/Bluetooth_LE/library/libbluenrg1_stack.a(bluenrg_main_func.o)
                                                  ../../../../../../Library/Bluetooth_LE/library/libbluenrg1_stack.a(bluenrg_gap_aci.o)
send_command                                      User/transport_layer.o
                                                  User/hci_parser.o
send_event                                        User/transport_layer.o
                                                  User/hci_parser.o
                                                  User/DTM_cmd_db.o
send_event_isr                                    User/transport_layer.o
setGapAdvData                                     ../../../../../../Library/Bluetooth_LE/library/libbluenrg1_stack.a(gap.o)
set_freq                                          ../../../../../../Library/Bluetooth_LE/library/libbluenrg1_stack.a(rom_ll_timehandling.o)
                                                  ../../../../../../Library/Bluetooth_LE/library/libbluenrg1_stack.a(bluenrg_main_func.o)
set_sca                                           ../../../../../../Library/Bluetooth_LE/library/libbluenrg1_stack.a(rom_ll_timehandling.o)
                                                  ../../../../../../Library/Bluetooth_LE/library/libbluenrg1_stack.a(routines_support.o)
                                                  ../../../../../../Library/Bluetooth_LE/library/libbluenrg1_stack.a(multi_master_time.o)
set_string                                        ../../../../../../Library/Bluetooth_LE/library/libbluenrg1_stack.a(hal.o)
                                                  ../../../../../../Library/Bluetooth_LE/library/libbluenrg1_stack.a(isr_routines.o)
                                                  ../../../../../../Library/Bluetooth_LE/library/libbluenrg1_stack.a(rom_ll_isr_routines.o)
                                                  ../../../../../../Library/Bluetooth_LE/library/libbluenrg1_stack.a(multi_master_time.o)
                                                  ../../../../../../Library/Bluetooth_LE/library/libbluenrg1_stack.a(ll_isr.o)
slave_advance                                     ../../../../../../Library/Bluetooth_LE/library/libbluenrg1_stack.a(routines_support.o)
                                                  ../../../../../../Library/Bluetooth_LE/library/libbluenrg1_stack.a(acl.o)
                                                  ../../../../../../Library/Bluetooth_LE/library/libbluenrg1_stack.a(ll_isr.o)
sleepMode_selected                                Hal/sleep.o
sma_CMAC_generate_tag                             ../../../../../../Library/Bluetooth_LE/library/libbluenrg1_stack.a(smp_algo_sap.o)
                                                  ../../../../../../Library/Bluetooth_LE/library/libbluenrg1_stack.a(smp_common.o)
smp_Execute_Actions_wrt_Current_State_MI_excerpt  ../../../../../../Library/Bluetooth_LE/library/libbluenrg1_stack.a(securitymgr.o)
                                                  Stack/stack_user_cfg.o
smp_Execute_Actions_wrt_Current_State_MI_excerpt_ucfg Stack/stack_user_cfg.o
smp_Execute_Actions_wrt_Current_State_sc_MI_excerpt_phase2as2 ../../../../../../Library/Bluetooth_LE/library/libbluenrg1_stack.a(securitymgr.o)
                                                  Stack/stack_user_cfg.o
smp_Execute_Actions_wrt_Current_State_sc_MI_excerpt_phase2as2_ucfg Stack/stack_user_cfg.o
smp_Execute_Actions_wrt_Current_State_sc_excerpt_phase2as2 ../../../../../../Library/Bluetooth_LE/library/libbluenrg1_stack.a(securitymgr.o)
                                                  Stack/stack_user_cfg.o
smp_Execute_Actions_wrt_Current_State_sc_excerpt_phase2as2_ucfg Stack/stack_user_cfg.o
smp_Execute_Actions_wrt_Current_State_sc_excerpt_phase_1_to_2 ../../../../../../Library/Bluetooth_LE/library/libbluenrg1_stack.a(securitymgr.o)
                                                  Stack/stack_user_cfg.o
smp_Execute_Actions_wrt_Current_State_sc_excerpt_phase_1_to_2_ucfg Stack/stack_user_cfg.o
smp_MI_Start_Encryption                           ../../../../../../Library/Bluetooth_LE/library/libbluenrg1_stack.a(securitymgr.o)
                                                  Stack/stack_user_cfg.o
smp_MI_Start_Encryption_ucfg                      Stack/stack_user_cfg.o
                                                  ../../../../../../Library/Bluetooth_LE/library/libbluenrg1_stack.a(smp_scv42_caf.o)
                                                  ../../../../../../Library/Bluetooth_LE/library/libbluenrg1_stack.a(smp_common.o)
smp_Process_Rx_Packet_Exception_Cases_sc_excerpt  ../../../../../../Library/Bluetooth_LE/library/libbluenrg1_stack.a(securitymgr.o)
                                                  Stack/stack_user_cfg.o
smp_Process_Rx_Packet_Exception_Cases_sc_excerpt_ucfg Stack/stack_user_cfg.o
smp_Process_Rx_Packet_wrt_Current_State_MI_excerpt ../../../../../../Library/Bluetooth_LE/library/libbluenrg1_stack.a(securitymgr.o)
                                                  Stack/stack_user_cfg.o
smp_Process_Rx_Packet_wrt_Current_State_MI_excerpt_ucfg Stack/stack_user_cfg.o
smp_Process_Rx_Packet_wrt_Current_State_sc_excerpt ../../../../../../Library/Bluetooth_LE/library/libbluenrg1_stack.a(securitymgr.o)
                                                  Stack/stack_user_cfg.o
smp_Process_Rx_Packet_wrt_Current_State_sc_excerpt_ucfg Stack/stack_user_cfg.o
smp_add_pairing_record_to_bonding_database        ../../../../../../Library/Bluetooth_LE/library/libbluenrg1_stack.a(smp_common.o)
                                                  ../../../../../../Library/Bluetooth_LE/library/libbluenrg1_stack.a(securitymgr.o)
smp_find_remote_device_index                      ../../../../../../Library/Bluetooth_LE/library/libbluenrg1_stack.a(smp_common.o)
                                                  ../../../../../../Library/Bluetooth_LE/library/libbluenrg1_stack.a(securitymgr.o)
smp_get_CSRK                                      ../../../../../../Library/Bluetooth_LE/library/libbluenrg1_stack.a(smp_common.o)
smp_get_local_identity_address                    ../../../../../../Library/Bluetooth_LE/library/libbluenrg1_stack.a(smp_common.o)
                                                  ../../../../../../Library/Bluetooth_LE/library/libbluenrg1_stack.a(securitymgr.o)
smp_is_any_pairing_ongoing                        ../../../../../../Library/Bluetooth_LE/library/libbluenrg1_stack.a(smp_common.o)
smp_keys_distribution_start                       ../../../../../../Library/Bluetooth_LE/library/libbluenrg1_stack.a(smp_common.o)
                                                  ../../../../../../Library/Bluetooth_LE/library/libbluenrg1_stack.a(securitymgr.o)
smp_keys_receiving                                ../../../../../../Library/Bluetooth_LE/library/libbluenrg1_stack.a(smp_common.o)
                                                  ../../../../../../Library/Bluetooth_LE/library/libbluenrg1_stack.a(securitymgr.o)
smp_oob_check_is_remote_data_present              ../../../../../../Library/Bluetooth_LE/library/libbluenrg1_stack.a(smp_common.o)
                                                  ../../../../../../Library/Bluetooth_LE/library/libbluenrg1_stack.a(smp_scv42_caf.o)
                                                  ../../../../../../Library/Bluetooth_LE/library/libbluenrg1_stack.a(securitymgr.o)
smp_oob_get_remote_data_reference                 ../../../../../../Library/Bluetooth_LE/library/libbluenrg1_stack.a(smp_common.o)
                                                  ../../../../../../Library/Bluetooth_LE/library/libbluenrg1_stack.a(smp_scv42_caf.o)
smp_pairing_2octets_packet_send                   ../../../../../../Library/Bluetooth_LE/library/libbluenrg1_stack.a(smp_common.o)
                                                  ../../../../../../Library/Bluetooth_LE/library/libbluenrg1_stack.a(smp_scv42_api.o)
smp_pairing_completed                             ../../../../../../Library/Bluetooth_LE/library/libbluenrg1_stack.a(smp_common.o)
                                                  ../../../../../../Library/Bluetooth_LE/library/libbluenrg1_stack.a(securitymgr.o)
smp_pairing_failed_receive                        ../../../../../../Library/Bluetooth_LE/library/libbluenrg1_stack.a(smp_common.o)
                                                  ../../../../../../Library/Bluetooth_LE/library/libbluenrg1_stack.a(securitymgr.o)
smp_pairing_failed_send                           ../../../../../../Library/Bluetooth_LE/library/libbluenrg1_stack.a(smp_common.o)
                                                  ../../../../../../Library/Bluetooth_LE/library/libbluenrg1_stack.a(smp_scv42_sap.o)
                                                  ../../../../../../Library/Bluetooth_LE/library/libbluenrg1_stack.a(smp_scv42_caf.o)
                                                  ../../../../../../Library/Bluetooth_LE/library/libbluenrg1_stack.a(securitymgr.o)
smp_repeated_attacks_protection                   ../../../../../../Library/Bluetooth_LE/library/libbluenrg1_stack.a(smp_common.o)
smp_sc_MI_PairingConfirm_Send_sc_excerpt          ../../../../../../Library/Bluetooth_LE/library/libbluenrg1_stack.a(securitymgr.o)
                                                  Stack/stack_user_cfg.o
smp_sc_MI_PairingConfirm_Send_sc_excerpt_ucfg     Stack/stack_user_cfg.o
smp_sc_MI_PairingRandom_Receive_sc_excerpt1       ../../../../../../Library/Bluetooth_LE/library/libbluenrg1_stack.a(securitymgr.o)
                                                  Stack/stack_user_cfg.o
smp_sc_MI_PairingRandom_Receive_sc_excerpt1_ucfg  Stack/stack_user_cfg.o
smp_sc_MI_PairingRandom_Receive_sc_excerpt2       ../../../../../../Library/Bluetooth_LE/library/libbluenrg1_stack.a(securitymgr.o)
                                                  Stack/stack_user_cfg.o
smp_sc_MI_PairingRandom_Receive_sc_excerpt2_ucfg  Stack/stack_user_cfg.o
smp_sc_MI_PairingResponse_Receive_sc_excerpt      ../../../../../../Library/Bluetooth_LE/library/libbluenrg1_stack.a(securitymgr.o)
                                                  Stack/stack_user_cfg.o
smp_sc_MI_PairingResponse_Receive_sc_excerpt_ucfg Stack/stack_user_cfg.o
smp_sc_MI_Pairing_Phase_2AS1_Start_sc_excerpt     ../../../../../../Library/Bluetooth_LE/library/libbluenrg1_stack.a(securitymgr.o)
                                                  Stack/stack_user_cfg.o
smp_sc_MI_Pairing_Phase_2AS1_Start_sc_excerpt_ucfg Stack/stack_user_cfg.o
smp_sc_SR_PairingConfirm_Receive_sc_excerpt       ../../../../../../Library/Bluetooth_LE/library/libbluenrg1_stack.a(securitymgr.o)
                                                  Stack/stack_user_cfg.o
smp_sc_SR_PairingConfirm_Receive_sc_excerpt_ucfg  Stack/stack_user_cfg.o
smp_sc_SR_PairingRandom_Receive_sc_excerpt        ../../../../../../Library/Bluetooth_LE/library/libbluenrg1_stack.a(securitymgr.o)
                                                  Stack/stack_user_cfg.o
smp_sc_SR_PairingRandom_Receive_sc_excerpt_ucfg   Stack/stack_user_cfg.o
smp_sc_SR_Pairing_Phase_2AS1_Start_sc_excerpt     ../../../../../../Library/Bluetooth_LE/library/libbluenrg1_stack.a(securitymgr.o)
                                                  Stack/stack_user_cfg.o
smp_sc_SR_Pairing_Phase_2AS1_Start_sc_excerpt_ucfg Stack/stack_user_cfg.o
smp_sc_check_for_ecc_pk_generation_request        ../../../../../../Library/Bluetooth_LE/library/libbluenrg1_stack.a(smp_scv42_caf.o)
                                                  Stack/stack_user_cfg.o
smp_sc_check_for_ecc_pk_generation_request_ucfg   Stack/stack_user_cfg.o
                                                  ../../../../../../Library/Bluetooth_LE/library/libbluenrg1_stack.a(securitymgr.o)
smp_sc_continue_on_exclusive_sc_pairing           ../../../../../../Library/Bluetooth_LE/library/libbluenrg1_stack.a(smp_scv42_caf.o)
                                                  Stack/stack_user_cfg.o
smp_sc_continue_on_exclusive_sc_pairing_ucfg      Stack/stack_user_cfg.o
                                                  ../../../../../../Library/Bluetooth_LE/library/libbluenrg1_stack.a(securitymgr.o)
smp_sc_force_debug_private_key                    ../../../../../../Library/Bluetooth_LE/library/libbluenrg1_stack.a(smp_scv42_caf.o)
                                                  ../../../../../../Library/Bluetooth_LE/library/libbluenrg1_stack.a(smp_scv42_sap.o)
smp_sc_generate_new_local_oob_data                ../../../../../../Library/Bluetooth_LE/library/libbluenrg1_stack.a(smp_scv42_caf.o)
                                                  Stack/stack_user_cfg.o
smp_sc_generate_new_local_oob_data_ucfg           Stack/stack_user_cfg.o
                                                  ../../../../../../Library/Bluetooth_LE/library/libbluenrg1_stack.a(smp_common.o)
smp_sc_hci_le_generate_dhkey_complete_evt_hndl    ../../../../../../Library/Bluetooth_LE/library/libbluenrg1_stack.a(smp_scv42_sap.o)
                                                  Stack/stack_user_cfg.o
smp_sc_hci_le_generate_dhkey_complete_evt_hndl_ucfg Stack/stack_user_cfg.o
                                                  ../../../../../../Library/Bluetooth_LE/library/libbluenrg1_stack.a(aci_events.o)
smp_sc_hci_le_read_local_p256_public_key_complete_evt_hndl ../../../../../../Library/Bluetooth_LE/library/libbluenrg1_stack.a(smp_scv42_sap.o)
                                                  Stack/stack_user_cfg.o
smp_sc_hci_le_read_local_p256_public_key_complete_evt_hndl_ucfg Stack/stack_user_cfg.o
                                                  ../../../../../../Library/Bluetooth_LE/library/libbluenrg1_stack.a(aci_events.o)
smp_sc_init                                       ../../../../../../Library/Bluetooth_LE/library/libbluenrg1_stack.a(smp_scv42_caf.o)
                                                  Stack/stack_user_cfg.o
smp_sc_init_ucfg                                  Stack/stack_user_cfg.o
                                                  ../../../../../../Library/Bluetooth_LE/library/libbluenrg1_stack.a(smp_scv42_sap.o)
                                                  ../../../../../../Library/Bluetooth_LE/library/libbluenrg1_stack.a(smp_common.o)
smp_sc_is_another_sc_pairing_ongoing              ../../../../../../Library/Bluetooth_LE/library/libbluenrg1_stack.a(smp_scv42_caf.o)
                                                  ../../../../../../Library/Bluetooth_LE/library/libbluenrg1_stack.a(smp_scv42_sap.o)
smp_sc_is_debug_key_usage_forced                  ../../../../../../Library/Bluetooth_LE/library/libbluenrg1_stack.a(smp_scv42_caf.o)
                                                  ../../../../../../Library/Bluetooth_LE/library/libbluenrg1_stack.a(smp_scv42_sap.o)
smp_sc_pairing_oob_confirm_receive_verify         ../../../../../../Library/Bluetooth_LE/library/libbluenrg1_stack.a(smp_scv42_caf.o)
                                                  ../../../../../../Library/Bluetooth_LE/library/libbluenrg1_stack.a(securitymgr.o)
smp_sc_pairing_public_key_receive                 ../../../../../../Library/Bluetooth_LE/library/libbluenrg1_stack.a(smp_scv42_caf.o)
                                                  ../../../../../../Library/Bluetooth_LE/library/libbluenrg1_stack.a(securitymgr.o)
smp_sc_pairing_public_key_send                    ../../../../../../Library/Bluetooth_LE/library/libbluenrg1_stack.a(smp_scv42_caf.o)
                                                  ../../../../../../Library/Bluetooth_LE/library/libbluenrg1_stack.a(securitymgr.o)
smp_sc_phase_2as2_dhkey_check_receive             ../../../../../../Library/Bluetooth_LE/library/libbluenrg1_stack.a(smp_scv42_caf.o)
                                                  ../../../../../../Library/Bluetooth_LE/library/libbluenrg1_stack.a(securitymgr.o)
smp_sc_phase_2as2_start                           ../../../../../../Library/Bluetooth_LE/library/libbluenrg1_stack.a(smp_scv42_caf.o)
                                                  ../../../../../../Library/Bluetooth_LE/library/libbluenrg1_stack.a(securitymgr.o)
smp_sc_submit_ecc_pk_generation_request           ../../../../../../Library/Bluetooth_LE/library/libbluenrg1_stack.a(smp_scv42_caf.o)
                                                  ../../../../../../Library/Bluetooth_LE/library/libbluenrg1_stack.a(smp_scv42_sap.o)
                                                  ../../../../../../Library/Bluetooth_LE/library/libbluenrg1_stack.a(securitymgr.o)
smp_sc_update_statistics_on_pairing_complete      ../../../../../../Library/Bluetooth_LE/library/libbluenrg1_stack.a(smp_scv42_caf.o)
                                                  Stack/stack_user_cfg.o
smp_sc_update_statistics_on_pairing_complete_ucfg Stack/stack_user_cfg.o
                                                  ../../../../../../Library/Bluetooth_LE/library/libbluenrg1_stack.a(smp_common.o)
smp_search_blacklist                              ../../../../../../Library/Bluetooth_LE/library/libbluenrg1_stack.a(smp_common.o)
                                                  ../../../../../../Library/Bluetooth_LE/library/libbluenrg1_stack.a(securitymgr.o)
smp_send_packet                                   ../../../../../../Library/Bluetooth_LE/library/libbluenrg1_stack.a(securitymgr.o)
                                                  ../../../../../../Library/Bluetooth_LE/library/libbluenrg1_stack.a(smp_scv42_caf.o)
stacklib_flash_data                               User/DTM_boot.o
stacklib_stored_device_id_data                    User/DTM_boot.o
start_timebase                                    ../../../../../../Library/Bluetooth_LE/library/libbluenrg1_stack.a(multi_master_time.o)
                                                  ../../../../../../Library/Bluetooth_LE/library/libbluenrg1_stack.a(ll_routines_master.o)
state_func_call_init_csr_ucfg                     Stack/stack_user_cfg.o
                                                  ../../../../../../Library/Bluetooth_LE/library/libbluenrg1_stack.a(bluenrg_main_func.o)
store_data                                        ../../../../../../Library/Bluetooth_LE/library/libbluenrg1_stack.a(gatt_server.o)
swap_slaves                                       ../../../../../../Library/Bluetooth_LE/library/libbluenrg1_stack.a(routines_support.o)
                                                  ../../../../../../Library/Bluetooth_LE/library/libbluenrg1_stack.a(multi_master_time.o)
system_time_trans                                 ../../../../../../Library/Bluetooth_LE/library/libbluenrg1_stack.a(rom_ll_timehandling.o)
                                                  ../../../../../../Library/Bluetooth_LE/library/libbluenrg1_stack.a(advance_wakeup_time.o)
                                                  ../../../../../../Library/Bluetooth_LE/library/libbluenrg1_stack.a(sdb.o)
                                                  ../../../../../../Library/Bluetooth_LE/library/libbluenrg1_stack.a(ll_isr.o)
                                                  ../../../../../../Library/Bluetooth_LE/library/libbluenrg1_stack.a(host_timer.o)
system_time_trans_ext                             ../../../../../../Library/Bluetooth_LE/library/libbluenrg1_stack.a(rom_ll_timehandling.o)
                                                  ../../../../../../Library/Bluetooth_LE/library/libbluenrg1_stack.a(host_timer.o)
systick_counter                                   User/transport_layer.o
                                                  User/BlueNRG1_it.o
systick_counter_prev                              User/transport_layer.o
time_offset1                                      ../../../../../../Library/Bluetooth_LE/library/libbluenrg1_stack.a(rom_ll_timehandling.o)
                                                  ../../../../../../Library/Bluetooth_LE/library/libbluenrg1_stack.a(multi_master_time.o)
time_offset2                                      ../../../../../../Library/Bluetooth_LE/library/libbluenrg1_stack.a(rom_ll_timehandling.o)
                                                  ../../../../../../Library/Bluetooth_LE/library/libbluenrg1_stack.a(routines_support.o)
                                                  ../../../../../../Library/Bluetooth_LE/library/libbluenrg1_stack.a(multi_master_time.o)
timebase_start_connect                            ../../../../../../Library/Bluetooth_LE/library/libbluenrg1_stack.a(multi_master_time.o)
                                                  ../../../../../../Library/Bluetooth_LE/library/libbluenrg1_stack.a(isr_routines.o)
                                                  ../../../../../../Library/Bluetooth_LE/library/libbluenrg1_stack.a(rom_ll_isr_routines.o)
transport_layer_init                              User/transport_layer.o
                                                  User/DTM_main.o
transport_layer_tick                              User/transport_layer.o
                                                  User/DTM_main.o
unpack_channel_map                                ../../../../../../Library/Bluetooth_LE/library/libbluenrg1_stack.a(rom_ll_isr_routines.o)
                                                  ../../../../../../Library/Bluetooth_LE/library/libbluenrg1_stack.a(ll_isr.o)
unpack_update_request                             ../../../../../../Library/Bluetooth_LE/library/libbluenrg1_stack.a(rom_ll_isr_routines.o)
                                                  ../../../../../../Library/Bluetooth_LE/library/libbluenrg1_stack.a(ll_isr.o)
wakeupFromSleepFlag                               Startup/system_bluenrg1.o
                                                  Hal/sleep.o
write_radio_config                                ../../../../../../Library/Bluetooth_LE/library/libbluenrg1_stack.a(rom_ll_ll_routines.o)
                                                  ../../../../../../Library/Bluetooth_LE/library/libbluenrg1_stack.a(bluenrg_hal_aci.o)
